	.file	"error.c"
	.section	".text"
.Ltext0:
	.cfi_sections	.debug_frame
	.align 2
	.globl gluErrorString
	.type	gluErrorString, @function
gluErrorString:
.LFB0:
	.file 1 "D:/devkitPro/portlibs/thirdparty/gl2gx/libogc/../source/libutil/error.c"
	.loc 1 69 0
	.cfi_startproc
	.loc 1 70 0
	cmpwi 0,3,0
	beq- 0,.L6
	.loc 1 73 0
	addi 10,3,-1280
	cmplwi 7,10,5
	bgt+ 7,.L3
	.loc 1 74 0
	lis 9,.LANCHOR1@ha
	.loc 1 69 0
	stwu 1,-16(1)
	.cfi_def_cfa_offset 16
	.loc 1 74 0
	slwi 10,10,2
	la 9,.LANCHOR1@l(9)
	lwzx 6,9,10
	lis 9,glErrFile@ha
	.loc 1 69 0
	mflr 0
	stw 31,12(1)
	.loc 1 74 0
	lwz 7,glErrFile@l(9)
	.cfi_register 65, 0
	.cfi_offset 31, -4
	lis 31,.LANCHOR0@ha
	lis 9,glErrLine@ha
	la 31,.LANCHOR0@l(31)
	lis 5,.LC2@ha
	lwz 8,glErrLine@l(9)
	mr 3,31
	li 4,1024
	la 5,.LC2@l(5)
	.loc 1 69 0
	stw 0,20(1)
	.cfi_offset 65, 4
	.loc 1 74 0
	crxor 6,6,6
	bl snprintf
	.loc 1 91 0
	addi 11,1,16
	.loc 1 75 0
	mr 3,31
	.loc 1 91 0
	b _restgpr_31_x
	.cfi_restore 31
	.cfi_restore 65
.L3:
	.cfi_def_cfa_offset 0
	.loc 1 77 0
	xoris 10,3,0xffff
	cmpwi 7,10,-32719
	beq 7,.L7
	.loc 1 80 0
	addis 3,3,0xfffe
	addi 9,3,30172
	cmplwi 7,9,4
	bgt+ 7,.L4
	.loc 1 81 0
	lis 10,.LANCHOR1@ha
	slwi 9,9,2
	la 10,.LANCHOR1@l(10)
	add 9,10,9
	lwz 3,24(9)
	blr
.L4:
	.loc 1 83 0
	addi 9,3,30821
	cmplwi 7,9,36
	bgt+ 7,.L5
	.loc 1 84 0
	addi 3,3,30822
	b __gluNURBSErrorString
.L5:
	.loc 1 86 0
	addi 9,3,30921
	cmplwi 7,9,7
	bgt- 7,.L8
	.loc 1 87 0
	addi 3,3,30922
	b __gluTessErrorString
.L6:
	.loc 1 71 0
	lis 3,.LC0@ha
	la 3,.LC0@l(3)
	blr
.L7:
	.loc 1 78 0
	lis 3,.LC1@ha
	la 3,.LC1@l(3)
	blr
.L8:
	.loc 1 90 0
	li 3,0
	blr
	.cfi_endproc
.LFE0:
	.size	gluErrorString, .-gluErrorString
	.section	.rodata
	.align 2
	.set	.LANCHOR1,. + 0
	.type	glErrorStrings, @object
	.size	glErrorStrings, 24
glErrorStrings:
	.long	.LC3
	.long	.LC4
	.long	.LC7
	.long	.LC8
	.long	.LC9
	.long	.LC5
	.type	gluErrorStrings, @object
	.size	gluErrorStrings, 20
gluErrorStrings:
	.long	.LC3
	.long	.LC4
	.long	.LC5
	.long	.LC6
	.long	.LC7
	.section	.rodata.str1.1,"aMS",@progbits,1
.LC0:
	.string	"no error"
.LC1:
	.string	"table too large"
.LC2:
	.string	"%s at %s - %d"
.LC3:
	.string	"invalid enumerant"
.LC4:
	.string	"invalid value"
.LC5:
	.string	"out of memory"
.LC6:
	.string	""
.LC7:
	.string	"invalid operation"
.LC8:
	.string	"stack overflow"
.LC9:
	.string	"stack underflow"
	.section	".bss"
	.align 2
	.set	.LANCHOR0,. + 0
	.type	error_string, @object
	.size	error_string, 1024
error_string:
	.zero	1024
	.section	".text"
.Letext0:
	.file 2 "D:/devkitPro/portlibs/thirdparty/gl2gx/libogc/include/GL/gl.h"