	.file	"geom.c"
	.section	".text"
.Ltext0:
	.cfi_sections	.debug_frame
	.align 2
	.globl __gl_vertLeq
	.type	__gl_vertLeq, @function
__gl_vertLeq:
.LFB0:
	.file 1 "D:/devkitPro/portlibs/thirdparty/gl2gx/libogc/../source/libtess/geom.c"
	.loc 1 48 0
	.cfi_startproc
.LVL0:
	.loc 1 51 0
	lfd 0,40(3)
	lfd 13,40(4)
	fcmpu 7,0,13
	blt- 7,.L6
	.loc 1 51 0 is_stmt 0 discriminator 2
	beq- 7,.L3
.LVL1:
.L4:
	.loc 1 51 0
	li 3,0
	blr
.LVL2:
.L3:
	.loc 1 51 0 discriminator 3
	lfd 13,48(3)
	li 3,1
.LVL3:
	lfd 0,48(4)
	fcmpu 7,13,0
	cror 30,28,30
	bne+ 7,.L4
	blr
.LVL4:
.L6:
	.loc 1 51 0
	li 3,1
.LVL5:
	.loc 1 52 0 is_stmt 1
	blr
	.cfi_endproc
.LFE0:
	.size	__gl_vertLeq, .-__gl_vertLeq
	.align 2
	.globl __gl_edgeEval
	.type	__gl_edgeEval, @function
__gl_edgeEval:
.LFB1:
	.loc 1 55 0
	.cfi_startproc
.LVL6:
	.loc 1 70 0
	lfd 13,40(4)
	.loc 1 73 0
	lis 9,.LC0@ha
	.loc 1 70 0
	lfd 0,40(3)
	.loc 1 73 0
	lfd 1,.LC0@l(9)
	.loc 1 70 0
	fsub 10,13,0
.LVL7:
	.loc 1 71 0
	lfd 0,40(5)
	fsub 13,0,13
.LVL8:
	.loc 1 73 0
	fadd 0,10,13
	fcmpu 7,0,1
	bnglr- 7
	.loc 1 74 0
	fcmpu 7,10,13
	lfd 11,48(3)
	lfd 12,48(5)
	lfd 9,48(4)
	bnl+ 7,.L18
	.loc 1 75 0
	fdiv 0,10,0
	fsub 1,11,12
	fsub 11,9,11
	fmadd 1,1,0,11
	blr
.L18:
	.loc 1 77 0
	fdiv 0,13,0
	fsub 1,12,11
	fsub 12,9,12
	fmadd 1,1,0,12
	.loc 1 82 0
	blr
	.cfi_endproc
.LFE1:
	.size	__gl_edgeEval, .-__gl_edgeEval
	.align 2
	.globl __gl_edgeSign
	.type	__gl_edgeSign, @function
__gl_edgeSign:
.LFB2:
	.loc 1 85 0
	.cfi_startproc
.LVL9:
	.loc 1 94 0
	lfd 13,40(4)
	.loc 1 97 0
	lis 9,.LC0@ha
	.loc 1 94 0
	lfd 12,40(3)
	.loc 1 97 0
	lfd 1,.LC0@l(9)
	.loc 1 94 0
	fsub 0,13,12
.LVL10:
	.loc 1 95 0
	lfd 12,40(5)
	fsub 13,12,13
.LVL11:
	.loc 1 97 0
	fadd 12,0,13
	fcmpu 7,12,1
	bnglr- 7
	.loc 1 98 0
	lfd 12,48(4)
	lfd 1,48(5)
	lfd 11,48(3)
	fsub 1,12,1
	fsub 12,12,11
	fmul 13,12,13
.LVL12:
	fmadd 1,1,0,13
	.loc 1 102 0
	blr
	.cfi_endproc
.LFE2:
	.size	__gl_edgeSign, .-__gl_edgeSign
	.align 2
	.globl __gl_transEval
	.type	__gl_transEval, @function
__gl_transEval:
.LFB3:
	.loc 1 110 0
	.cfi_startproc
.LVL13:
	.loc 1 125 0
	lfd 13,48(4)
	.loc 1 128 0
	lis 9,.LC0@ha
	.loc 1 125 0
	lfd 0,48(3)
	.loc 1 128 0
	lfd 1,.LC0@l(9)
	.loc 1 125 0
	fsub 10,13,0
.LVL14:
	.loc 1 126 0
	lfd 0,48(5)
	fsub 13,0,13
.LVL15:
	.loc 1 128 0
	fadd 0,10,13
	fcmpu 7,0,1
	bnglr- 7
	.loc 1 129 0
	fcmpu 7,10,13
	lfd 11,40(3)
	lfd 12,40(5)
	lfd 9,40(4)
	bnl+ 7,.L34
	.loc 1 130 0
	fdiv 0,10,0
	fsub 1,11,12
	fsub 11,9,11
	fmadd 1,1,0,11
	blr
.L34:
	.loc 1 132 0
	fdiv 0,13,0
	fsub 1,12,11
	fsub 12,9,12
	fmadd 1,1,0,12
	.loc 1 137 0
	blr
	.cfi_endproc
.LFE3:
	.size	__gl_transEval, .-__gl_transEval
	.align 2
	.globl __gl_transSign
	.type	__gl_transSign, @function
__gl_transSign:
.LFB4:
	.loc 1 140 0
	.cfi_startproc
.LVL16:
	.loc 1 149 0
	lfd 13,48(4)
	.loc 1 152 0
	lis 9,.LC0@ha
	.loc 1 149 0
	lfd 12,48(3)
	.loc 1 152 0
	lfd 1,.LC0@l(9)
	.loc 1 149 0
	fsub 0,13,12
.LVL17:
	.loc 1 150 0
	lfd 12,48(5)
	fsub 13,12,13
.LVL18:
	.loc 1 152 0
	fadd 12,0,13
	fcmpu 7,12,1
	bnglr- 7
	.loc 1 153 0
	lfd 12,40(4)
	lfd 1,40(5)
	lfd 11,40(3)
	fsub 1,12,1
	fsub 12,12,11
	fmul 13,12,13
.LVL19:
	fmadd 1,1,0,13
	.loc 1 157 0
	blr
	.cfi_endproc
.LFE4:
	.size	__gl_transSign, .-__gl_transSign
	.align 2
	.globl __gl_vertCCW
	.type	__gl_vertCCW, @function
__gl_vertCCW:
.LFB5:
	.loc 1 161 0
	.cfi_startproc
.LVL20:
	.loc 1 168 0
	lfd 13,48(3)
	lis 9,.LC0@ha
	lfd 12,48(5)
	lfd 11,40(4)
	fsub 10,12,13
	lfd 0,48(4)
	fsub 12,0,12
	fmul 11,10,11
	lfd 10,40(3)
	fsub 0,13,0
	lfd 13,40(5)
	fmadd 12,10,12,11
	lfd 11,.LC0@l(9)
	fmadd 0,13,0,12
	fcmpu 7,0,11
	cror 30,29,30
	.loc 1 169 0
	mfcr 3
	rlwinm 3,3,31,1
.LVL21:
	blr
	.cfi_endproc
.LFE5:
	.size	__gl_vertCCW, .-__gl_vertCCW
	.align 2
	.globl __gl_edgeIntersect
	.type	__gl_edgeIntersect, @function
__gl_edgeIntersect:
.LFB6:
	.loc 1 217 0
	.cfi_startproc
.LVL22:
	stwu 1,-64(1)
	.cfi_def_cfa_offset 64
	mflr 0
	addi 11,1,64
	stw 0,68(1)
	.cfi_offset 65, 4
	bl _savefpr_28
	stmw 26,8(1)
	.cfi_offset 60, -32
	.cfi_offset 61, -24
	.cfi_offset 62, -16
	.cfi_offset 63, -8
	.cfi_offset 26, -56
	.cfi_offset 27, -52
	.cfi_offset 28, -48
	.cfi_offset 29, -44
	.cfi_offset 30, -40
	.cfi_offset 31, -36
	.loc 1 217 0
	mr 29,3
	mr 31,4
	mr 30,5
	.loc 1 228 0
	lfd 0,40(3)
	.loc 1 217 0
	mr 28,6
	.loc 1 228 0
	lfd 13,40(4)
	.loc 1 217 0
	mr 27,7
	.loc 1 228 0
	fcmpu 7,0,13
	blt- 7,.L43
	.loc 1 228 0 is_stmt 0 discriminator 1
	beq- 7,.L44
.L45:
	.loc 1 217 0 is_stmt 1
	mr 9,29
	mr 29,31
	mr 31,9
	b .L43
.L44:
	.loc 1 228 0 discriminator 2
	lfd 0,48(3)
	lfd 13,48(4)
	fcmpu 7,0,13
	cror 30,28,30
	bne- 7,.L45
.L43:
.LVL23:
	.loc 1 229 0
	lfd 0,40(30)
	lfd 13,40(28)
	fcmpu 7,0,13
	blt- 7,.L47
	.loc 1 229 0 is_stmt 0 discriminator 1
	beq- 7,.L48
.L49:
	.loc 1 217 0 is_stmt 1
	mr 9,30
	mr 30,28
	mr 28,9
	b .L47
.L48:
	.loc 1 229 0 discriminator 2
	lfd 0,48(30)
	lfd 13,48(28)
	fcmpu 7,0,13
	cror 30,28,30
	bne- 7,.L49
.L47:
.LVL24:
	.loc 1 230 0
	lfd 0,40(29)
	lfd 13,40(30)
	fcmpu 7,0,13
	blt- 7,.L51
	.loc 1 230 0 is_stmt 0 discriminator 1
	bne- 7,.L125
	.loc 1 230 0 discriminator 2
	lfd 0,48(29)
	lfd 13,48(30)
	fcmpu 7,0,13
	cror 30,28,30
	beq- 7,.L51
.L125:
	mr 9,31
.LBB2:
	.loc 1 230 0
	mr 31,28
.LVL25:
	mr 28,9
.LVL26:
.LBE2:
	mr 9,29
.LVL27:
	mr 29,30
.LVL28:
	mr 30,9
.LVL29:
.L51:
	.loc 1 232 0 is_stmt 1
	lfd 31,40(30)
	lfd 29,40(31)
	fcmpu 7,31,29
	blt- 7,.L53
	.loc 1 232 0 is_stmt 0 discriminator 1
	bne- 7,.L103
	lfd 0,48(30)
	lfd 13,48(31)
	fcmpu 7,0,13
	cror 30,28,30
	bne- 7,.L103
.L53:
	.loc 1 235 0 is_stmt 1
	lfd 28,40(28)
	lis 26,.LC0@ha
	fcmpu 7,29,28
	blt- 7,.L56
	.loc 1 235 0 is_stmt 0 discriminator 1
	bne- 7,.L57
	lfd 0,48(31)
	lfd 13,48(28)
	fcmpu 7,0,13
	cror 30,28,30
	bne- 7,.L57
.L56:
	.loc 1 237 0 is_stmt 1
	mr 3,29
	mr 4,30
	mr 5,31
	bl __gl_edgeEval
.LVL30:
	.loc 1 238 0
	mr 3,30
	.loc 1 237 0
	fmr 30,1
.LVL31:
	.loc 1 238 0
	mr 4,31
	mr 5,28
	bl __gl_edgeEval
.LVL32:
	.loc 1 239 0
	lfd 0,.LC0@l(26)
	fadd 12,30,1
	fcmpu 7,12,0
	bnl+ 7,.L59
	.loc 1 239 0 is_stmt 0 discriminator 1
	fneg 30,30
.LVL33:
	fneg 1,1
.LVL34:
.L59:
	.loc 1 240 0 is_stmt 1
	lfd 0,.LC0@l(26)
	fcmpu 7,30,0
	blt- 7,.L61
	.loc 1 240 0 is_stmt 0 discriminator 3
	fcmpu 6,1,0
	blt- 6,.L62
.LVL35:
.L107:
	fcmpu 7,30,1
	cror 30,28,30
	bne- 7,.L63
	.loc 1 240 0 discriminator 1
	lfd 0,.LC0@l(26)
	fcmpu 7,1,0
	bne- 7,.L65
.LVL36:
.L103:
	fadd 31,31,29
	b .L130
.LVL37:
.L65:
	.loc 1 240 0 discriminator 2
	fadd 13,30,1
	fsub 29,29,31
	fdiv 30,30,13
	fmadd 31,29,30,31
	b .L74
.LVL38:
.L62:
	.loc 1 240 0
	cror 30,28,30
	beq- 7,.L103
	fmr 1,0
.LVL39:
.L63:
	.loc 1 240 0 discriminator 2
	fadd 30,30,1
	fsub 31,31,29
	fdiv 13,1,30
	fmadd 31,31,13,29
	b .L74
.LVL40:
.L57:
	.loc 1 243 0 is_stmt 1
	mr 3,29
	mr 4,30
	mr 5,31
	bl __gl_edgeSign
.LVL41:
	.loc 1 244 0
	mr 3,29
	.loc 1 243 0
	fmr 30,1
.LVL42:
	.loc 1 244 0
	mr 4,28
	mr 5,31
	bl __gl_edgeSign
.LVL43:
	.loc 1 245 0
	lfd 13,.LC0@l(26)
	fsub 12,30,1
	fcmpu 7,12,13
	blt- 7,.L67
	.loc 1 244 0
	fneg 1,1
.LVL44:
	b .L68
.LVL45:
.L67:
	.loc 1 245 0 discriminator 1
	fneg 30,30
.LVL46:
.L68:
	.loc 1 246 0
	lfd 13,.LC0@l(26)
	fcmpu 7,30,13
	blt- 7,.L69
	.loc 1 246 0 is_stmt 0 discriminator 3
	fcmpu 6,1,13
	blt- 6,.L70
.LVL47:
.L108:
	fcmpu 7,30,1
	cror 30,28,30
	bne- 7,.L71
	.loc 1 246 0 discriminator 1
	lfd 13,.LC0@l(26)
	fcmpu 7,1,13
	bne- 7,.L73
.LVL48:
.L104:
	fadd 31,31,28
.L130:
	lis 9,.LC2@ha
	lfs 12,.LC2@l(9)
	fmul 31,31,12
	b .L74
.LVL49:
.L73:
	.loc 1 246 0 discriminator 2
	fadd 0,30,1
	fsub 28,28,31
	fdiv 30,30,0
	fmadd 31,28,30,31
	b .L74
.LVL50:
.L70:
	.loc 1 246 0
	cror 30,28,30
	beq- 7,.L104
	fmr 1,13
.LVL51:
.L71:
	.loc 1 246 0 discriminator 2
	fadd 30,30,1
	fsub 31,31,28
	fdiv 0,1,30
	fmadd 31,31,0,28
.L74:
	.loc 1 246 0 discriminator 3
	stfd 31,40(27)
	.loc 1 251 0 is_stmt 1 discriminator 3
	lfd 0,48(29)
	lfd 13,48(31)
	fcmpu 7,0,13
	blt- 7,.L75
	.loc 1 251 0 is_stmt 0 discriminator 1
	bne- 7,.L126
	.loc 1 251 0 discriminator 2
	lfd 0,40(29)
	lfd 13,40(31)
	fcmpu 7,0,13
	cror 30,28,30
	beq- 7,.L75
.L126:
	mr 9,29
	mr 29,31
.LVL52:
	mr 31,9
.LVL53:
.L75:
	.loc 1 252 0 is_stmt 1
	lfd 0,48(30)
	lfd 13,48(28)
	fcmpu 7,0,13
	blt- 7,.L77
	.loc 1 252 0 is_stmt 0 discriminator 1
	bne- 7,.L127
	.loc 1 252 0 discriminator 2
	lfd 0,40(30)
	lfd 13,40(28)
	fcmpu 7,0,13
	cror 30,28,30
	beq- 7,.L77
.L127:
	mr 9,30
	mr 30,28
.LVL54:
	mr 28,9
.LVL55:
.L77:
	.loc 1 253 0 is_stmt 1
	lfd 0,48(29)
	lfd 13,48(30)
	fcmpu 7,0,13
	blt- 7,.L79
	.loc 1 253 0 is_stmt 0 discriminator 1
	bne- 7,.L128
	.loc 1 253 0 discriminator 2
	lfd 0,40(29)
	lfd 13,40(30)
	fcmpu 7,0,13
	cror 30,28,30
	beq- 7,.L79
.L128:
	mr 9,31
.LBB3:
	.loc 1 253 0
	mr 31,28
.LVL56:
	mr 28,9
.LVL57:
.LBE3:
	mr 9,29
.LVL58:
	mr 29,30
.LVL59:
	mr 30,9
.LVL60:
.L79:
	.loc 1 255 0 is_stmt 1
	lfd 31,48(30)
	lfd 29,48(31)
	fcmpu 7,31,29
	blt- 7,.L81
	.loc 1 255 0 is_stmt 0 discriminator 1
	bne- 7,.L105
	lfd 0,40(30)
	lfd 13,40(31)
	fcmpu 7,0,13
	cror 30,28,30
	bne- 7,.L105
.L81:
	.loc 1 258 0 is_stmt 1
	lfd 28,48(28)
	lis 26,.LC0@ha
	fcmpu 7,29,28
	blt- 7,.L84
	.loc 1 258 0 is_stmt 0 discriminator 1
	bne- 7,.L85
	lfd 0,40(31)
	lfd 13,40(28)
	fcmpu 7,0,13
	cror 30,28,30
	bne- 7,.L85
.L84:
	.loc 1 260 0 is_stmt 1
	mr 3,29
	mr 4,30
	mr 5,31
	bl __gl_transEval
.LVL61:
	.loc 1 261 0
	mr 3,30
	.loc 1 260 0
	fmr 30,1
.LVL62:
	.loc 1 261 0
	mr 4,31
	mr 5,28
	bl __gl_transEval
.LVL63:
	.loc 1 262 0
	lfd 0,.LC0@l(26)
	fadd 12,30,1
	fcmpu 7,12,0
	bnl+ 7,.L87
	.loc 1 262 0 is_stmt 0 discriminator 1
	fneg 30,30
.LVL64:
	fneg 1,1
.LVL65:
.L87:
	.loc 1 263 0 is_stmt 1
	lfd 0,.LC0@l(26)
	fcmpu 7,30,0
	blt- 7,.L89
	.loc 1 263 0 is_stmt 0 discriminator 3
	fcmpu 6,1,0
	blt- 6,.L90
.LVL66:
.L109:
	fcmpu 7,30,1
	cror 30,28,30
	bne- 7,.L91
	.loc 1 263 0 discriminator 1
	lfd 0,.LC0@l(26)
	fcmpu 7,1,0
	bne- 7,.L93
.LVL67:
.L105:
	fadd 31,31,29
	b .L131
.LVL68:
.L93:
	.loc 1 263 0 discriminator 2
	fadd 13,30,1
	fsub 29,29,31
	fdiv 30,30,13
	fmadd 31,29,30,31
	b .L102
.LVL69:
.L90:
	.loc 1 263 0
	cror 30,28,30
	beq- 7,.L105
	fmr 1,0
.LVL70:
.L91:
	.loc 1 263 0 discriminator 2
	fadd 30,30,1
	fsub 31,31,29
	fdiv 13,1,30
	fmadd 31,31,13,29
	b .L102
.L85:
	.loc 1 266 0 is_stmt 1
	mr 3,29
	mr 4,30
	mr 5,31
	bl __gl_transSign
.LVL71:
	.loc 1 267 0
	mr 3,29
	.loc 1 266 0
	fmr 30,1
.LVL72:
	.loc 1 267 0
	mr 4,28
	mr 5,31
	bl __gl_transSign
.LVL73:
	.loc 1 268 0
	lfd 13,.LC0@l(26)
	fsub 12,30,1
	fcmpu 7,12,13
	blt- 7,.L95
	.loc 1 267 0
	fneg 1,1
.LVL74:
	b .L96
.LVL75:
.L95:
	.loc 1 268 0 discriminator 1
	fneg 30,30
.LVL76:
.L96:
	.loc 1 269 0
	lfd 13,.LC0@l(26)
	fcmpu 7,30,13
	blt- 7,.L97
	.loc 1 269 0 is_stmt 0 discriminator 3
	fcmpu 6,1,13
	blt- 6,.L98
.LVL77:
.L110:
	fcmpu 7,30,1
	cror 30,28,30
	bne- 7,.L99
	.loc 1 269 0 discriminator 1
	lfd 13,.LC0@l(26)
	fcmpu 7,1,13
	bne- 7,.L101
.LVL78:
.L106:
	fadd 31,31,28
.L131:
	lis 9,.LC2@ha
	lfs 12,.LC2@l(9)
	fmul 31,31,12
	b .L102
.LVL79:
.L101:
	.loc 1 269 0 discriminator 2
	fadd 0,30,1
	fsub 28,28,31
	fdiv 30,30,0
	fmadd 31,28,30,31
	b .L102
.LVL80:
.L98:
	.loc 1 269 0
	cror 30,28,30
	beq- 7,.L106
	fmr 1,13
.LVL81:
.L99:
	.loc 1 269 0 discriminator 2
	fadd 30,30,1
	fsub 31,31,28
	fdiv 0,1,30
	fmadd 31,31,0,28
.L102:
	.loc 1 269 0 discriminator 3
	stfd 31,48(27)
	.loc 1 271 0 is_stmt 1 discriminator 3
	addi 11,1,64
	lmw 26,8(1)
.LVL82:
	b _restfpr_28_x
	.cfi_remember_state
	.cfi_restore 63
	.cfi_restore 62
	.cfi_restore 61
	.cfi_restore 60
	.cfi_restore 65
	.cfi_restore 31
	.cfi_restore 30
	.cfi_restore 29
	.cfi_restore 28
	.cfi_restore 27
	.cfi_restore 26
.LVL83:
.L61:
	.cfi_restore_state
	.loc 1 240 0
	fcmpu 7,1,0
	fmr 30,0
	bnl+ 7,.L107
	b .L103
.LVL84:
.L69:
	.loc 1 246 0
	fcmpu 7,1,13
	fmr 30,13
	bnl+ 7,.L108
	b .L104
.LVL85:
.L89:
	.loc 1 263 0
	fcmpu 7,1,0
	fmr 30,0
	bnl+ 7,.L109
	b .L105
.LVL86:
.L97:
	.loc 1 269 0
	fcmpu 7,1,13
	fmr 30,13
	bnl+ 7,.L110
	b .L106
	.cfi_endproc
.LFE6:
	.size	__gl_edgeIntersect, .-__gl_edgeIntersect
	.section	.rodata.cst4,"aM",@progbits,4
	.align 2
.LC2:
	.4byte	1056964608
	.section	.rodata.cst8,"aM",@progbits,8
	.align 3
.LC0:
	.4byte	0
	.4byte	0
	.section	".text"
.Letext0:
	.file 2 "D:/devkitPro/portlibs/thirdparty/gl2gx/libogc/include/GL/gl.h"
	.file 3 "D:/devkitPro/portlibs/thirdparty/gl2gx/libogc/../source/libtess/mesh.h"