	.file	"gl.c"
	.section	".text"
.Ltext0:
	.cfi_sections	.debug_frame
	.align 2
	.type	draw_axis_align_blanker_quad, @function
draw_axis_align_blanker_quad:
.LFB98:
	.file 1 "D:/devkitPro/portlibs/thirdparty/gl2gx/libogc/../source/gl.c"
	.loc 1 480 0
	.cfi_startproc
	mflr 0
	stwu 1,-128(1)
	.cfi_def_cfa_offset 128
	.cfi_register 65, 0
	stmw 30,120(1)
	.cfi_offset 30, -8
	.cfi_offset 31, -4
	.loc 1 492 0
	lis 30,.LC0@ha
	.loc 1 480 0
	stw 0,132(1)
	.cfi_offset 65, 4
	.loc 1 481 0
	bl GX_SetCurrentGXThread
.LVL0:
	.loc 1 490 0
	addi 3,1,72
	.loc 1 492 0
	lis 31,.LC1@ha
	.loc 1 490 0
	bl ps_guMtxIdentity
.LVL1:
	.loc 1 491 0
	li 4,3
	addi 3,1,72
	bl GX_LoadPosMtxImm
.LVL2:
	.loc 1 492 0
	lis 9,.LC3@ha
	lfs 2,.LC3@l(9)
	lis 9,.LC2@ha
	lfs 6,.LC2@l(9)
	addi 3,1,8
	fmr 3,2
	lfs 1,.LC0@l(30)
	fmr 5,2
	lfs 4,.LC1@l(31)
	bl guOrtho
.LVL3:
	.loc 1 493 0
	li 4,1
	addi 3,1,8
	bl GX_LoadProjectionMtx
.LVL4:
	.loc 1 494 0
	li 3,3
	bl GX_SetCurrentMtx
.LVL5:
	.loc 1 497 0
	bl GX_ClearVtxDesc
.LVL6:
	.loc 1 498 0
	li 3,9
	li 4,1
	bl GX_SetVtxDesc
.LVL7:
	.loc 1 499 0
	li 4,1
	li 3,11
	bl GX_SetVtxDesc
.LVL8:
	.loc 1 502 0
	li 3,1
	bl GX_SetNumChans
.LVL9:
	.loc 1 503 0
	li 3,0
	bl GX_SetNumTexGens
.LVL10:
	.loc 1 504 0
	li 3,1
	bl GX_SetNumTevStages
.LVL11:
	.loc 1 505 0
	li 3,0
	bl GX_SetNumIndStages
.LVL12:
	.loc 1 507 0
	li 5,255
	li 6,4
	li 3,0
	li 4,255
	bl GX_SetTevOrder
.LVL13:
	.loc 1 508 0
	li 3,0
	li 4,4
	bl GX_SetTevOp
.LVL14:
	.loc 1 511 0
	li 3,0
	li 4,1
	li 5,0
	li 6,0
	bl GX_SetBlendMode
.LVL15:
	.loc 1 515 0
	li 3,0
	bl GX_SetCullMode
.LVL16:
	.loc 1 517 0
	lis 9,scissor_test@ha
	lbz 9,scissor_test@l(9)
	cmpwi 7,9,0
	beq+ 7,.L2
	.loc 1 519 0
	lis 10,scissorInfo@ha
	la 9,scissorInfo@l(10)
	lwz 3,scissorInfo@l(10)
	lwz 4,4(9)
	lwz 5,8(9)
	lwz 6,12(9)
	bl GX_SetModScissor
.LVL17:
	b .L3
.L2:
	.loc 1 523 0
	bl GX_SetMaxScissor
.LVL18:
.L3:
	.loc 1 527 0
	bl GX_DrawDone
.LVL19:
	.loc 1 529 0
	li 3,128
	li 4,0
	li 5,4
	bl GX_Begin
.LVL20:
	.loc 1 531 0
	lis 6,_cleardepth@ha
	lfs 0,_cleardepth@l(6)
.LBB170:
.LBB171:
	.file 2 "D:\\devkitPro\\/libogc/include/ogc/gx.h"
	.loc 2 2123 0
	lis 9,wgPipe@ha
	lwz 9,wgPipe@l(9)
	li 7,0
.LBE171:
.LBE170:
	.loc 1 531 0
	fneg 0,0
.LVL21:
	.loc 1 532 0
	lis 8,_clearcolor@ha
.LBB174:
.LBB172:
	.loc 2 2123 0
	stw 7,0(9)
.LBE172:
.LBE174:
	.loc 1 532 0
	la 10,_clearcolor@l(8)
.LBB175:
.LBB173:
	.loc 2 2124 0
	stw 7,0(9)
	.loc 2 2125 0
	stfs 0,0(9)
.LBE173:
.LBE175:
.LBB176:
.LBB177:
	.loc 2 2123 0
	lfs 0,.LC1@l(31)
.LVL22:
.LBE177:
.LBE176:
	.loc 1 532 0
	lbz 11,_clearcolor@l(8)
	lbz 3,1(10)
	lbz 4,2(10)
	lbz 5,3(10)
.LVL23:
.LBB180:
.LBB181:
	.loc 2 2229 0
	stb 11,0(9)
.LVL24:
	.loc 2 2230 0
	stb 3,0(9)
	.loc 2 2231 0
	stb 4,0(9)
	.loc 2 2232 0
	stb 5,0(9)
.LBE181:
.LBE180:
	.loc 1 533 0
	lfs 13,_cleardepth@l(6)
.LBB182:
.LBB178:
	.loc 2 2123 0
	stfs 0,0(9)
.LBE178:
.LBE182:
	.loc 1 533 0
	fneg 13,13
.LVL25:
.LBB183:
.LBB179:
	.loc 2 2124 0
	stw 7,0(9)
	.loc 2 2125 0
	stfs 13,0(9)
.LBE179:
.LBE183:
	.loc 1 534 0
	lbz 11,_clearcolor@l(8)
.LVL26:
	lbz 3,1(10)
.LVL27:
	lbz 4,2(10)
.LVL28:
	lbz 5,3(10)
.LVL29:
.LBB184:
.LBB185:
	.loc 2 2229 0
	stb 11,0(9)
.LVL30:
	.loc 2 2230 0
	stb 3,0(9)
	.loc 2 2231 0
	stb 4,0(9)
	.loc 2 2232 0
	stb 5,0(9)
.LBE185:
.LBE184:
	.loc 1 535 0
	lfs 13,_cleardepth@l(6)
.LVL31:
.LBB186:
.LBB187:
	.loc 2 2123 0
	stfs 0,0(9)
.LBE187:
.LBE186:
	.loc 1 535 0
	fneg 13,13
.LVL32:
.LBB189:
.LBB188:
	.loc 2 2124 0
	lfs 0,.LC0@l(30)
	stfs 0,0(9)
	.loc 2 2125 0
	stfs 13,0(9)
.LBE188:
.LBE189:
	.loc 1 536 0
	lbz 11,_clearcolor@l(8)
.LVL33:
	lbz 3,1(10)
.LVL34:
	lbz 4,2(10)
.LVL35:
	lbz 5,3(10)
.LVL36:
.LBB190:
.LBB191:
	.loc 2 2229 0
	stb 11,0(9)
.LVL37:
	.loc 2 2230 0
	stb 3,0(9)
	.loc 2 2231 0
	stb 4,0(9)
	.loc 2 2232 0
	stb 5,0(9)
.LBE191:
.LBE190:
	.loc 1 537 0
	lfs 13,_cleardepth@l(6)
.LVL38:
.LBB192:
.LBB193:
	.loc 2 2123 0
	stw 7,0(9)
.LBE193:
.LBE192:
	.loc 1 537 0
	fneg 13,13
.LVL39:
.LBB195:
.LBB194:
	.loc 2 2124 0
	stfs 0,0(9)
	.loc 2 2125 0
	stfs 13,0(9)
.LBE194:
.LBE195:
	.loc 1 538 0
	lbz 6,_clearcolor@l(8)
	lbz 7,1(10)
	lbz 8,2(10)
	lbz 10,3(10)
.LVL40:
.LBB196:
.LBB197:
	.loc 2 2229 0
	stb 6,0(9)
.LVL41:
	.loc 2 2230 0
	stb 7,0(9)
	.loc 2 2231 0
	stb 8,0(9)
	.loc 2 2232 0
	stb 10,0(9)
.LBE197:
.LBE196:
	.loc 1 541 0
	bl GX_DrawDone
.LVL42:
	.loc 1 542 0
	addi 11,1,128
	b _restgpr_30_x
	.cfi_restore 31
	.cfi_restore 30
	.cfi_restore 65
	.cfi_endproc
.LFE98:
	.size	draw_axis_align_blanker_quad, .-draw_axis_align_blanker_quad
	.align 2
	.globl glHint
	.type	glHint, @function
glHint:
.LFB64:
	.loc 1 14 0
	.cfi_startproc
.LVL43:
	.loc 1 14 0
	lis 9,cur_state@ha
	lwz 9,cur_state@l(9)
	andi. 10,9,1
	beqlr- 0
.LVL44:
.LBB198:
.LBB199:
	.loc 1 1195 0
	li 10,1282
	lis 9,glErrCode@ha
	stw 10,glErrCode@l(9)
	.loc 1 1196 0
	lis 10,.LC4@ha
	la 10,.LC4@l(10)
	lis 9,glErrFile@ha
	stw 10,glErrFile@l(9)
	.loc 1 1197 0
	li 10,14
	lis 9,glErrLine@ha
	stw 10,glErrLine@l(9)
	blr
.LBE199:
.LBE198:
	.cfi_endproc
.LFE64:
	.size	glHint, .-glHint
	.align 2
	.globl glPolygonOffset
	.type	glPolygonOffset, @function
glPolygonOffset:
.LFB65:
	.loc 1 16 0
	.cfi_startproc
.LVL45:
	.loc 1 16 0
	lis 9,cur_state@ha
	lwz 9,cur_state@l(9)
	andi. 10,9,1
	beqlr- 0
.LVL46:
.LBB200:
.LBB201:
	.loc 1 1195 0
	li 10,1282
	lis 9,glErrCode@ha
	stw 10,glErrCode@l(9)
	.loc 1 1196 0
	lis 10,.LC4@ha
	la 10,.LC4@l(10)
	lis 9,glErrFile@ha
	stw 10,glErrFile@l(9)
	.loc 1 1197 0
	li 10,16
	lis 9,glErrLine@ha
	stw 10,glErrLine@l(9)
	blr
.LBE201:
.LBE200:
	.cfi_endproc
.LFE65:
	.size	glPolygonOffset, .-glPolygonOffset
	.align 2
	.globl glLightModeli
	.type	glLightModeli, @function
glLightModeli:
.LFB66:
	.loc 1 18 0
	.cfi_startproc
.LVL47:
	.loc 1 18 0
	lis 9,cur_state@ha
	lwz 9,cur_state@l(9)
	andi. 10,9,1
	beqlr- 0
.LVL48:
.LBB202:
.LBB203:
	.loc 1 1195 0
	li 10,1282
	lis 9,glErrCode@ha
	stw 10,glErrCode@l(9)
	.loc 1 1196 0
	lis 10,.LC4@ha
	la 10,.LC4@l(10)
	lis 9,glErrFile@ha
	stw 10,glErrFile@l(9)
	.loc 1 1197 0
	li 10,18
	lis 9,glErrLine@ha
	stw 10,glErrLine@l(9)
	blr
.LBE203:
.LBE202:
	.cfi_endproc
.LFE66:
	.size	glLightModeli, .-glLightModeli
	.align 2
	.globl glTexGeni
	.type	glTexGeni, @function
glTexGeni:
.LFB67:
	.loc 1 22 0
	.cfi_startproc
.LVL49:
	blr
	.cfi_endproc
.LFE67:
	.size	glTexGeni, .-glTexGeni
	.align 2
	.globl glPolygonMode
	.type	glPolygonMode, @function
glPolygonMode:
.LFB68:
	.loc 1 24 0
	.cfi_startproc
.LVL50:
	.loc 1 24 0
	lis 9,cur_state@ha
	lwz 9,cur_state@l(9)
	andi. 10,9,1
	beqlr- 0
.LVL51:
.LBB204:
.LBB205:
	.loc 1 1195 0
	li 10,1282
	lis 9,glErrCode@ha
	stw 10,glErrCode@l(9)
	.loc 1 1196 0
	lis 10,.LC4@ha
	la 10,.LC4@l(10)
	lis 9,glErrFile@ha
	stw 10,glErrFile@l(9)
	.loc 1 1197 0
	li 10,24
	lis 9,glErrLine@ha
	stw 10,glErrLine@l(9)
	blr
.LBE205:
.LBE204:
	.cfi_endproc
.LFE68:
	.size	glPolygonMode, .-glPolygonMode
	.align 2
	.globl glShadeModel
	.type	glShadeModel, @function
glShadeModel:
.LFB69:
	.loc 1 28 0
	.cfi_startproc
.LVL52:
	.loc 1 28 0
	lis 9,cur_state@ha
	lwz 9,cur_state@l(9)
	andi. 10,9,1
	beqlr- 0
.LVL53:
.LBB206:
.LBB207:
	.loc 1 1195 0
	li 10,1282
	lis 9,glErrCode@ha
	stw 10,glErrCode@l(9)
	.loc 1 1196 0
	lis 10,.LC4@ha
	la 10,.LC4@l(10)
	lis 9,glErrFile@ha
	stw 10,glErrFile@l(9)
	.loc 1 1197 0
	li 10,28
	lis 9,glErrLine@ha
	stw 10,glErrLine@l(9)
	blr
.LBE207:
.LBE206:
	.cfi_endproc
.LFE69:
	.size	glShadeModel, .-glShadeModel
	.align 2
	.globl glClipPlane
	.type	glClipPlane, @function
glClipPlane:
.LFB70:
	.loc 1 30 0
	.cfi_startproc
.LVL54:
	.loc 1 30 0
	lis 9,cur_state@ha
	lwz 9,cur_state@l(9)
	andi. 10,9,1
	beqlr- 0
.LVL55:
.LBB208:
.LBB209:
	.loc 1 1195 0
	li 10,1282
	lis 9,glErrCode@ha
	stw 10,glErrCode@l(9)
	.loc 1 1196 0
	lis 10,.LC4@ha
	la 10,.LC4@l(10)
	lis 9,glErrFile@ha
	stw 10,glErrFile@l(9)
	.loc 1 1197 0
	li 10,30
	lis 9,glErrLine@ha
	stw 10,glErrLine@l(9)
	blr
.LBE209:
.LBE208:
	.cfi_endproc
.LFE70:
	.size	glClipPlane, .-glClipPlane
	.align 2
	.globl glColorMaterial
	.type	glColorMaterial, @function
glColorMaterial:
.LFB71:
	.loc 1 35 0
	.cfi_startproc
.LVL56:
	.loc 1 36 0
	lis 9,cur_state@ha
	lwz 9,cur_state@l(9)
	andi. 10,9,1
	beq+ 0,.L38
.LVL57:
.LBB210:
.LBB211:
	.loc 1 1195 0
	li 10,1282
	lis 9,glErrCode@ha
	stw 10,glErrCode@l(9)
	.loc 1 1196 0
	lis 10,.LC4@ha
	la 10,.LC4@l(10)
	lis 9,glErrFile@ha
	stw 10,glErrFile@l(9)
	.loc 1 1197 0
	li 10,36
	b .L49
.LVL58:
.L38:
.LBE211:
.LBE210:
	.loc 1 38 0
	cmplwi 7,4,5632
	beq- 7,.L41
	bgt- 7,.L42
	addi 9,4,-4608
	cmplwi 7,9,2
	bgt+ 7,.L40
	b .L41
.L42:
	cmplwi 7,4,5634
	bne+ 7,.L40
.L41:
	.loc 1 44 0
	lis 9,copy_material@ha
	stw 4,copy_material@l(9)
	blr
.L40:
.LVL59:
.LBB212:
.LBB213:
	.loc 1 1195 0
	li 10,1280
	lis 9,glErrCode@ha
	stw 10,glErrCode@l(9)
	.loc 1 1196 0
	lis 10,.LC4@ha
	la 10,.LC4@l(10)
	lis 9,glErrFile@ha
	stw 10,glErrFile@l(9)
	.loc 1 1197 0
	li 10,45
.LVL60:
.L49:
	lis 9,glErrLine@ha
	stw 10,glErrLine@l(9)
	blr
.LBE213:
.LBE212:
	.cfi_endproc
.LFE71:
	.size	glColorMaterial, .-glColorMaterial
	.align 2
	.globl glBlendFunc
	.type	glBlendFunc, @function
glBlendFunc:
.LFB72:
	.loc 1 50 0
	.cfi_startproc
.LVL61:
	.loc 1 51 0
	lis 9,cur_state@ha
	lwz 9,cur_state@l(9)
	andi. 8,9,1
	beq+ 0,.L51
.LVL62:
.LBB214:
.LBB215:
	.loc 1 1195 0
	li 10,1282
	lis 9,glErrCode@ha
	stw 10,glErrCode@l(9)
	.loc 1 1196 0
	lis 10,.LC4@ha
	la 10,.LC4@l(10)
	lis 9,glErrFile@ha
	stw 10,glErrFile@l(9)
	.loc 1 1197 0
	li 10,51
	b .L76
.LVL63:
.L51:
.LBE215:
.LBE214:
	.loc 1 53 0
	cmplwi 7,3,771
	beq- 7,.L54
	bgt+ 7,.L55
	cmplwi 7,3,1
	beq- 7,.L56
	blt- 7,.L57
	cmplwi 7,3,770
	.loc 1 59 0
	li 10,4
	.loc 1 53 0
	beq+ 7,.L74
	b .L53
.L55:
	cmplwi 7,3,773
	beq- 7,.L59
	blt- 7,.L60
	cmplwi 7,3,774
	beq- 7,.L61
	cmplwi 7,3,775
	.loc 1 58 0
	li 10,3
	.loc 1 53 0
	beq+ 7,.L74
	b .L53
.L57:
	.loc 1 55 0
	lis 10,blend_src@ha
	stb 8,blend_src@l(10)
	b .L63
.L56:
	.loc 1 56 0
	lis 9,blend_src@ha
	stb 3,blend_src@l(9)
	b .L63
.L61:
	.loc 1 57 0
	li 10,2
.L74:
	.loc 1 58 0
	lis 9,blend_src@ha
	stb 10,blend_src@l(9)
	b .L63
.L54:
	.loc 1 60 0
	li 10,5
	b .L74
.L60:
	.loc 1 61 0
	li 10,6
	b .L74
.L59:
	.loc 1 62 0
	li 10,7
	b .L74
.L53:
.LVL64:
.LBB216:
.LBB217:
	.loc 1 1195 0
	li 10,1280
	lis 9,glErrCode@ha
	stw 10,glErrCode@l(9)
	.loc 1 1196 0
	lis 10,.LC4@ha
	la 10,.LC4@l(10)
	lis 9,glErrFile@ha
	stw 10,glErrFile@l(9)
	.loc 1 1197 0
	li 10,64
	lis 9,glErrLine@ha
	stw 10,glErrLine@l(9)
.LVL65:
.L63:
.LBE217:
.LBE216:
	.loc 1 67 0
	cmplwi 7,4,769
	beq- 7,.L65
	bgt+ 7,.L66
	cmplwi 7,4,1
	beq- 7,.L67
	blt- 7,.L68
	cmplwi 7,4,768
	.loc 1 71 0
	li 10,2
	.loc 1 67 0
	beq+ 7,.L75
	b .L64
.L66:
	cmplwi 7,4,771
	beq- 7,.L70
	blt- 7,.L71
	cmplwi 7,4,772
	beq- 7,.L72
	cmplwi 7,4,773
	.loc 1 76 0
	li 10,7
	.loc 1 67 0
	beq+ 7,.L75
	b .L64
.L68:
	.loc 1 69 0
	li 10,0
	b .L75
.L67:
	.loc 1 70 0
	lis 9,blend_dst@ha
	stb 4,blend_dst@l(9)
	blr
.L65:
	.loc 1 72 0
	li 10,3
	b .L75
.L71:
	.loc 1 73 0
	li 10,4
	b .L75
.L70:
	.loc 1 74 0
	li 10,5
	b .L75
.L72:
	.loc 1 75 0
	li 10,6
.L75:
	.loc 1 76 0
	lis 9,blend_dst@ha
	stb 10,blend_dst@l(9)
	blr
.L64:
.LVL66:
.LBB218:
.LBB219:
	.loc 1 1195 0
	li 10,1280
	lis 9,glErrCode@ha
	stw 10,glErrCode@l(9)
	.loc 1 1196 0
	lis 10,.LC4@ha
	la 10,.LC4@l(10)
	lis 9,glErrFile@ha
	stw 10,glErrFile@l(9)
	.loc 1 1197 0
	li 10,77
.LVL67:
.L76:
	lis 9,glErrLine@ha
	stw 10,glErrLine@l(9)
	blr
.LBE219:
.LBE218:
	.cfi_endproc
.LFE72:
	.size	glBlendFunc, .-glBlendFunc
	.align 2
	.globl glScissor
	.type	glScissor, @function
glScissor:
.LFB73:
	.loc 1 82 0
	.cfi_startproc
.LVL68:
	.loc 1 83 0
	lis 9,cur_state@ha
	lwz 9,cur_state@l(9)
	andi. 10,9,1
	beq+ 0,.L78
.LVL69:
.LBB220:
.LBB221:
	.loc 1 1195 0
	li 10,1282
	lis 9,glErrCode@ha
	stw 10,glErrCode@l(9)
	.loc 1 1196 0
	lis 10,.LC4@ha
	la 10,.LC4@l(10)
	lis 9,glErrFile@ha
	stw 10,glErrFile@l(9)
	.loc 1 1197 0
	li 10,83
	b .L82
.LVL70:
.L78:
.LBE221:
.LBE220:
	.loc 1 85 0
	cmpwi 7,5,0
	blt- 7,.L80
	.loc 1 85 0 is_stmt 0 discriminator 1
	cmpwi 7,6,0
	bge+ 7,.L81
.L80:
.LVL71:
.LBB222:
.LBB223:
	.loc 1 1195 0 is_stmt 1
	li 10,1281
	lis 9,glErrCode@ha
	stw 10,glErrCode@l(9)
	.loc 1 1196 0
	lis 10,.LC4@ha
	la 10,.LC4@l(10)
	lis 9,glErrFile@ha
	stw 10,glErrFile@l(9)
	.loc 1 1197 0
	li 10,87
.LVL72:
.L82:
	lis 9,glErrLine@ha
	stw 10,glErrLine@l(9)
	blr
.L81:
.LBE223:
.LBE222:
	.loc 1 91 0
	lis 10,scissorInfo@ha
	la 9,scissorInfo@l(10)
	stw 3,scissorInfo@l(10)
	stw 4,4(9)
	stw 5,8(9)
	stw 6,12(9)
	blr
	.cfi_endproc
.LFE73:
	.size	glScissor, .-glScissor
	.align 2
	.globl glCullFace
	.type	glCullFace, @function
glCullFace:
.LFB74:
	.loc 1 98 0
	.cfi_startproc
.LVL73:
	.loc 1 99 0
	lis 9,cur_state@ha
	lwz 9,cur_state@l(9)
	andi. 10,9,1
	beq+ 0,.L84
.LVL74:
.LBB224:
.LBB225:
	.loc 1 1195 0
	li 10,1282
	lis 9,glErrCode@ha
	stw 10,glErrCode@l(9)
	.loc 1 1196 0
	lis 10,.LC4@ha
	la 10,.LC4@l(10)
	lis 9,glErrFile@ha
	stw 10,glErrFile@l(9)
	.loc 1 1197 0
	li 10,99
	b .L92
.LVL75:
.L84:
.LBE225:
.LBE224:
	.loc 1 101 0
	cmplwi 7,3,1029
	beq- 7,.L87
	cmplwi 7,3,1032
	beq- 7,.L88
	cmplwi 7,3,1028
	.loc 1 104 0
	li 10,1
	.loc 1 101 0
	bne+ 7,.L93
	b .L91
.L87:
	.loc 1 107 0
	li 10,2
	b .L91
.L88:
	.loc 1 110 0
	li 10,3
.L91:
	lis 9,cull_mode@ha
	stb 10,cull_mode@l(9)
	.loc 1 111 0
	blr
.L93:
.LVL76:
.LBB226:
.LBB227:
	.loc 1 1195 0
	li 10,1280
	lis 9,glErrCode@ha
	stw 10,glErrCode@l(9)
	.loc 1 1196 0
	lis 10,.LC4@ha
	la 10,.LC4@l(10)
	lis 9,glErrFile@ha
	stw 10,glErrFile@l(9)
	.loc 1 1197 0
	li 10,113
.LVL77:
.L92:
	lis 9,glErrLine@ha
	stw 10,glErrLine@l(9)
	blr
.LBE227:
.LBE226:
	.cfi_endproc
.LFE74:
	.size	glCullFace, .-glCullFace
	.align 2
	.globl glFrontFace
	.type	glFrontFace, @function
glFrontFace:
.LFB75:
	.loc 1 118 0
	.cfi_startproc
.LVL78:
	.loc 1 120 0
	lis 9,cur_state@ha
	lwz 9,cur_state@l(9)
	andi. 10,9,1
	beq+ 0,.L95
.LVL79:
.LBB228:
.LBB229:
	.loc 1 1195 0
	li 10,1282
	lis 9,glErrCode@ha
	stw 10,glErrCode@l(9)
	.loc 1 1196 0
	lis 10,.LC4@ha
	la 10,.LC4@l(10)
	lis 9,glErrFile@ha
	stw 10,glErrFile@l(9)
	.loc 1 1197 0
	li 10,120
	b .L99
.LVL80:
.L95:
.LBE229:
.LBE228:
	.loc 1 122 0
	addi 9,3,-2304
	cmplwi 7,9,1
	bgt+ 7,.L97
	.loc 1 126 0
	lis 9,gxwinding@ha
	stw 3,gxwinding@l(9)
	blr
.L97:
.LVL81:
.LBB230:
.LBB231:
	.loc 1 1195 0
	li 10,1280
	lis 9,glErrCode@ha
	stw 10,glErrCode@l(9)
	.loc 1 1196 0
	lis 10,.LC4@ha
	la 10,.LC4@l(10)
	lis 9,glErrFile@ha
	stw 10,glErrFile@l(9)
	.loc 1 1197 0
	li 10,128
.LVL82:
.L99:
	lis 9,glErrLine@ha
	stw 10,glErrLine@l(9)
	blr
.LBE231:
.LBE230:
	.cfi_endproc
.LFE75:
	.size	glFrontFace, .-glFrontFace
	.align 2
	.globl glDepthRange
	.type	glDepthRange, @function
glDepthRange:
.LFB76:
	.loc 1 138 0
	.cfi_startproc
.LVL83:
	.loc 1 139 0
	lis 9,cur_state@ha
	lwz 9,cur_state@l(9)
	andi. 10,9,1
	beq+ 0,.L101
.LVL84:
.LBB232:
.LBB233:
	.loc 1 1195 0
	li 10,1282
	lis 9,glErrCode@ha
	stw 10,glErrCode@l(9)
	.loc 1 1196 0
	lis 10,.LC4@ha
	la 10,.LC4@l(10)
	lis 9,glErrFile@ha
	stw 10,glErrFile@l(9)
	.loc 1 1197 0
	li 10,139
	lis 9,glErrLine@ha
	stw 10,glErrLine@l(9)
	blr
.LVL85:
.L101:
.LBE233:
.LBE232:
	.loc 1 141 0
	frsp 1,1
.LVL86:
	lis 9,normNear@ha
	.loc 1 142 0
	frsp 2,2
.LVL87:
	.loc 1 141 0
	stfs 1,normNear@l(9)
	.loc 1 142 0
	lis 9,normFar@ha
	stfs 2,normFar@l(9)
	blr
	.cfi_endproc
.LFE76:
	.size	glDepthRange, .-glDepthRange
	.align 2
	.globl glViewport
	.type	glViewport, @function
glViewport:
.LFB77:
	.loc 1 149 0
	.cfi_startproc
.LVL88:
	.loc 1 150 0
	lis 9,cur_state@ha
	lwz 9,cur_state@l(9)
	andi. 10,9,1
	beq+ 0,.L104
.LVL89:
.LBB234:
.LBB235:
	.loc 1 1195 0
	li 10,1282
	lis 9,glErrCode@ha
	stw 10,glErrCode@l(9)
	.loc 1 1196 0
	lis 10,.LC4@ha
	la 10,.LC4@l(10)
	lis 9,glErrFile@ha
	stw 10,glErrFile@l(9)
	.loc 1 1197 0
	li 10,150
	lis 9,glErrLine@ha
	stw 10,glErrLine@l(9)
	blr
.LVL90:
.L104:
.LBE235:
.LBE234:
	.loc 1 151 0
	lis 10,viewPort@ha
	la 9,viewPort@l(10)
	stw 3,viewPort@l(10)
	stw 4,4(9)
	stw 5,8(9)
	stw 6,12(9)
	blr
	.cfi_endproc
.LFE77:
	.size	glViewport, .-glViewport
	.align 2
	.globl glVertex3f
	.type	glVertex3f, @function
glVertex3f:
.LFB82:
	.loc 1 173 0
	.cfi_startproc
.LVL91:
	.loc 1 174 0
	lis 10,vert_i@ha
	lwz 9,vert_i@l(10)
	mr 4,10
	cmpwi 7,9,1000
	ble+ 7,.L107
.LVL92:
.LBB240:
.LBB241:
.LBB242:
.LBB243:
	.loc 1 1195 0
	li 10,1285
	lis 9,glErrCode@ha
	stw 10,glErrCode@l(9)
	.loc 1 1196 0
	lis 10,.LC4@ha
	la 10,.LC4@l(10)
	lis 9,glErrFile@ha
	stw 10,glErrFile@l(9)
	.loc 1 1197 0
	li 10,176
	lis 9,glErrLine@ha
	stw 10,glErrLine@l(9)
	blr
.LVL93:
.L107:
.LBE243:
.LBE242:
.LBE241:
.LBE240:
	.loc 1 180 0
	mulli 10,9,12
	lis 7,_vertexelements@ha
	la 7,_vertexelements@l(7)
	.loc 1 185 0
	slwi 3,9,4
	.loc 1 180 0
	add 8,7,10
	stfsx 1,7,10
	.loc 1 181 0
	stfs 2,4(8)
	.loc 1 185 0
	lis 11,_tempcolorelement@ha
	.loc 1 182 0
	stfs 3,8(8)
	.loc 1 185 0
	lis 8,_colorelements@ha
	la 8,_colorelements@l(8)
	la 11,_tempcolorelement@l(11)
	add 3,8,3
	lswi 5,11,16
	stswi 5,3,16
	.loc 1 187 0
	lis 8,_normalelements@ha
	la 8,_normalelements@l(8)
	lis 3,_tempnormalelement@ha
	add 10,8,10
	la 3,_tempnormalelement@l(3)
	lswi 5,3,12
	stswi 5,10,12
.LVL94:
	lis 5,_texcoordelements@ha
	li 8,8
	slwi 10,9,3
	la 5,_texcoordelements@l(5)
	lis 6,_temptexcoordelement@ha
	mtctr 8
	add 5,10,5
	la 6,_temptexcoordelement@l(6)
	li 10,0
.LVL95:
.L110:
	mulli 8,10,1000
	add 7,10,6
	.loc 1 192 0 discriminator 2
	lwz 11,0(7)
	addi 10,10,8
	lwz 12,4(7)
	add 8,5,8
	stw 11,0(8)
	stw 12,4(8)
	.loc 1 190 0 discriminator 2
	bdnz .L110
	.loc 1 195 0
	addi 9,9,1
	stw 9,vert_i@l(4)
	blr
	.cfi_endproc
.LFE82:
	.size	glVertex3f, .-glVertex3f
	.align 2
	.globl glVertex2i
	.type	glVertex2i, @function
glVertex2i:
.LFB78:
	.loc 1 156 0
	.cfi_startproc
.LVL96:
	stwu 1,-24(1)
	.cfi_def_cfa_offset 24
	.loc 1 157 0
	lis 9,0x4330
	xoris 3,3,0x8000
.LVL97:
	lis 10,.LC6@ha
	stw 9,8(1)
	xoris 4,4,0x8000
.LVL98:
	stw 3,12(1)
	stw 9,16(1)
	lis 9,.LC3@ha
	lfd 0,8(1)
	stw 4,20(1)
	lfs 2,.LC6@l(10)
	lfs 3,.LC3@l(9)
	fsub 1,0,2
	lfd 0,16(1)
	.loc 1 158 0
	addi 1,1,24
	.cfi_def_cfa_offset 0
	.loc 1 157 0
	fsub 2,0,2
	frsp 1,1
	frsp 2,2
	b glVertex3f
.LVL99:
	.cfi_endproc
.LFE78:
	.size	glVertex2i, .-glVertex2i
	.align 2
	.globl glVertex2f
	.type	glVertex2f, @function
glVertex2f:
.LFB79:
	.loc 1 160 0
	.cfi_startproc
.LVL100:
	.loc 1 161 0
	lis 9,.LC3@ha
	.loc 1 162 0
	.loc 1 161 0
	lfs 3,.LC3@l(9)
	b glVertex3f
.LVL101:
	.cfi_endproc
.LFE79:
	.size	glVertex2f, .-glVertex2f
	.align 2
	.globl glVertex3fv
	.type	glVertex3fv, @function
glVertex3fv:
.LFB80:
	.loc 1 165 0
	.cfi_startproc
.LVL102:
	.loc 1 166 0
	lfs 1,0(3)
	.loc 1 167 0
	.loc 1 166 0
	lfs 2,4(3)
	lfs 3,8(3)
	b glVertex3f
.LVL103:
	.cfi_endproc
.LFE80:
	.size	glVertex3fv, .-glVertex3fv
	.align 2
	.globl glVertex4f
	.type	glVertex4f, @function
glVertex4f:
.LFB81:
	.loc 1 169 0
	.cfi_startproc
.LVL104:
	.loc 1 171 0
	.loc 1 170 0
	b glVertex3f
.LVL105:
	.cfi_endproc
.LFE81:
	.size	glVertex4f, .-glVertex4f
	.align 2
	.globl glNormal3f
	.type	glNormal3f, @function
glNormal3f:
.LFB83:
	.loc 1 198 0
	.cfi_startproc
.LVL106:
	.loc 1 199 0
	lis 10,_tempnormalelement@ha
	la 9,_tempnormalelement@l(10)
	stfs 1,_tempnormalelement@l(10)
	.loc 1 200 0
	stfs 2,4(9)
	.loc 1 201 0
	stfs 3,8(9)
	blr
	.cfi_endproc
.LFE83:
	.size	glNormal3f, .-glNormal3f
	.align 2
	.globl glNormal3fv
	.type	glNormal3fv, @function
glNormal3fv:
.LFB84:
	.loc 1 204 0
	.cfi_startproc
.LVL107:
	.loc 1 205 0
	lfs 12,0(3)
.LBB244:
.LBB245:
	.loc 1 199 0
	lis 10,_tempnormalelement@ha
.LBE245:
.LBE244:
	.loc 1 205 0
	lfs 13,4(3)
.LBB248:
.LBB246:
	.loc 1 199 0
	la 9,_tempnormalelement@l(10)
.LBE246:
.LBE248:
	.loc 1 205 0
	lfs 0,8(3)
.LVL108:
.LBB249:
.LBB247:
	.loc 1 199 0
	stfs 12,_tempnormalelement@l(10)
	.loc 1 200 0
	stfs 13,4(9)
	.loc 1 201 0
	stfs 0,8(9)
	blr
.LBE247:
.LBE249:
	.cfi_endproc
.LFE84:
	.size	glNormal3fv, .-glNormal3fv
	.align 2
	.globl glColor4f
	.type	glColor4f, @function
glColor4f:
.LFB86:
	.loc 1 212 0
	.cfi_startproc
.LVL109:
	.loc 1 214 0
	lis 10,_tempcolorelement@ha
	la 9,_tempcolorelement@l(10)
	stfs 1,_tempcolorelement@l(10)
	.loc 1 218 0
	lis 10,copy_mat_enabled@ha
	.loc 1 215 0
	stfs 2,4(9)
	.loc 1 218 0
	lbz 10,copy_mat_enabled@l(10)
	.loc 1 216 0
	stfs 3,8(9)
	.loc 1 218 0
	cmpwi 7,10,0
	.loc 1 217 0
	stfs 4,12(9)
	.loc 1 218 0
	beqlr- 7
.LVL110:
.LBB252:
.LBB253:
	.loc 1 220 0
	lis 10,copy_material@ha
	lwz 10,copy_material@l(10)
	cmplwi 7,10,4610
	beq- 7,.L121
	bgt- 7,.L122
	cmplwi 7,10,4608
	beq- 7,.L123
	cmplwi 7,10,4609
	bnelr- 7
	.loc 1 224 0
	lis 10,curmat@ha
	la 10,curmat@l(10)
	b .L130
.L122:
	.loc 1 220 0
	cmplwi 7,10,5632
	beq- 7,.L125
	cmplwi 7,10,5634
	bnelr- 7
	.loc 1 227 0
	lis 10,curmat@ha
	la 10,curmat@l(10)
	addi 4,10,16
	lswi 5,9,16
	stswi 5,4,16
	b .L130
.L125:
	.loc 1 222 0
	lis 10,curmat@ha
	la 10,curmat@l(10)
	b .L131
.L123:
	.loc 1 223 0
	lis 10,curmat@ha
	la 10,curmat@l(10)
	addi 10,10,16
	b .L131
.L121:
	.loc 1 225 0
	lis 10,curmat@ha
	la 10,curmat@l(10)
	addi 10,10,48
	b .L131
.L130:
	.loc 1 228 0
	addi 10,10,32
.L131:
	lswi 5,9,16
	stswi 5,10,16
	blr
.LBE253:
.LBE252:
	.cfi_endproc
.LFE86:
	.size	glColor4f, .-glColor4f
	.align 2
	.globl glColor3f
	.type	glColor3f, @function
glColor3f:
.LFB85:
	.loc 1 208 0
	.cfi_startproc
.LVL111:
	.loc 1 209 0
	lis 9,.LC7@ha
	.loc 1 210 0
	.loc 1 209 0
	lfs 4,.LC7@l(9)
	b glColor4f
.LVL112:
	.cfi_endproc
.LFE85:
	.size	glColor3f, .-glColor3f
	.align 2
	.globl glColor3ub
	.type	glColor3ub, @function
glColor3ub:
.LFB87:
	.loc 1 237 0
	.cfi_startproc
.LVL113:
	stwu 1,-32(1)
	.cfi_def_cfa_offset 32
	.loc 1 238 0
	lis 9,0x4330
	lis 10,.LC9@ha
	stw 9,16(1)
	stw 4,20(1)
	lfs 13,.LC9@l(10)
	lis 10,.LC10@ha
	stw 9,8(1)
	lfd 12,16(1)
	stw 9,24(1)
	lis 9,.LC7@ha
	stw 3,12(1)
	fsub 2,12,13
	stw 5,28(1)
	lfd 0,8(1)
	lfd 12,24(1)
	frsp 2,2
	fsub 1,0,13
	lfs 0,.LC10@l(10)
	fsub 13,12,13
	lfs 4,.LC7@l(9)
	fdivs 2,2,0
	.loc 1 239 0
	addi 1,1,32
	.cfi_def_cfa_offset 0
	.loc 1 238 0
	frsp 1,1
	frsp 3,13
	fdivs 1,1,0
	fdivs 3,3,0
	b glColor4f
.LVL114:
	.cfi_endproc
.LFE87:
	.size	glColor3ub, .-glColor3ub
	.align 2
	.globl glColor4ub
	.type	glColor4ub, @function
glColor4ub:
.LFB88:
	.loc 1 245 0
	.cfi_startproc
.LVL115:
	stwu 1,-40(1)
	.cfi_def_cfa_offset 40
	.loc 1 246 0
	lis 9,0x4330
	lis 10,.LC9@ha
	stw 4,20(1)
	stw 9,16(1)
	lfs 13,.LC9@l(10)
	lis 10,.LC10@ha
	lfd 12,16(1)
	stw 5,28(1)
	stw 9,24(1)
	fsub 2,12,13
	stw 3,12(1)
	lfd 12,24(1)
	stw 9,8(1)
	frsp 2,2
	stw 6,36(1)
	fsub 3,12,13
	stw 9,32(1)
	lfd 0,8(1)
	lfd 12,32(1)
	frsp 3,3
	fsub 1,0,13
	lfs 0,.LC10@l(10)
	fsub 13,12,13
	.loc 1 247 0
	.loc 1 246 0
	fdivs 2,2,0
	.loc 1 247 0
	addi 1,1,40
	.cfi_def_cfa_offset 0
	.loc 1 246 0
	frsp 1,1
	frsp 4,13
	fdivs 3,3,0
	fdivs 1,1,0
	fdivs 4,4,0
	b glColor4f
.LVL116:
	.cfi_endproc
.LFE88:
	.size	glColor4ub, .-glColor4ub
	.align 2
	.globl glColor3fv
	.type	glColor3fv, @function
glColor3fv:
.LFB89:
	.loc 1 250 0
	.cfi_startproc
.LVL117:
	.loc 1 251 0
	lfs 1,0(3)
	.loc 1 252 0
	.loc 1 251 0
	lfs 2,4(3)
	lfs 3,8(3)
	b glColor3f
.LVL118:
	.cfi_endproc
.LFE89:
	.size	glColor3fv, .-glColor3fv
	.align 2
	.globl glTexCoord2f
	.type	glTexCoord2f, @function
glTexCoord2f:
.LFB90:
	.loc 1 255 0
	.cfi_startproc
.LVL119:
	.loc 1 256 0
	lis 9,cur_tex@ha
	lis 10,_temptexcoordelement@ha
	lwz 9,cur_tex@l(9)
	la 10,_temptexcoordelement@l(10)
	slwi 9,9,3
	add 8,10,9
	stfsx 1,10,9
	.loc 1 257 0
	stfs 2,4(8)
	blr
	.cfi_endproc
.LFE90:
	.size	glTexCoord2f, .-glTexCoord2f
	.align 2
	.globl glLightModelfv
	.type	glLightModelfv, @function
glLightModelfv:
.LFB91:
	.loc 1 262 0
	.cfi_startproc
.LVL120:
	.loc 1 263 0
	lis 9,cur_state@ha
	lwz 9,cur_state@l(9)
	andi. 10,9,1
	beq+ 0,.L140
.LVL121:
.LBB254:
.LBB255:
	.loc 1 1195 0
	li 10,1282
	lis 9,glErrCode@ha
	stw 10,glErrCode@l(9)
	.loc 1 1196 0
	lis 10,.LC4@ha
	la 10,.LC4@l(10)
	lis 9,glErrFile@ha
	stw 10,glErrFile@l(9)
	.loc 1 1197 0
	li 10,263
	b .L145
.LVL122:
.L140:
.LBE255:
.LBE254:
	.loc 1 265 0
	cmplwi 7,3,2899
	bne+ 7,.L144
	.loc 1 268 0
	lfs 0,0(4)
	lis 10,globAmbient@ha
	la 9,globAmbient@l(10)
	stfs 0,globAmbient@l(10)
	.loc 1 269 0
	lfs 0,4(4)
	stfs 0,4(9)
	.loc 1 270 0
	lfs 0,8(4)
	stfs 0,8(9)
	.loc 1 271 0
	lfs 0,12(4)
	stfs 0,12(9)
	.loc 1 272 0
	blr
.L144:
.LVL123:
.LBB256:
.LBB257:
	.loc 1 1195 0
	li 10,1280
	lis 9,glErrCode@ha
	stw 10,glErrCode@l(9)
	.loc 1 1196 0
	lis 10,.LC4@ha
	la 10,.LC4@l(10)
	lis 9,glErrFile@ha
	stw 10,glErrFile@l(9)
	.loc 1 1197 0
	li 10,274
.LVL124:
.L145:
	lis 9,glErrLine@ha
	stw 10,glErrLine@l(9)
	blr
.LBE257:
.LBE256:
	.cfi_endproc
.LFE91:
	.size	glLightModelfv, .-glLightModelfv
	.align 2
	.globl glLightN
	.type	glLightN, @function
glLightN:
.LFB92:
	.loc 1 280 0
	.cfi_startproc
.LVL125:
	.loc 1 282 0
	addi 3,3,-16384
.LVL126:
	cmplwi 7,3,7
	bgt- 7,.L147
	lis 9,.L149@ha
	slwi 3,3,2
.LVL127:
	la 9,.L149@l(9)
	lwzx 10,9,3
	add 9,10,9
	mtctr 9
	bctr
	.section	.rodata
	.align 2
	.align 2
.L149:
	.long .L148-.L149
	.long .L157-.L149
	.long .L151-.L149
	.long .L152-.L149
	.long .L153-.L149
	.long .L154-.L149
	.long .L155-.L149
	.long .L156-.L149
	.section	".text"
.L148:
	.loc 1 284 0
	li 3,0
	blr
.L151:
.LVL128:
	.loc 1 286 0
	li 3,2
	blr
.LVL129:
.L152:
	.loc 1 287 0
	li 3,3
	blr
.LVL130:
.L153:
	.loc 1 288 0
	li 3,4
	blr
.LVL131:
.L154:
	.loc 1 289 0
	li 3,5
	blr
.LVL132:
.L155:
	.loc 1 290 0
	li 3,6
	blr
.LVL133:
.L156:
	.loc 1 291 0
	li 3,7
	blr
.LVL134:
.L147:
.LBB262:
.LBB263:
.LBB264:
.LBB265:
	.loc 1 1195 0
	li 10,1280
	lis 9,glErrCode@ha
	stw 10,glErrCode@l(9)
	.loc 1 1196 0
	lis 10,.LC4@ha
	la 10,.LC4@l(10)
	lis 9,glErrFile@ha
	stw 10,glErrFile@l(9)
	.loc 1 1197 0
	li 10,293
	lis 9,glErrLine@ha
	li 3,-1
	stw 10,glErrLine@l(9)
	blr
.LVL135:
.L157:
.LBE265:
.LBE264:
.LBE263:
.LBE262:
	.loc 1 285 0
	li 3,1
	.loc 1 298 0
	blr
	.cfi_endproc
.LFE92:
	.size	glLightN, .-glLightN
	.align 2
	.globl glLightf
	.type	glLightf, @function
glLightf:
.LFB93:
	.loc 1 300 0
	.cfi_startproc
	.loc 1 301 0
	lis 9,cur_state@ha
	lwz 9,cur_state@l(9)
	andi. 10,9,1
	beq- 0,.L159
.LBB266:
.LBB267:
	.loc 1 1195 0
	li 10,1282
	lis 9,glErrCode@ha
	stw 10,glErrCode@l(9)
	.loc 1 1196 0
	lis 10,.LC4@ha
	la 10,.LC4@l(10)
	lis 9,glErrFile@ha
	stw 10,glErrFile@l(9)
	.loc 1 1197 0
	li 10,301
	lis 9,glErrLine@ha
	stw 10,glErrLine@l(9)
	blr
.L159:
.LBE267:
.LBE266:
	.loc 1 300 0
	mflr 0
	stwu 1,-24(1)
	.cfi_def_cfa_offset 24
	.cfi_register 65, 0
	stfd 31,16(1)
	.cfi_offset 63, -8
	fmr 31,1
	stw 31,12(1)
	.cfi_offset 31, -12
	mr 31,4
	stw 0,28(1)
	.cfi_offset 65, 4
	.loc 1 303 0
	bl glLightN
	.loc 1 305 0
	cmpwi 0,3,0
	blt- 0,.L158
	.loc 1 308 0
	addi 4,31,-4613
	cmplwi 7,4,4
	bgt- 7,.L161
	lis 9,.L163@ha
	slwi 4,4,2
	la 9,.L163@l(9)
	mulli 3,3,164
	lwzx 10,9,4
	add 10,10,9
	lis 9,lights@ha
	mtctr 10
	la 9,lights@l(9)
	.loc 1 314 0
	add 3,9,3
	.loc 1 308 0
	bctr
	.section	.rodata
	.align 2
	.align 2
.L163:
	.long .L162-.L163
	.long .L164-.L163
	.long .L165-.L163
	.long .L166-.L163
	.long .L167-.L163
	.section	".text"
.L164:
	.loc 1 310 0
	stfs 31,148(3)
	b .L158
.L162:
	.loc 1 311 0
	stfs 31,144(3)
	b .L158
.L165:
	.loc 1 312 0
	stfs 31,152(3)
	b .L158
.L166:
	.loc 1 313 0
	stfs 31,156(3)
	b .L158
.L167:
	.loc 1 314 0
	stfs 31,160(3)
	b .L158
.L161:
.LBB268:
.LBB269:
	.loc 1 1195 0
	li 10,1280
	lis 9,glErrCode@ha
	stw 10,glErrCode@l(9)
	.loc 1 1196 0
	lis 10,.LC4@ha
	la 10,.LC4@l(10)
	lis 9,glErrFile@ha
	stw 10,glErrFile@l(9)
	.loc 1 1197 0
	li 10,316
	lis 9,glErrLine@ha
	stw 10,glErrLine@l(9)
.L158:
.LBE269:
.LBE268:
	.loc 1 319 0
	lwz 31,12(1)
	addi 11,1,24
	b _restfpr_31_x
	.cfi_restore 63
	.cfi_restore 65
	.cfi_restore 31
	.cfi_endproc
.LFE93:
	.size	glLightf, .-glLightf
	.align 2
	.globl glLightfv
	.type	glLightfv, @function
glLightfv:
.LFB94:
	.loc 1 321 0
	.cfi_startproc
	.loc 1 322 0
	lis 9,cur_state@ha
	lwz 9,cur_state@l(9)
	andi. 10,9,1
	beq- 0,.L170
.LBB270:
.LBB271:
	.loc 1 1195 0
	li 10,1282
	lis 9,glErrCode@ha
	stw 10,glErrCode@l(9)
	.loc 1 1196 0
	lis 10,.LC4@ha
	la 10,.LC4@l(10)
	lis 9,glErrFile@ha
	stw 10,glErrFile@l(9)
	.loc 1 1197 0
	li 10,322
	lis 9,glErrLine@ha
	stw 10,glErrLine@l(9)
	blr
.L170:
.LBE271:
.LBE270:
	.loc 1 321 0
	mflr 0
	stwu 1,-88(1)
	.cfi_def_cfa_offset 88
	.cfi_register 65, 0
	stmw 29,76(1)
	.cfi_offset 29, -12
	.cfi_offset 30, -8
	.cfi_offset 31, -4
	mr 29,4
	stw 0,92(1)
	.cfi_offset 65, 4
	mr 31,5
	.loc 1 324 0
	bl glLightN
	.loc 1 326 0
	cmpwi 0,3,0
	blt- 0,.L169
	.loc 1 331 0
	addi 4,29,-4608
	.loc 1 329 0
	li 9,0
	.loc 1 331 0
	cmplwi 7,4,4
	.loc 1 329 0
	stw 9,56(1)
	stw 9,60(1)
	stw 9,64(1)
	.loc 1 331 0
	bgt- 7,.L172
	lis 9,.L174@ha
	slwi 4,4,2
	la 9,.L174@l(9)
	lis 29,lights@ha
	lwzx 10,9,4
	mulli 30,3,164
	lfs 0,0(31)
	la 29,lights@l(29)
	add 9,10,9
	mtctr 9
	bctr
	.section	.rodata
	.align 2
	.align 2
.L174:
	.long .L173-.L174
	.long .L175-.L174
	.long .L176-.L174
	.long .L177-.L174
	.long .L178-.L174
	.section	".text"
.L177:
	.loc 1 335 0
	stfs 0,56(1)
	.loc 1 340 0
	lis 3,model_stack@ha
	.loc 1 336 0
	lfs 0,4(31)
	.loc 1 340 0
	la 3,model_stack@l(3)
	.loc 1 336 0
	stfs 0,60(1)
	.loc 1 337 0
	lfs 0,8(31)
	stfs 0,64(1)
	.loc 1 340 0
	bl TopMtx
	add 5,29,30
	addi 4,1,56
	addi 5,5,68
	.loc 1 342 0
	add 30,29,30
	.loc 1 340 0
	bl ps_guVecMultiply
	.loc 1 342 0
	lfs 0,12(31)
	stfs 0,80(30)
	.loc 1 343 0
	b .L169
.L175:
	.loc 1 346 0
	add 30,29,30
	stfs 0,112(30)
	.loc 1 347 0
	lfs 0,4(31)
	stfs 0,116(30)
	.loc 1 348 0
	lfs 0,8(31)
	stfs 0,120(30)
	.loc 1 349 0
	lfs 0,12(31)
	stfs 0,124(30)
	.loc 1 350 0
	b .L169
.L173:
	.loc 1 352 0
	add 30,29,30
	stfs 0,96(30)
	.loc 1 353 0
	lfs 0,4(31)
	stfs 0,100(30)
	.loc 1 354 0
	lfs 0,8(31)
	stfs 0,104(30)
	.loc 1 355 0
	lfs 0,12(31)
	stfs 0,108(30)
	.loc 1 356 0
	b .L169
.L176:
	.loc 1 358 0
	add 30,29,30
	stfs 0,128(30)
	.loc 1 359 0
	lfs 0,4(31)
	stfs 0,132(30)
	.loc 1 360 0
	lfs 0,8(31)
	stfs 0,136(30)
	.loc 1 361 0
	lfs 0,12(31)
	stfs 0,140(30)
	.loc 1 362 0
	b .L169
.L178:
.LBB272:
	.loc 1 365 0
	add 9,29,30
	.loc 1 372 0
	lis 3,model_stack@ha
	.loc 1 365 0
	stfs 0,84(9)
	.loc 1 372 0
	la 3,model_stack@l(3)
	.loc 1 374 0
	add 30,29,30
	.loc 1 366 0
	lfs 0,4(31)
	stfs 0,88(9)
	.loc 1 367 0
	lfs 0,8(31)
	stfs 0,92(9)
	.loc 1 372 0
	bl TopMtx
	addi 4,1,8
	bl ps_guMtxTranspose
	.loc 1 374 0
	addi 4,30,84
	addi 3,1,8
	mr 5,4
	bl ps_guVecMultiply
	b .L169
.L172:
.LBB273:
.LBB274:
	.loc 1 1195 0
	li 10,1280
	lis 9,glErrCode@ha
	stw 10,glErrCode@l(9)
	.loc 1 1196 0
	lis 10,.LC4@ha
	la 10,.LC4@l(10)
	lis 9,glErrFile@ha
	stw 10,glErrFile@l(9)
	.loc 1 1197 0
	li 10,377
	lis 9,glErrLine@ha
	stw 10,glErrLine@l(9)
.L169:
.LBE274:
.LBE273:
.LBE272:
	.loc 1 381 0
	addi 11,1,88
	b _restgpr_29_x
	.cfi_restore 31
	.cfi_restore 30
	.cfi_restore 29
	.cfi_restore 65
	.cfi_endproc
.LFE94:
	.size	glLightfv, .-glLightfv
	.align 2
	.globl glMaterialf
	.type	glMaterialf, @function
glMaterialf:
.LFB95:
	.loc 1 385 0
	.cfi_startproc
.LVL136:
	.loc 1 386 0
	cmpwi 7,4,5633
	bne+ 7,.L186
	.loc 1 389 0
	lis 9,curmat+64@ha
	stfs 1,curmat+64@l(9)
	blr
.L186:
.LVL137:
.LBB275:
.LBB276:
	.loc 1 1195 0
	li 10,1280
	lis 9,glErrCode@ha
	stw 10,glErrCode@l(9)
	.loc 1 1196 0
	lis 10,.LC4@ha
	la 10,.LC4@l(10)
	lis 9,glErrFile@ha
	stw 10,glErrFile@l(9)
	.loc 1 1197 0
	li 10,391
	lis 9,glErrLine@ha
	stw 10,glErrLine@l(9)
	blr
.LBE276:
.LBE275:
	.cfi_endproc
.LFE95:
	.size	glMaterialf, .-glMaterialf
	.align 2
	.globl glMaterialfv
	.type	glMaterialfv, @function
glMaterialfv:
.LFB96:
	.loc 1 396 0
	.cfi_startproc
.LVL138:
	.loc 1 397 0
	cmplwi 7,4,4610
	.loc 1 396 0
	mflr 0
	stwu 1,-16(1)
	.cfi_def_cfa_offset 16
	.cfi_register 65, 0
	stw 31,12(1)
	.cfi_offset 31, -4
	mr 31,5
	stw 0,20(1)
	.cfi_offset 65, 4
	.loc 1 397 0
	beq- 7,.L189
	bgt+ 7,.L190
	cmplwi 7,4,4608
	beq+ 7,.L191
	cmplwi 7,4,4609
	bne+ 7,.L188
	b .L192
.L190:
	cmplwi 7,4,5633
	beq- 7,.L193
	cmplwi 7,4,5634
	beq- 7,.L194
	cmplwi 7,4,5632
	bne+ 7,.L188
	.loc 1 404 0
	lfs 0,0(5)
	lis 10,curmat@ha
	la 9,curmat@l(10)
	stfs 0,curmat@l(10)
	.loc 1 405 0
	lfs 0,4(5)
	stfs 0,4(9)
	.loc 1 406 0
	lfs 0,8(5)
	stfs 0,8(9)
	.loc 1 407 0
	lfs 0,12(5)
	stfs 0,12(9)
	.loc 1 408 0
	b .L187
.L194:
	.loc 1 400 0
	li 4,4608
.LVL139:
	bl glMaterialfv
.LVL140:
.L192:
	.loc 1 410 0
	lfs 0,0(31)
	lis 9,curmat@ha
	la 9,curmat@l(9)
	stfs 0,32(9)
	.loc 1 411 0
	lfs 0,4(31)
	stfs 0,36(9)
	.loc 1 412 0
	lfs 0,8(31)
	stfs 0,40(9)
	.loc 1 413 0
	lfs 0,12(31)
	stfs 0,44(9)
	.loc 1 414 0
	b .L187
.LVL141:
.L191:
	.loc 1 416 0
	lfs 0,0(5)
	lis 9,curmat@ha
	la 9,curmat@l(9)
	stfs 0,16(9)
	.loc 1 417 0
	lfs 0,4(5)
	stfs 0,20(9)
	.loc 1 418 0
	lfs 0,8(5)
	stfs 0,24(9)
	.loc 1 419 0
	lfs 0,12(5)
	stfs 0,28(9)
	.loc 1 420 0
	b .L187
.L189:
	.loc 1 422 0
	lfs 0,0(5)
	lis 9,curmat@ha
	la 9,curmat@l(9)
	stfs 0,48(9)
	.loc 1 423 0
	lfs 0,4(5)
	stfs 0,52(9)
	.loc 1 424 0
	lfs 0,8(5)
	stfs 0,56(9)
	.loc 1 425 0
	lfs 0,12(5)
	stfs 0,60(9)
	.loc 1 426 0
	b .L187
.L193:
	.loc 1 428 0
	lfs 0,0(5)
	lis 9,curmat+64@ha
	stfs 0,curmat+64@l(9)
	.loc 1 429 0
	b .L187
.L188:
.LVL142:
.LBB277:
.LBB278:
	.loc 1 1195 0
	li 10,1280
	lis 9,glErrCode@ha
	stw 10,glErrCode@l(9)
	.loc 1 1196 0
	lis 10,.LC4@ha
	la 10,.LC4@l(10)
	lis 9,glErrFile@ha
	stw 10,glErrFile@l(9)
	.loc 1 1197 0
	li 10,431
	lis 9,glErrLine@ha
	stw 10,glErrLine@l(9)
.LVL143:
.L187:
.LBE278:
.LBE277:
	.loc 1 434 0
	addi 11,1,16
	b _restgpr_31_x
	.cfi_restore 31
	.cfi_restore 65
	.cfi_endproc
.LFE96:
	.size	glMaterialfv, .-glMaterialfv
	.align 2
	.globl glGetMaterialfv
	.type	glGetMaterialfv, @function
glGetMaterialfv:
.LFB97:
	.loc 1 439 0
	.cfi_startproc
.LVL144:
	.loc 1 440 0
	lis 9,cur_state@ha
	lwz 9,cur_state@l(9)
	andi. 10,9,1
	beq+ 0,.L202
.LVL145:
.LBB279:
.LBB280:
	.loc 1 1195 0
	li 10,1282
	lis 9,glErrCode@ha
	stw 10,glErrCode@l(9)
	.loc 1 1196 0
	lis 10,.LC4@ha
	la 10,.LC4@l(10)
	lis 9,glErrFile@ha
	stw 10,glErrFile@l(9)
	.loc 1 1197 0
	li 10,440
	b .L212
.LVL146:
.L202:
.LBE280:
.LBE279:
	.loc 1 444 0
	cmplwi 7,4,4610
	beq- 7,.L205
	bgt- 7,.L206
	cmplwi 7,4,4608
	beq- 7,.L207
	cmplwi 7,4,4609
	bne- 7,.L204
.LVL147:
	.loc 1 452 0
	lis 9,curmat@ha
	la 9,curmat@l(9)
	lfs 11,32(9)
.LVL148:
	lfs 12,36(9)
.LVL149:
	lfs 13,40(9)
.LVL150:
	lfs 0,44(9)
.LVL151:
	.loc 1 453 0
	b .L211
.LVL152:
.L206:
	.loc 1 444 0
	cmplwi 7,4,5632
	beq- 7,.L209
	cmplwi 7,4,5633
	bne- 7,.L204
	.loc 1 463 0
	lis 9,curmat+64@ha
	lfs 0,curmat+64@l(9)
	stfs 0,0(5)
	blr
.L209:
.LVL153:
	.loc 1 448 0
	lis 10,curmat@ha
	la 9,curmat@l(10)
	lfs 11,curmat@l(10)
.LVL154:
	lfs 12,4(9)
.LVL155:
	lfs 13,8(9)
.LVL156:
	lfs 0,12(9)
.LVL157:
	.loc 1 449 0
	b .L211
.LVL158:
.L207:
	.loc 1 456 0
	lis 9,curmat@ha
	la 9,curmat@l(9)
	lfs 11,16(9)
.LVL159:
	lfs 12,20(9)
.LVL160:
	lfs 13,24(9)
.LVL161:
	lfs 0,28(9)
.LVL162:
	.loc 1 457 0
	b .L211
.LVL163:
.L205:
	.loc 1 460 0
	lis 9,curmat@ha
	la 9,curmat@l(9)
	lfs 11,48(9)
.LVL164:
	lfs 12,52(9)
.LVL165:
	lfs 13,56(9)
.LVL166:
	lfs 0,60(9)
.LVL167:
	.loc 1 461 0
	b .L211
.LVL168:
.L204:
.LBB281:
.LBB282:
	.loc 1 1195 0
	li 10,1280
	lis 9,glErrCode@ha
	stw 10,glErrCode@l(9)
	.loc 1 1196 0
	lis 10,.LC4@ha
	la 10,.LC4@l(10)
	lis 9,glErrFile@ha
	stw 10,glErrFile@l(9)
	.loc 1 1197 0
	li 10,466
.LVL169:
.L212:
	lis 9,glErrLine@ha
	stw 10,glErrLine@l(9)
	blr
.LVL170:
.L211:
.LBE282:
.LBE281:
	.loc 1 472 0
	stfs 11,0(5)
	.loc 1 473 0
	stfs 12,4(5)
	.loc 1 474 0
	stfs 13,8(5)
	.loc 1 475 0
	stfs 0,12(5)
	blr
	.cfi_endproc
.LFE97:
	.size	glGetMaterialfv, .-glGetMaterialfv
	.align 2
	.globl glClear
	.type	glClear, @function
glClear:
.LFB99:
	.loc 1 546 0
	.cfi_startproc
.LVL171:
	.loc 1 547 0
	lis 9,cur_state@ha
	.loc 1 546 0
	mflr 0
	.loc 1 547 0
	lwz 9,cur_state@l(9)
	.loc 1 546 0
	stwu 1,-24(1)
	.cfi_def_cfa_offset 24
	.cfi_register 65, 0
	.loc 1 547 0
	andi. 10,9,1
	.loc 1 546 0
	stw 0,28(1)
	.cfi_offset 65, 4
	.loc 1 547 0
	beq+ 0,.L214
.LVL172:
.LBB283:
.LBB284:
	.loc 1 1195 0
	li 10,1282
	lis 9,glErrCode@ha
	stw 10,glErrCode@l(9)
	.loc 1 1196 0
	lis 10,.LC4@ha
	la 10,.LC4@l(10)
	lis 9,glErrFile@ha
	stw 10,glErrFile@l(9)
	.loc 1 1197 0
	li 10,547
	lis 9,glErrLine@ha
	stw 10,glErrLine@l(9)
	b .L213
.LVL173:
.L214:
.LBE284:
.LBE283:
	.loc 1 562 0
	andi. 9,3,16384
	rlwinm 10,3,24,31,31
	cmpwi 7,10,0
	beq- 0,.L216
	.loc 1 562 0 is_stmt 0 discriminator 1
	beq+ 7,.L217
	.loc 1 571 0 is_stmt 1
	lis 9,_clearcolor@ha
	lwz 9,_clearcolor@l(9)
	stw 9,8(1)
	lis 9,_cleardepth@ha
	lfs 13,_cleardepth@l(9)
	lis 9,.LC11@ha
	lfs 0,.LC11@l(9)
	lis 9,.LC12@ha
	fmuls 0,13,0
	lfs 13,.LC12@l(9)
	fcmpu 7,0,13
	cror 30,29,30
	beq- 7,.L218
	fctiwz 0,0
	addi 9,1,16
	stfiwx 0,0,9
	lwz 4,16(1)
	b .L219
.L218:
	fsubs 0,0,13
	addi 10,1,12
	fctiwz 0,0
	stfiwx 0,0,10
	lwz 4,12(1)
	addis 4,4,0x8000
.L219:
	addi 3,1,8
.LVL174:
	bl GX_SetCopyClear
.LVL175:
	.loc 1 572 0
	bl getBackFramebuffer
.LVL176:
	li 4,1
	bl GX_CopyDisp
.LVL177:
	.loc 1 599 0
	lwz 0,28(1)
	addi 1,1,24
	.cfi_remember_state
	.cfi_def_cfa_offset 0
	mtlr 0
	.cfi_restore 65
	.loc 1 573 0
	b GX_DrawDone
.LVL178:
.L217:
	.cfi_restore_state
	.loc 1 580 0
	li 3,0
.LVL179:
	li 4,0
	li 5,0
	bl GX_SetZMode
.LVL180:
	.loc 1 581 0
	li 3,1
	bl GX_SetColorUpdate
.LVL181:
	.loc 1 582 0
	li 3,1
	b .L222
.LVL182:
.L216:
	.loc 1 586 0
	beq+ 7,.L213
	.loc 1 593 0
	li 3,1
.LVL183:
	li 4,7
	li 5,1
	bl GX_SetZMode
.LVL184:
	.loc 1 594 0
	li 3,0
	bl GX_SetColorUpdate
.LVL185:
	.loc 1 595 0
	li 3,0
.L222:
	bl GX_SetAlphaUpdate
.LVL186:
	.loc 1 599 0
	lwz 0,28(1)
	addi 1,1,24
	.cfi_remember_state
	.cfi_def_cfa_offset 0
	mtlr 0
	.cfi_restore 65
	.loc 1 597 0
	b draw_axis_align_blanker_quad
.LVL187:
.L213:
	.cfi_restore_state
	.loc 1 599 0
	lwz 0,28(1)
	addi 1,1,24
	.cfi_def_cfa_offset 0
	mtlr 0
	.cfi_restore 65
	blr
	.cfi_endproc
.LFE99:
	.size	glClear, .-glClear
	.align 2
	.globl glClearColor
	.type	glClearColor, @function
glClearColor:
.LFB100:
	.loc 1 604 0
	.cfi_startproc
.LVL188:
	.loc 1 606 0
	lis 9,cur_state@ha
	lwz 9,cur_state@l(9)
	andi. 8,9,1
	beq+ 0,.L224
.LVL189:
.LBB285:
.LBB286:
	.loc 1 1195 0
	li 10,1282
	lis 9,glErrCode@ha
	stw 10,glErrCode@l(9)
	.loc 1 1196 0
	lis 10,.LC4@ha
	la 10,.LC4@l(10)
	lis 9,glErrFile@ha
	stw 10,glErrFile@l(9)
	.loc 1 1197 0
	li 10,606
	lis 9,glErrLine@ha
	stw 10,glErrLine@l(9)
	blr
.LVL190:
.L224:
.LBE286:
.LBE285:
	.loc 1 608 0
	lis 8,.LC10@ha
	.loc 1 604 0
	stwu 1,-24(1)
	.cfi_def_cfa_offset 24
	.loc 1 608 0
	lfs 0,.LC10@l(8)
	lis 10,_clearcolor@ha
	addi 8,1,8
	la 9,_clearcolor@l(10)
	fmuls 1,1,0
.LVL191:
	.loc 1 609 0
	fmuls 2,2,0
.LVL192:
	.loc 1 610 0
	fmuls 3,3,0
.LVL193:
	.loc 1 608 0
	fctiwz 1,1
	.loc 1 609 0
	fctiwz 2,2
	.loc 1 610 0
	fctiwz 3,3
	.loc 1 608 0
	stfiwx 1,0,8
	.loc 1 611 0
	fmuls 0,4,0
	.loc 1 608 0
	lwz 8,8(1)
	.loc 1 611 0
	fctiwz 0,0
	.loc 1 608 0
	stb 8,_clearcolor@l(10)
	.loc 1 609 0
	addi 10,1,12
	stfiwx 2,0,10
	.loc 1 610 0
	addi 8,1,16
	.loc 1 609 0
	lwz 10,12(1)
	stb 10,1(9)
	.loc 1 610 0
	stfiwx 3,0,8
	lwz 10,16(1)
	stb 10,2(9)
	.loc 1 611 0
	addi 10,1,20
	stfiwx 0,0,10
	lwz 10,20(1)
	stb 10,3(9)
	.loc 1 612 0
	addi 1,1,24
	.cfi_def_cfa_offset 0
	blr
	.cfi_endproc
.LFE100:
	.size	glClearColor, .-glClearColor
	.align 2
	.globl glClearDepth
	.type	glClearDepth, @function
glClearDepth:
.LFB101:
	.loc 1 614 0
	.cfi_startproc
.LVL194:
	.loc 1 616 0
	lis 9,cur_state@ha
	lwz 9,cur_state@l(9)
	andi. 10,9,1
	beq+ 0,.L228
.LVL195:
.LBB287:
.LBB288:
	.loc 1 1195 0
	li 10,1282
	lis 9,glErrCode@ha
	stw 10,glErrCode@l(9)
	.loc 1 1196 0
	lis 10,.LC4@ha
	la 10,.LC4@l(10)
	lis 9,glErrFile@ha
	stw 10,glErrFile@l(9)
	.loc 1 1197 0
	li 10,616
	lis 9,glErrLine@ha
	stw 10,glErrLine@l(9)
	blr
.LVL196:
.L228:
.LBE288:
.LBE287:
	.loc 1 618 0
	lis 9,.LC7@ha
	lfs 0,.LC7@l(9)
	fmr 13,0
	fcmpu 7,1,13
	bgt+ 7,.L231
	.loc 1 622 0
	lis 9,.LC13@ha
	lfd 0,.LC13@l(9)
	fcmpu 7,1,0
	bnl- 7,.L230
	.loc 1 624 0
	fmr 1,0
.LVL197:
	b .L230
.LVL198:
.L231:
	.loc 1 620 0
	fmr 1,0
.LVL199:
.L230:
	.loc 1 627 0
	frsp 1,1
.LVL200:
	lis 9,_cleardepth@ha
	stfs 1,_cleardepth@l(9)
	blr
	.cfi_endproc
.LFE101:
	.size	glClearDepth, .-glClearDepth
	.align 2
	.globl glFlush
	.type	glFlush, @function
glFlush:
.LFB102:
	.loc 1 632 0
	.cfi_startproc
	.loc 1 634 0
	lis 9,cur_state@ha
	lwz 9,cur_state@l(9)
	andi. 10,9,1
	beq- 0,.L234
.LVL201:
.LBB289:
.LBB290:
	.loc 1 1195 0
	li 10,1282
	lis 9,glErrCode@ha
	stw 10,glErrCode@l(9)
	.loc 1 1196 0
	lis 10,.LC4@ha
	la 10,.LC4@l(10)
	lis 9,glErrFile@ha
	stw 10,glErrFile@l(9)
	.loc 1 1197 0
	li 10,634
	lis 9,glErrLine@ha
	stw 10,glErrLine@l(9)
	blr
.LVL202:
.L234:
.LBE290:
.LBE289:
	.loc 1 637 0
	.loc 1 636 0
	b GX_DrawDone
.LVL203:
	.cfi_endproc
.LFE102:
	.size	glFlush, .-glFlush
	.align 2
	.globl updateFog
	.type	updateFog, @function
updateFog:
.LFB103:
	.loc 1 644 0
	.cfi_startproc
	mflr 0
	stwu 1,-16(1)
	.cfi_def_cfa_offset 16
	.cfi_register 65, 0
	.loc 1 645 0
	lis 3,projection_stack@ha
	la 3,projection_stack@l(3)
	.loc 1 644 0
	stw 0,20(1)
	.cfi_offset 65, 4
	.loc 1 645 0
	bl TopPrjMtx
.LVL204:
	.loc 1 646 0
	lis 10,fog_enable@ha
	.loc 1 645 0
	mr 9,3
.LVL205:
	.loc 1 646 0
	lbz 10,fog_enable@l(10)
	cmpwi 7,10,0
	lis 10,fog_color@ha
	beq- 7,.L238
	.loc 1 648 0
	lis 8,fog_mode@ha
	.loc 1 650 0
	lwz 10,fog_color@l(10)
	.loc 1 648 0
	lbz 3,fog_mode@l(8)
.LVL206:
	.loc 1 650 0
	stw 10,8(1)
	.loc 1 648 0
	andi. 8,3,2
	bne- 0,.L242
	.loc 1 654 0
	lis 10,.LC3@ha
	lfs 1,.LC3@l(10)
	lis 10,fog_density@ha
	lfs 2,fog_density@l(10)
	b .L243
.LVL207:
.L238:
	.loc 1 659 0
	lwz 10,fog_color@l(10)
	li 3,0
.LVL208:
	stw 10,8(1)
.L242:
	lis 10,fog_startz@ha
	lfs 1,fog_startz@l(10)
	lis 10,fog_endz@ha
	lfs 2,fog_endz@l(10)
.L243:
	lfs 3,68(9)
	addi 4,1,8
	lfs 4,72(9)
	bl GX_SetFog
.LVL209:
	.loc 1 661 0
	lwz 0,20(1)
	addi 1,1,16
	.cfi_def_cfa_offset 0
	mtlr 0
	.cfi_restore 65
	blr
	.cfi_endproc
.LFE103:
	.size	updateFog, .-updateFog
	.align 2
	.globl glFogf
	.type	glFogf, @function
glFogf:
.LFB106:
	.loc 1 679 0
	.cfi_startproc
.LVL210:
	.loc 1 680 0
	lis 9,cur_state@ha
	lwz 9,cur_state@l(9)
	andi. 10,9,1
	beq+ 0,.L245
.LVL211:
.LBB311:
.LBB312:
	.loc 1 1195 0
	li 10,1282
	lis 9,glErrCode@ha
	stw 10,glErrCode@l(9)
	.loc 1 1196 0
	lis 10,.LC4@ha
	la 10,.LC4@l(10)
	lis 9,glErrFile@ha
	stw 10,glErrFile@l(9)
	.loc 1 1197 0
	li 10,680
	b .L267
.LVL212:
.L245:
.LBE312:
.LBE311:
	.loc 1 682 0
	cmplwi 7,3,2915
	beq- 7,.L248
	bgt+ 7,.L249
	cmplwi 7,3,2914
	beq+ 7,.L250
	b .L247
.L249:
	cmplwi 7,3,2916
	beq- 7,.L251
	cmplwi 7,3,2917
	bne- 7,.L247
.LVL213:
.LBB313:
.LBB314:
	.loc 1 685 0
	lis 9,.LC12@ha
.LBE314:
.LBE313:
	.loc 1 679 0
	stwu 1,-16(1)
	.cfi_def_cfa_offset 16
.LBB318:
.LBB317:
	.loc 1 685 0
	lfs 0,.LC12@l(9)
	fcmpu 7,1,0
	cror 30,29,30
	beq- 7,.L254
	fctiwz 1,1
.LVL214:
	addi 9,1,12
	stfiwx 1,0,9
	lwz 9,12(1)
	b .L255
.LVL215:
.L254:
	fsubs 0,1,0
	addi 10,1,8
	fctiwz 0,0
	stfiwx 0,0,10
	lwz 9,8(1)
	addis 9,9,0x8000
.LVL216:
.L255:
	cmplwi 7,9,2049
	beq- 7,.L256
	cmplwi 7,9,9729
	beq- 7,.L257
	cmplwi 7,9,2048
	bne+ 7,.L262
	.loc 1 691 0
	li 10,4
	b .L266
.L257:
	.loc 1 688 0
	li 10,2
	b .L266
.L256:
	.loc 1 694 0
	li 10,5
.L266:
	lis 9,fog_mode@ha
	stb 10,fog_mode@l(9)
	b .L244
.L262:
.LVL217:
.LBB315:
.LBB316:
	.loc 1 1195 0
	li 10,1280
	lis 9,glErrCode@ha
	stw 10,glErrCode@l(9)
	.loc 1 1196 0
	lis 10,.LC4@ha
	la 10,.LC4@l(10)
	lis 9,glErrFile@ha
	stw 10,glErrFile@l(9)
	.loc 1 1197 0
	li 10,697
	lis 9,glErrLine@ha
	stw 10,glErrLine@l(9)
	b .L244
.LVL218:
.L248:
	.cfi_def_cfa_offset 0
.LBE316:
.LBE315:
.LBE317:
.LBE318:
	.loc 1 702 0
	lis 9,fog_startz@ha
	stfs 1,fog_startz@l(9)
	.loc 1 703 0
	blr
.L251:
	.loc 1 705 0
	lis 9,fog_endz@ha
	stfs 1,fog_endz@l(9)
	.loc 1 706 0
	blr
.L250:
	.loc 1 708 0
	lis 9,.LC3@ha
	lfs 0,.LC3@l(9)
	fcmpu 7,1,0
	bnl+ 7,.L263
.LVL219:
.LBB319:
.LBB320:
	.loc 1 1195 0
	li 10,1281
	lis 9,glErrCode@ha
	stw 10,glErrCode@l(9)
	.loc 1 1196 0
	lis 10,.LC4@ha
	la 10,.LC4@l(10)
	lis 9,glErrFile@ha
	stw 10,glErrFile@l(9)
	.loc 1 1197 0
	li 10,710
	b .L267
.LVL220:
.L263:
.LBE320:
.LBE319:
.LBB321:
.LBB322:
	.loc 1 668 0
	lis 9,.LC15@ha
	lfd 0,.LC15@l(9)
	lis 9,fog_density@ha
	fdiv 1,0,1
.LVL221:
	frsp 1,1
	stfs 1,fog_density@l(9)
.LBE322:
.LBE321:
	.loc 1 714 0
	blr
.LVL222:
.L247:
.LBB323:
.LBB324:
	.loc 1 1195 0
	li 10,1280
	lis 9,glErrCode@ha
	stw 10,glErrCode@l(9)
	.loc 1 1196 0
	lis 10,.LC4@ha
	la 10,.LC4@l(10)
	lis 9,glErrFile@ha
	stw 10,glErrFile@l(9)
	.loc 1 1197 0
	li 10,716
.LVL223:
.L267:
	lis 9,glErrLine@ha
	stw 10,glErrLine@l(9)
	blr
.LVL224:
.L244:
	.cfi_def_cfa_offset 16
.LBE324:
.LBE323:
	.loc 1 719 0
	addi 1,1,16
	.cfi_def_cfa_offset 0
	blr
	.cfi_endproc
.LFE106:
	.size	glFogf, .-glFogf
	.align 2
	.globl glFogi
	.type	glFogi, @function
glFogi:
.LFB105:
	.loc 1 674 0
	.cfi_startproc
.LVL225:
	stwu 1,-16(1)
	.cfi_def_cfa_offset 16
	.loc 1 675 0
	lis 9,0x4330
	xoris 4,4,0x8000
.LVL226:
	stw 9,8(1)
	lis 9,.LC6@ha
	stw 4,12(1)
	lfs 1,.LC6@l(9)
	lfd 0,8(1)
	.loc 1 676 0
	addi 1,1,16
	.cfi_def_cfa_offset 0
	.loc 1 675 0
	fsub 1,0,1
	frsp 1,1
	b glFogf
.LVL227:
	.cfi_endproc
.LFE105:
	.size	glFogi, .-glFogi
	.align 2
	.globl glFogfv
	.type	glFogfv, @function
glFogfv:
.LFB107:
	.loc 1 722 0
	.cfi_startproc
.LVL228:
	.loc 1 723 0
	lis 10,cur_state@ha
	lwz 10,cur_state@l(10)
	andi. 8,10,1
	beq+ 0,.L271
.LVL229:
.LBB325:
.LBB326:
	.loc 1 1195 0
	li 10,1282
	lis 9,glErrCode@ha
	stw 10,glErrCode@l(9)
	.loc 1 1196 0
	lis 10,.LC4@ha
	la 10,.LC4@l(10)
	lis 9,glErrFile@ha
	stw 10,glErrFile@l(9)
	.loc 1 1197 0
	li 10,723
	lis 9,glErrLine@ha
	stw 10,glErrLine@l(9)
	blr
.LVL230:
.L271:
.LBE326:
.LBE325:
	.loc 1 725 0
	cmplwi 7,3,2918
	lfs 1,0(4)
	bne- 7,.L275
	.loc 1 728 0
	lis 8,.LC10@ha
	.loc 1 722 0
	stwu 1,-24(1)
	.cfi_def_cfa_offset 24
	.loc 1 728 0
	lfs 0,.LC10@l(8)
	lis 10,fog_color@ha
	addi 8,1,8
	la 9,fog_color@l(10)
	fmuls 1,1,0
	fctiwz 1,1
	stfiwx 1,0,8
	.loc 1 729 0
	lfs 13,4(4)
	.loc 1 728 0
	lwz 8,8(1)
	.loc 1 729 0
	fmuls 13,13,0
	.loc 1 728 0
	stb 8,fog_color@l(10)
	.loc 1 729 0
	addi 10,1,12
	.loc 1 730 0
	addi 8,1,16
	.loc 1 729 0
	fctiwz 13,13
	stfiwx 13,0,10
	.loc 1 730 0
	lfs 13,8(4)
	.loc 1 729 0
	lwz 10,12(1)
	.loc 1 730 0
	fmuls 13,13,0
	.loc 1 729 0
	stb 10,1(9)
	.loc 1 730 0
	fctiwz 13,13
	stfiwx 13,0,8
	.loc 1 731 0
	lfs 13,12(4)
	.loc 1 730 0
	lwz 10,16(1)
	.loc 1 731 0
	fmuls 0,13,0
	.loc 1 730 0
	stb 10,2(9)
	.loc 1 731 0
	addi 10,1,20
	fctiwz 0,0
	stfiwx 0,0,10
	lwz 10,20(1)
	stb 10,3(9)
	.loc 1 737 0
	addi 1,1,24
	.cfi_def_cfa_offset 0
	blr
.L275:
	.loc 1 734 0
	b glFogf
.LVL231:
	.cfi_endproc
.LFE107:
	.size	glFogfv, .-glFogfv
	.align 2
	.globl glDepthMask
	.type	glDepthMask, @function
glDepthMask:
.LFB108:
	.loc 1 740 0
	.cfi_startproc
.LVL232:
	.loc 1 741 0
	lis 9,cur_state@ha
	lwz 9,cur_state@l(9)
	andi. 10,9,1
	beq+ 0,.L278
.LVL233:
.LBB327:
.LBB328:
	.loc 1 1195 0
	li 10,1282
	lis 9,glErrCode@ha
	stw 10,glErrCode@l(9)
	.loc 1 1196 0
	lis 10,.LC4@ha
	la 10,.LC4@l(10)
	lis 9,glErrFile@ha
	stw 10,glErrFile@l(9)
	.loc 1 1197 0
	li 10,741
	b .L284
.LVL234:
.L278:
.LBE328:
.LBE327:
	.loc 1 743 0
	cmpwi 7,3,0
	beq- 7,.L281
	cmplwi 7,3,1
	bne- 7,.L283
.L281:
	.loc 1 746 0
	lis 9,depthupdate@ha
	stb 3,depthupdate@l(9)
	blr
.L283:
.LVL235:
.LBB329:
.LBB330:
	.loc 1 1195 0
	li 10,1280
	lis 9,glErrCode@ha
	stw 10,glErrCode@l(9)
	.loc 1 1196 0
	lis 10,.LC4@ha
	la 10,.LC4@l(10)
	lis 9,glErrFile@ha
	stw 10,glErrFile@l(9)
	.loc 1 1197 0
	li 10,748
.LVL236:
.L284:
	lis 9,glErrLine@ha
	stw 10,glErrLine@l(9)
	blr
.LBE330:
.LBE329:
	.cfi_endproc
.LFE108:
	.size	glDepthMask, .-glDepthMask
	.align 2
	.globl glEnable
	.type	glEnable, @function
glEnable:
.LFB109:
	.loc 1 755 0
	.cfi_startproc
.LVL237:
	.loc 1 756 0
	lis 10,cur_state@ha
	lwz 10,cur_state@l(10)
	andi. 8,10,1
	beq+ 0,.L286
.LVL238:
.LBB331:
.LBB332:
	.loc 1 1195 0
	li 10,1282
	lis 9,glErrCode@ha
	stw 10,glErrCode@l(9)
	.loc 1 1196 0
	lis 10,.LC4@ha
	la 10,.LC4@l(10)
	lis 9,glErrFile@ha
	stw 10,glErrFile@l(9)
	.loc 1 1197 0
	li 10,756
	b .L305
.LVL239:
.L286:
.LBE332:
.LBE331:
	.loc 1 758 0
	cmplwi 7,3,2929
	beq- 7,.L289
	bgt- 7,.L290
	cmplwi 7,3,2896
	beq- 7,.L291
	bgt+ 7,.L292
	cmplwi 7,3,2884
	bne- 7,.L288
	.loc 1 782 0
	li 10,1
	lis 9,gxcullfaceanabled@ha
	stb 10,gxcullfaceanabled@l(9)
	blr
.L292:
	.loc 1 758 0
	cmplwi 7,3,2903
	beq- 7,.L294
	cmplwi 7,3,2912
	bne- 7,.L288
	.loc 1 783 0
	li 10,1
	lis 9,fog_enable@ha
	stb 10,fog_enable@l(9)
	blr
.L290:
	.loc 1 758 0
	cmplwi 7,3,3553
	beq- 7,.L296
	bgt- 7,.L297
	cmplwi 7,3,3042
	beq- 7,.L298
	cmplwi 7,3,3089
	bne- 7,.L288
	.loc 1 785 0
	li 10,1
	lis 9,scissor_test@ha
	stb 10,scissor_test@l(9)
	blr
.L297:
	.loc 1 758 0
	addi 9,3,-16384
	cmplwi 7,9,7
	ble+ 7,.L302
	b .L288
.L298:
	.loc 1 760 0
	li 10,1
	lis 9,blend_type@ha
	stb 10,blend_type@l(9)
	blr
.L289:
	.loc 1 761 0
	li 10,1
	lis 9,depthtestenabled@ha
	stb 10,depthtestenabled@l(9)
	blr
.L291:
	.loc 1 762 0
	li 10,1
	lis 9,lighting@ha
	stb 10,lighting@l(9)
	blr
.L296:
	.loc 1 763 0
	li 3,1
.LVL240:
	b _glSetEnableTex
.LVL241:
.L302:
	.loc 1 755 0
	mflr 0
	stwu 1,-8(1)
	.cfi_def_cfa_offset 8
	.cfi_register 65, 0
	stw 0,12(1)
	.cfi_offset 65, 4
.LBB333:
	.loc 1 773 0
	bl glLightN
.LVL242:
	.loc 1 774 0
	cmpwi 0,3,0
	bge+ 0,.L301
.LVL243:
.LBB334:
.LBB335:
	.loc 1 1195 0
	li 10,1280
	lis 9,glErrCode@ha
	stw 10,glErrCode@l(9)
	.loc 1 1196 0
	lis 10,.LC4@ha
	la 10,.LC4@l(10)
	lis 9,glErrFile@ha
	stw 10,glErrFile@l(9)
	.loc 1 1197 0
	li 10,776
	lis 9,glErrLine@ha
	stw 10,glErrLine@l(9)
	b .L285
.LVL244:
.L301:
.LBE335:
.LBE334:
	.loc 1 779 0
	mulli 3,3,164
.LVL245:
	lis 9,lights@ha
	li 10,1
	la 9,lights@l(9)
	stbx 10,9,3
	.loc 1 780 0
	b .L285
.LVL246:
.L294:
	.cfi_def_cfa_offset 0
	.cfi_restore 65
.LBE333:
	.loc 1 784 0
	li 10,1
	lis 9,copy_mat_enabled@ha
	stb 10,copy_mat_enabled@l(9)
	blr
.L288:
.LVL247:
.LBB336:
.LBB337:
	.loc 1 1195 0
	li 10,1280
	lis 9,glErrCode@ha
	stw 10,glErrCode@l(9)
	.loc 1 1196 0
	lis 10,.LC4@ha
	la 10,.LC4@l(10)
	lis 9,glErrFile@ha
	stw 10,glErrFile@l(9)
	.loc 1 1197 0
	li 10,788
.LVL248:
.L305:
	lis 9,glErrLine@ha
	stw 10,glErrLine@l(9)
	blr
.LVL249:
.L285:
	.cfi_def_cfa_offset 8
	.cfi_offset 65, 4
.LBE337:
.LBE336:
	.loc 1 791 0
	lwz 0,12(1)
	addi 1,1,8
	.cfi_def_cfa_offset 0
	mtlr 0
	.cfi_restore 65
	blr
	.cfi_endproc
.LFE109:
	.size	glEnable, .-glEnable
	.align 2
	.globl glIsEnabled
	.type	glIsEnabled, @function
glIsEnabled:
.LFB110:
	.loc 1 794 0
	.cfi_startproc
.LVL250:
	.loc 1 796 0
	lis 10,cur_state@ha
	lwz 10,cur_state@l(10)
	andi. 8,10,1
	beq+ 0,.L307
.LVL251:
.LBB338:
.LBB339:
	.loc 1 1195 0
	li 10,1282
	lis 9,glErrCode@ha
	stw 10,glErrCode@l(9)
	.loc 1 1196 0
	lis 10,.LC4@ha
	la 10,.LC4@l(10)
	lis 9,glErrFile@ha
	stw 10,glErrFile@l(9)
	.loc 1 1197 0
	li 10,796
	b .L372
.LVL252:
.L307:
.LBE339:
.LBE338:
	.loc 1 798 0
	cmplwi 7,3,3089
	beq- 7,.L310
	bgt- 7,.L311
	cmplwi 7,3,2912
	beq- 7,.L312
	bgt- 7,.L313
	cmplwi 7,3,2882
	bgt+ 7,.L314
	cmplwi 7,3,2881
	bge- 7,.L329
	cmplwi 7,3,2848
	beq- 7,.L329
	cmplwi 7,3,2852
	beq- 7,.L329
	cmplwi 7,3,2832
	b .L369
.L314:
	cmplwi 7,3,2896
	beq- 7,.L315
	cmplwi 7,3,2903
	beq- 7,.L316
	cmplwi 7,3,2884
	bne- 7,.L309
	.loc 1 802 0
	lis 9,gxcullfaceanabled@ha
	lbz 3,gxcullfaceanabled@l(9)
.LVL253:
	blr
.LVL254:
.L313:
	.loc 1 798 0
	cmplwi 7,3,3008
	beq- 7,.L329
	bgt+ 7,.L318
	cmplwi 7,3,2960
	beq- 7,.L329
	cmplwi 7,3,2977
	beq- 7,.L329
	cmplwi 7,3,2929
	bne- 7,.L309
	.loc 1 803 0
	lis 9,depthtestenabled@ha
	lbz 3,depthtestenabled@l(9)
.LVL255:
	b .L371
.LVL256:
.L318:
	.loc 1 798 0
	cmplwi 7,3,3042
	beq+ 7,.L320
	bgt+ 7,.L321
	cmplwi 7,3,3024
	b .L369
.L321:
	cmplwi 7,3,3057
	beq+ 7,.L322
	cmplwi 7,3,3058
	b .L369
.L311:
	cmplwi 7,3,10754
	bgt+ 7,.L323
	cmplwi 7,3,10753
	bge- 7,.L329
	cmplwi 7,3,3472
	beq- 7,.L329
	bgt+ 7,.L324
	cmplwi 7,3,3168
	blt- 7,.L309
	cmplwi 7,3,3171
	ble- 7,.L329
	cmplwi 7,3,3456
.L369:
	bne+ 7,.L309
	b .L329
.L324:
	cmplwi 7,3,3508
	blt- 7,.L309
	cmplwi 7,3,3512
	ble- 7,.L329
	addi 9,3,-3552
	cmplwi 7,9,1
	ble+ 7,.L322
	b .L309
.L323:
	cmplwi 7,3,16391
	bgt- 7,.L325
	cmplwi 7,3,16384
	bge- 7,.L326
	addi 9,3,-12288
	cmplwi 7,9,5
	bgt+ 7,.L309
	b .L329
.L325:
	xoris 10,3,0xffff
	cmpwi 7,10,-32713
	beq 7,.L329
	cmplwi 7,3,32823
	blt- 7,.L309
	addis 9,3,0xffff
	addi 9,9,32652
	cmplwi 7,9,5
	bgt- 7,.L309
	.loc 1 811 0
	b _glIsArrayEnabled
.LVL257:
.L320:
	.loc 1 800 0
	lis 9,blend_type@ha
	lbz 3,blend_type@l(9)
.LVL258:
	b .L371
.LVL259:
.L316:
	.loc 1 801 0
	lis 9,copy_mat_enabled@ha
	lbz 3,copy_mat_enabled@l(9)
.LVL260:
	blr
.L371:
	.loc 1 803 0
	xori 3,3,1
	cntlzw 3,3
	srwi 3,3,5
	blr
.LVL261:
.L312:
	.loc 1 804 0
	lis 9,fog_enable@ha
	lbz 3,fog_enable@l(9)
.LVL262:
	blr
.LVL263:
.L322:
	.loc 1 815 0
	lis 9,cur_tex@ha
	lwz 3,cur_tex@l(9)
.LVL264:
	b _glGetEnableTex
.LVL265:
.L326:
	.loc 1 794 0
	mflr 0
	stwu 1,-8(1)
	.cfi_def_cfa_offset 8
	.cfi_register 65, 0
	stw 0,12(1)
	.cfi_offset 65, 4
.LBB340:
	.loc 1 825 0
	bl glLightN
.LVL266:
	.loc 1 826 0
	cmpwi 0,3,0
	bge+ 0,.L328
.LVL267:
.LBB341:
.LBB342:
	.loc 1 1195 0
	li 10,1280
	lis 9,glErrCode@ha
	stw 10,glErrCode@l(9)
	.loc 1 1196 0
	lis 10,.LC4@ha
	la 10,.LC4@l(10)
	lis 9,glErrFile@ha
	stw 10,glErrFile@l(9)
	.loc 1 1197 0
	li 10,828
	lis 9,glErrLine@ha
.LBE342:
.LBE341:
	.loc 1 829 0
	li 3,0
.LVL268:
.LBB344:
.LBB343:
	.loc 1 1197 0
	stw 10,glErrLine@l(9)
.LBE343:
.LBE344:
	.loc 1 829 0
	b .L308
.LVL269:
.L328:
	.loc 1 831 0
	mulli 3,3,164
.LVL270:
	lis 9,lights@ha
	la 9,lights@l(9)
	lbzx 3,9,3
	b .L308
.LVL271:
.L315:
	.cfi_def_cfa_offset 0
	.cfi_restore 65
.LBE340:
	.loc 1 834 0
	lis 9,lighting@ha
	lbz 3,lighting@l(9)
.LVL272:
	blr
.LVL273:
.L310:
	.loc 1 835 0
	lis 9,scissor_test@ha
	lbz 3,scissor_test@l(9)
.LVL274:
	.loc 1 872 0
	blr
.LVL275:
.L309:
.LBB345:
.LBB346:
	.loc 1 1195 0
	li 10,1280
	lis 9,glErrCode@ha
	stw 10,glErrCode@l(9)
	.loc 1 1196 0
	lis 10,.LC4@ha
	la 10,.LC4@l(10)
	lis 9,glErrFile@ha
	stw 10,glErrFile@l(9)
	.loc 1 1197 0
	li 10,869
.LVL276:
.L372:
	lis 9,glErrLine@ha
	stw 10,glErrLine@l(9)
.L329:
.LBE346:
.LBE345:
	.loc 1 866 0
	li 3,0
.LVL277:
	blr
.L308:
	.cfi_def_cfa_offset 8
	.cfi_offset 65, 4
	.loc 1 872 0
	lwz 0,12(1)
	addi 1,1,8
	.cfi_def_cfa_offset 0
	mtlr 0
	.cfi_restore 65
	blr
	.cfi_endproc
.LFE110:
	.size	glIsEnabled, .-glIsEnabled
	.align 2
	.globl glDisable
	.type	glDisable, @function
glDisable:
.LFB111:
	.loc 1 875 0
	.cfi_startproc
	stwu 1,-16(1)
	.cfi_def_cfa_offset 16
	.loc 1 876 0
	lis 10,cur_state@ha
	.loc 1 875 0
	mflr 0
	stw 31,12(1)
	.cfi_register 65, 0
	.cfi_offset 31, -4
	.loc 1 876 0
	lwz 31,cur_state@l(10)
	.loc 1 875 0
	stw 0,20(1)
	.cfi_offset 65, 4
	.loc 1 876 0
	andi. 31,31,1
	beq+ 0,.L374
.LBB347:
.LBB348:
	.loc 1 1195 0
	li 10,1282
	lis 9,glErrCode@ha
	stw 10,glErrCode@l(9)
	.loc 1 1196 0
	lis 10,.LC4@ha
	la 10,.LC4@l(10)
	lis 9,glErrFile@ha
	stw 10,glErrFile@l(9)
	.loc 1 1197 0
	li 10,876
	b .L425
.L374:
.LBE348:
.LBE347:
	.loc 1 878 0
	cmplwi 7,3,3058
	beq- 7,.L373
	bgt- 7,.L377
	cmplwi 7,3,2903
	beq- 7,.L378
	bgt+ 7,.L379
	cmplwi 7,3,2882
	bgt+ 7,.L380
	cmplwi 7,3,2881
	bge- 7,.L373
	cmplwi 7,3,2848
	beq- 7,.L373
	cmplwi 7,3,2852
	beq- 7,.L373
	cmplwi 7,3,2832
	b .L427
.L380:
	cmplwi 7,3,2884
	beq- 7,.L381
	cmplwi 7,3,2896
	bne- 7,.L376
	.loc 1 882 0
	lis 9,lighting@ha
	stb 31,lighting@l(9)
	b .L373
.L379:
	.loc 1 878 0
	cmplwi 7,3,2977
	beq- 7,.L373
	bgt- 7,.L383
	cmplwi 7,3,2929
	beq- 7,.L384
	cmplwi 7,3,2960
	beq- 7,.L373
	cmplwi 7,3,2912
	bne- 7,.L376
	.loc 1 900 0
	li 10,0
	lis 9,fog_enable@ha
	stb 10,fog_enable@l(9)
	b .L373
.L383:
	.loc 1 878 0
	cmplwi 7,3,3024
	beq- 7,.L373
	cmplwi 7,3,3042
	beq+ 7,.L386
	cmplwi 7,3,3008
.L427:
	bne+ 7,.L376
	b .L373
.L377:
	cmplwi 7,3,3553
	beq- 7,.L387
	bgt- 7,.L388
	cmplwi 7,3,3456
	beq- 7,.L373
	bgt- 7,.L389
	cmplwi 7,3,3089
	beq+ 7,.L390
	blt- 7,.L376
	addi 9,3,-3168
	cmplwi 7,9,3
	b .L424
.L389:
	cmplwi 7,3,3472
	beq- 7,.L373
	blt- 7,.L376
	addi 9,3,-3508
	cmplwi 7,9,4
	b .L424
.L388:
	cmplwi 7,3,12293
	bgt+ 7,.L391
	cmplwi 7,3,12288
	bge- 7,.L373
	addi 9,3,-10753
	cmplwi 7,9,1
.L424:
	bgt+ 7,.L376
	b .L373
.L391:
	cmplwi 7,3,16384
	blt- 7,.L376
	cmplwi 7,3,16391
	ble+ 7,.L392
	xoris 10,3,0xffff
	cmpwi 7,10,-32713
	beq 7,.L373
	b .L376
.L386:
	.loc 1 880 0
	lis 9,blend_type@ha
	stb 31,blend_type@l(9)
	b .L373
.L384:
	.loc 1 881 0
	lis 9,depthtestenabled@ha
	stb 31,depthtestenabled@l(9)
	b .L373
.L387:
	.loc 1 939 0
	lwz 0,20(1)
	.loc 1 883 0
	li 3,0
	.loc 1 939 0
	lwz 31,12(1)
	mtlr 0
	.cfi_remember_state
	.cfi_restore 65
	addi 1,1,16
	.cfi_restore 31
	.cfi_def_cfa_offset 0
	.loc 1 883 0
	b _glSetEnableTex
.L392:
	.cfi_restore_state
.LBB349:
	.loc 1 893 0
	bl glLightN
	.loc 1 894 0
	cmpwi 0,3,0
	blt- 0,.L373
	.loc 1 896 0
	mulli 3,3,164
	lis 9,lights@ha
	la 9,lights@l(9)
	stbx 31,9,3
	.loc 1 897 0
	b .L373
.L381:
.LBE349:
	.loc 1 899 0
	lis 9,gxcullfaceanabled@ha
	stb 31,gxcullfaceanabled@l(9)
	b .L373
.L378:
	.loc 1 901 0
	lis 9,copy_mat_enabled@ha
	stb 31,copy_mat_enabled@l(9)
	b .L373
.L390:
	.loc 1 902 0
	lis 9,scissor_test@ha
	stb 31,scissor_test@l(9)
	b .L373
.L376:
.LBB350:
.LBB351:
	.loc 1 1195 0
	li 10,1280
	lis 9,glErrCode@ha
	stw 10,glErrCode@l(9)
	.loc 1 1196 0
	lis 10,.LC4@ha
	la 10,.LC4@l(10)
	lis 9,glErrFile@ha
	stw 10,glErrFile@l(9)
	.loc 1 1197 0
	li 10,936
.L425:
	lis 9,glErrLine@ha
	stw 10,glErrLine@l(9)
.L373:
.LBE351:
.LBE350:
	.loc 1 939 0
	addi 11,1,16
	b _restgpr_31_x
	.cfi_restore 31
	.cfi_restore 65
	.cfi_endproc
.LFE111:
	.size	glDisable, .-glDisable
	.align 2
	.globl glDepthFunc
	.type	glDepthFunc, @function
glDepthFunc:
.LFB112:
	.loc 1 943 0
	.cfi_startproc
.LVL278:
	.loc 1 944 0
	lis 9,cur_state@ha
	lwz 9,cur_state@l(9)
	andi. 10,9,1
	beq+ 0,.L429
.LVL279:
.LBB352:
.LBB353:
	.loc 1 1195 0
	li 10,1282
	lis 9,glErrCode@ha
	stw 10,glErrCode@l(9)
	.loc 1 1196 0
	lis 10,.LC4@ha
	la 10,.LC4@l(10)
	lis 9,glErrFile@ha
	stw 10,glErrFile@l(9)
	.loc 1 1197 0
	li 10,944
	b .L442
.LVL280:
.L429:
.LBE353:
.LBE352:
	.loc 1 946 0
	addi 3,3,-512
.LVL281:
	cmplwi 7,3,7
	bgt- 7,.L431
	lis 9,.L433@ha
	slwi 3,3,2
.LVL282:
	la 9,.L433@l(9)
	lwzx 10,9,3
	add 10,10,9
	lis 9,depthfunction@ha
	mtctr 10
	bctr
	.section	.rodata
	.align 2
	.align 2
.L433:
	.long .L432-.L433
	.long .L434-.L433
	.long .L435-.L433
	.long .L436-.L433
	.long .L437-.L433
	.long .L438-.L433
	.long .L439-.L433
	.long .L440-.L433
	.section	".text"
.L432:
	.loc 1 948 0
	li 10,0
	b .L441
.L434:
	.loc 1 949 0
	li 10,1
	b .L441
.L435:
	.loc 1 950 0
	li 10,2
	b .L441
.L436:
	.loc 1 951 0
	li 10,3
	b .L441
.L437:
	.loc 1 952 0
	li 10,4
	b .L441
.L438:
	.loc 1 953 0
	li 10,5
	b .L441
.L439:
	.loc 1 954 0
	li 10,6
	b .L441
.L440:
	.loc 1 955 0
	li 10,7
.L441:
	stw 10,depthfunction@l(9)
	blr
.L431:
.LVL283:
.LBB354:
.LBB355:
	.loc 1 1195 0
	li 10,1280
	lis 9,glErrCode@ha
	stw 10,glErrCode@l(9)
	.loc 1 1196 0
	lis 10,.LC4@ha
	la 10,.LC4@l(10)
	lis 9,glErrFile@ha
	stw 10,glErrFile@l(9)
	.loc 1 1197 0
	li 10,957
.LVL284:
.L442:
	lis 9,glErrLine@ha
	stw 10,glErrLine@l(9)
	blr
.LBE355:
.LBE354:
	.cfi_endproc
.LFE112:
	.size	glDepthFunc, .-glDepthFunc
	.align 2
	.globl glMultiTexCoord2fARB
	.type	glMultiTexCoord2fARB, @function
glMultiTexCoord2fARB:
.LFB114:
	.loc 1 1040 0
	.cfi_startproc
.LVL285:
	.loc 1 1041 0
	addis 3,3,0xffff
.LVL286:
	addi 9,3,31552
	cmplwi 7,9,8
	ble+ 7,.L444
.LVL287:
.LBB356:
.LBB357:
	.loc 1 1195 0
	li 10,1280
	lis 9,glErrCode@ha
	stw 10,glErrCode@l(9)
	.loc 1 1196 0
	lis 10,.LC4@ha
	la 10,.LC4@l(10)
	lis 9,glErrFile@ha
	stw 10,glErrFile@l(9)
	.loc 1 1197 0
	li 10,1043
	lis 9,glErrLine@ha
	stw 10,glErrLine@l(9)
	blr
.LVL288:
.L444:
.LBE357:
.LBE356:
	.loc 1 1050 0
	lis 10,_temptexcoordelement@ha
	slwi 9,9,3
.LVL289:
	la 10,_temptexcoordelement@l(10)
	add 8,10,9
	stfsx 1,10,9
	stfs 2,4(8)
	blr
	.cfi_endproc
.LFE114:
	.size	glMultiTexCoord2fARB, .-glMultiTexCoord2fARB
	.align 2
	.globl glClientActiveTextureARB
	.type	glClientActiveTextureARB, @function
glClientActiveTextureARB:
.LFB115:
	.loc 1 1054 0
	.cfi_startproc
.LVL290:
	.loc 1 1055 0
	addis 3,3,0xffff
.LVL291:
	addi 3,3,31552
.LVL292:
	cmplwi 7,3,8
	ble+ 7,.L447
.LVL293:
.LBB358:
.LBB359:
	.loc 1 1195 0
	li 10,1280
	lis 9,glErrCode@ha
	stw 10,glErrCode@l(9)
	.loc 1 1196 0
	lis 10,.LC4@ha
	la 10,.LC4@l(10)
	lis 9,glErrFile@ha
	stw 10,glErrFile@l(9)
	.loc 1 1197 0
	li 10,1057
	lis 9,glErrLine@ha
	stw 10,glErrLine@l(9)
	blr
.LVL294:
.L447:
.LBE359:
.LBE358:
	.loc 1 1061 0
	lis 9,cur_tex_client@ha
	stw 3,cur_tex_client@l(9)
	blr
	.cfi_endproc
.LFE115:
	.size	glClientActiveTextureARB, .-glClientActiveTextureARB
	.align 2
	.globl glActiveTextureARB
	.type	glActiveTextureARB, @function
glActiveTextureARB:
.LFB116:
	.loc 1 1065 0
	.cfi_startproc
.LVL295:
	.loc 1 1066 0
	addis 3,3,0xffff
.LVL296:
	addi 3,3,31552
.LVL297:
	cmplwi 7,3,8
	ble+ 7,.L450
.LVL298:
.LBB360:
.LBB361:
	.loc 1 1195 0
	li 10,1280
	lis 9,glErrCode@ha
	stw 10,glErrCode@l(9)
	.loc 1 1196 0
	lis 10,.LC4@ha
	la 10,.LC4@l(10)
	lis 9,glErrFile@ha
	stw 10,glErrFile@l(9)
	.loc 1 1197 0
	li 10,1068
	lis 9,glErrLine@ha
	stw 10,glErrLine@l(9)
	blr
.LVL299:
.L450:
.LBE361:
.LBE360:
	.loc 1 1072 0
	lis 9,cur_tex@ha
	stw 3,cur_tex@l(9)
	.loc 1 1074 0
	lis 9,cur_mode@ha
	lwz 9,cur_mode@l(9)
	cmpwi 7,9,5890
	bnelr+ 7
	.loc 1 1076 0
	li 3,5890
.LVL300:
	.loc 1 1078 0
	.loc 1 1076 0
	b glMatrixMode
.LVL301:
	.cfi_endproc
.LFE116:
	.size	glActiveTextureARB, .-glActiveTextureARB
	.align 2
	.globl glGetIntegerv
	.type	glGetIntegerv, @function
glGetIntegerv:
.LFB117:
	.loc 1 1080 0
	.cfi_startproc
	.loc 1 1081 0
	lis 9,cur_state@ha
	lwz 9,cur_state@l(9)
	andi. 10,9,1
	beq+ 0,.L453
.LBB362:
.LBB363:
	.loc 1 1195 0
	li 10,1282
	lis 9,glErrCode@ha
	stw 10,glErrCode@l(9)
	.loc 1 1196 0
	lis 10,.LC4@ha
	la 10,.LC4@l(10)
	lis 9,glErrFile@ha
	stw 10,glErrFile@l(9)
	.loc 1 1197 0
	li 10,1081
	lis 9,glErrLine@ha
	stw 10,glErrLine@l(9)
	blr
.L453:
.LBE363:
.LBE362:
	.loc 1 1083 0
	cmpwi 7,4,0
	.loc 1 1080 0
	mflr 0
	stwu 1,-32(1)
	.cfi_def_cfa_offset 32
	.cfi_register 65, 0
	stw 31,28(1)
	.cfi_offset 31, -4
	mr 31,4
	stw 0,36(1)
	.cfi_offset 65, 4
	.loc 1 1083 0
	beq- 7,.L452
	.loc 1 1085 0
	cmplwi 7,3,3359
	bgt+ 7,.L456
	cmplwi 7,3,3352
	bge- 7,.L457
	cmplwi 7,3,3317
	bgt- 7,.L458
	cmplwi 7,3,3312
	bge- 7,.L459
	cmplwi 7,3,2979
	beq- 7,.L460
	bgt+ 7,.L461
	cmplwi 7,3,2976
	.loc 1 1088 0
	lis 9,cur_mode@ha
	lwz 9,cur_mode@l(9)
	.loc 1 1085 0
	beq+ 7,.L487
	b .L455
.L461:
	cmplwi 7,3,2980
	beq- 7,.L463
	cmplwi 7,3,2981
	bne- 7,.L455
	.loc 1 1105 0
	lis 3,texture_stack@ha
	la 3,texture_stack@l(3)
	b .L490
.L458:
	.loc 1 1085 0
	cmplwi 7,3,3328
	blt- 7,.L455
	cmplwi 7,3,3333
	ble- 7,.L459
	addi 9,3,-3344
	cmplwi 7,9,5
	ble+ 7,.L457
	b .L455
.L456:
	cmplwi 7,3,3385
	beq- 7,.L465
	bgt- 7,.L466
	cmplwi 7,3,3381
	beq- 7,.L467
	bgt- 7,.L468
	cmplwi 7,3,3377
	beq- 7,.L475
	cmplwi 7,3,3379
	.loc 1 1094 0
	li 9,1024
	.loc 1 1085 0
	beq+ 7,.L487
	b .L455
.L468:
	cmplwi 7,3,3382
	beq- 7,.L471
	cmplwi 7,3,3384
	bne- 7,.L455
	.loc 1 1117 0
	lis 3,projection_stack@ha
	la 3,projection_stack@l(3)
	b .L488
.L466:
	.loc 1 1085 0
	cmplwi 7,3,32878
	bgt+ 7,.L473
	cmplwi 7,3,32875
	bge- 7,.L459
	cmplwi 7,3,3387
	beq+ 7,.L467
	b .L455
.L473:
	xoris 9,3,0xffff
	cmpwi 7,9,-32535
	beq 7,.L474
	xoris 9,3,0xffff
	cmpwi 7,9,-31518
	beq 7,.L475
	xoris 9,3,0xffff
	cmpwi 7,9,-32536
	bne 7,.L455
	b .L474
.L475:
	.loc 1 1099 0
	li 9,8
	b .L487
.L460:
	.loc 1 1102 0
	lis 3,model_stack@ha
	la 3,model_stack@l(3)
	b .L490
.L463:
	.loc 1 1108 0
	lis 3,projection_stack@ha
	la 3,projection_stack@l(3)
.L490:
	bl StackSize
	b .L489
.L471:
	.loc 1 1111 0
	lis 3,model_stack@ha
	la 3,model_stack@l(3)
	b .L488
.L465:
	.loc 1 1114 0
	lis 3,texture_stack@ha
	la 3,texture_stack@l(3)
.L488:
	.loc 1 1117 0
	bl MaxStackSize
.L489:
	stw 3,0(31)
	.loc 1 1118 0
	b .L452
.L474:
	.loc 1 1123 0
	li 9,32000
	b .L487
.L467:
	.loc 1 1127 0
	li 9,16
	b .L487
.L459:
	.loc 1 1145 0
	mr 4,31
	bl _glGetPixelStore
	.loc 1 1146 0
	b .L452
.L457:
.LBB364:
	.loc 1 1163 0
	addi 4,1,8
	bl _glGetPixelTransferf
	.loc 1 1164 0
	lfs 0,8(1)
	fctiwz 0,0
	stfiwx 0,0,31
.LBE364:
	.loc 1 1166 0
	b .L452
.L455:
.LBB365:
.LBB366:
	.loc 1 1195 0
	li 10,1280
	lis 9,glErrCode@ha
	stw 10,glErrCode@l(9)
	.loc 1 1196 0
	lis 10,.LC4@ha
	la 10,.LC4@l(10)
	lis 9,glErrFile@ha
	stw 10,glErrFile@l(9)
	.loc 1 1197 0
	lis 9,glErrLine@ha
	li 10,1168
	stw 10,glErrLine@l(9)
.LBE366:
.LBE365:
	.loc 1 1169 0
	li 9,0
.L487:
	stw 9,0(31)
.L452:
	.loc 1 1172 0
	addi 11,1,32
	b _restgpr_31_x
	.cfi_restore 31
	.cfi_restore 65
	.cfi_endproc
.LFE117:
	.size	glGetIntegerv, .-glGetIntegerv
	.align 2
	.globl glGetFloatv
	.type	glGetFloatv, @function
glGetFloatv:
.LFB113:
	.loc 1 966 0
	.cfi_startproc
	.loc 1 967 0
	lis 9,cur_state@ha
	lwz 9,cur_state@l(9)
	andi. 10,9,1
	beq+ 0,.L492
.LBB367:
.LBB368:
	.loc 1 1195 0
	li 10,1282
	lis 9,glErrCode@ha
	stw 10,glErrCode@l(9)
	.loc 1 1196 0
	lis 10,.LC4@ha
	la 10,.LC4@l(10)
	lis 9,glErrFile@ha
	stw 10,glErrFile@l(9)
	.loc 1 1197 0
	li 10,967
	lis 9,glErrLine@ha
	stw 10,glErrLine@l(9)
	blr
.L492:
.LBE368:
.LBE367:
	.loc 1 969 0
	cmpwi 7,4,0
	.loc 1 966 0
	mflr 0
	stwu 1,-40(1)
	.cfi_def_cfa_offset 40
	.cfi_register 65, 0
	stw 31,36(1)
	.cfi_offset 31, -4
	mr 31,4
	stw 0,44(1)
	.cfi_offset 65, 4
	.loc 1 969 0
	bne+ 7,.L494
.LBB369:
.LBB370:
	.loc 1 1195 0
	li 10,1281
	lis 9,glErrCode@ha
	stw 10,glErrCode@l(9)
	.loc 1 1196 0
	lis 10,.LC4@ha
	la 10,.LC4@l(10)
	lis 9,glErrFile@ha
	stw 10,glErrFile@l(9)
	.loc 1 1197 0
	li 10,971
	b .L523
.L494:
.LBE370:
.LBE369:
	.loc 1 975 0
	cmplwi 7,3,3359
	bgt- 7,.L496
	cmplwi 7,3,3352
	bge- 7,.L497
	cmplwi 7,3,3317
	bgt- 7,.L498
	cmplwi 7,3,3312
	bge- 7,.L499
	cmplwi 7,3,2981
	bgt+ 7,.L500
	cmplwi 7,3,2979
	bge- 7,.L499
	cmplwi 7,3,2976
	b .L522
.L500:
	cmplwi 7,3,2984
	ble+ 7,.L501
	b .L495
.L498:
	cmplwi 7,3,3328
	blt- 7,.L495
	cmplwi 7,3,3333
	ble- 7,.L499
	addi 9,3,-3344
	cmplwi 7,9,5
	ble+ 7,.L497
	b .L495
.L496:
	cmplwi 7,3,32878
	bgt+ 7,.L502
	cmplwi 7,3,32875
	bge- 7,.L499
	cmplwi 7,3,3382
	beq- 7,.L499
	bgt- 7,.L503
	cmplwi 7,3,3377
	beq- 7,.L499
	cmplwi 7,3,3379
.L522:
	bne+ 7,.L495
	b .L499
.L503:
	addi 9,3,-3384
	b .L520
.L502:
	xoris 9,3,0xffff
	cmpwi 7,9,-31518
	beq 7,.L499
	cmplwi 7,3,34018
	bgt+ 7,.L504
	addis 9,3,0xffff
	addi 9,9,32536
.L520:
	cmplwi 7,9,1
	bgt+ 7,.L495
	b .L499
.L504:
	xoris 9,3,0xffff
	cmpwi 7,9,-31489
	bne 7,.L495
	.loc 1 978 0
	lis 9,.LC16@ha
	lfs 0,.LC16@l(9)
	stfs 0,0(4)
.L501:
	.loc 1 982 0
	mr 4,31
	bl _glGetMatrixf
	.loc 1 983 0
	b .L491
.L497:
	.loc 1 998 0
	mr 4,31
	bl _glGetPixelTransferf
	.loc 1 999 0
	b .L491
.L499:
.LBB371:
	.loc 1 1030 0
	addi 4,1,8
	bl glGetIntegerv
	.loc 1 1031 0
	lwz 9,8(1)
	xoris 9,9,0x8000
	stw 9,28(1)
	lis 9,0x4330
	stw 9,24(1)
	lis 9,.LC6@ha
	lfs 0,.LC6@l(9)
	lfd 13,24(1)
	fsub 0,13,0
	frsp 0,0
	stfs 0,0(31)
.L495:
.LBE371:
.LBB372:
.LBB373:
	.loc 1 1195 0
	li 10,1280
	lis 9,glErrCode@ha
	stw 10,glErrCode@l(9)
	.loc 1 1196 0
	lis 10,.LC4@ha
	la 10,.LC4@l(10)
	lis 9,glErrFile@ha
	stw 10,glErrFile@l(9)
	.loc 1 1197 0
	li 10,1034
.L523:
	lis 9,glErrLine@ha
	stw 10,glErrLine@l(9)
.L491:
.LBE373:
.LBE372:
	.loc 1 1037 0
	addi 11,1,40
	b _restgpr_31_x
	.cfi_restore 31
	.cfi_restore 65
	.cfi_endproc
.LFE113:
	.size	glGetFloatv, .-glGetFloatv
	.align 2
	.globl glLineWidth
	.type	glLineWidth, @function
glLineWidth:
.LFB118:
	.loc 1 1175 0
	.cfi_startproc
.LVL302:
	.loc 1 1176 0
	lis 9,cur_state@ha
	lwz 9,cur_state@l(9)
	andi. 10,9,1
	beq+ 0,.L525
.LVL303:
.LBB374:
.LBB375:
	.loc 1 1195 0
	li 10,1282
	lis 9,glErrCode@ha
	stw 10,glErrCode@l(9)
	.loc 1 1196 0
	lis 10,.LC4@ha
	la 10,.LC4@l(10)
	lis 9,glErrFile@ha
	stw 10,glErrFile@l(9)
	.loc 1 1197 0
	li 10,1176
	lis 9,glErrLine@ha
	stw 10,glErrLine@l(9)
	blr
.LVL304:
.L525:
.LBE375:
.LBE374:
	.loc 1 1178 0
	lis 9,line_width@ha
	stfs 1,line_width@l(9)
	blr
	.cfi_endproc
.LFE118:
	.size	glLineWidth, .-glLineWidth
	.align 2
	.globl glPointSize
	.type	glPointSize, @function
glPointSize:
.LFB119:
	.loc 1 1182 0
	.cfi_startproc
.LVL305:
	.loc 1 1183 0
	lis 9,cur_state@ha
	lwz 9,cur_state@l(9)
	andi. 10,9,1
	beq+ 0,.L528
.LVL306:
.LBB376:
.LBB377:
	.loc 1 1195 0
	li 10,1282
	lis 9,glErrCode@ha
	stw 10,glErrCode@l(9)
	.loc 1 1196 0
	lis 10,.LC4@ha
	la 10,.LC4@l(10)
	lis 9,glErrFile@ha
	stw 10,glErrFile@l(9)
	.loc 1 1197 0
	li 10,1183
	lis 9,glErrLine@ha
	stw 10,glErrLine@l(9)
	blr
.LVL307:
.L528:
.LBE377:
.LBE376:
	.loc 1 1185 0
	lis 9,point_size@ha
	stfs 1,point_size@l(9)
	blr
	.cfi_endproc
.LFE119:
	.size	glPointSize, .-glPointSize
	.align 2
	.globl _glSetErrorEx
	.type	_glSetErrorEx, @function
_glSetErrorEx:
.LFB120:
	.loc 1 1194 0
	.cfi_startproc
.LVL308:
	.loc 1 1195 0
	lis 9,glErrCode@ha
	stw 3,glErrCode@l(9)
	.loc 1 1196 0
	lis 9,glErrFile@ha
	stw 4,glErrFile@l(9)
	.loc 1 1197 0
	lis 9,glErrLine@ha
	stw 5,glErrLine@l(9)
	blr
	.cfi_endproc
.LFE120:
	.size	_glSetErrorEx, .-_glSetErrorEx
	.align 2
	.globl glGetError
	.type	glGetError, @function
glGetError:
.LFB121:
	.loc 1 1200 0
	.cfi_startproc
	.loc 1 1201 0
	lis 9,cur_state@ha
	lwz 9,cur_state@l(9)
	andi. 10,9,1
	lis 9,glErrCode@ha
	beq+ 0,.L532
.LVL309:
.LBB378:
.LBB379:
	.loc 1 1195 0
	li 10,1282
.LBE379:
.LBE378:
	.loc 1 1201 0
	li 3,0
.LBB381:
.LBB380:
	.loc 1 1195 0
	stw 10,glErrCode@l(9)
	.loc 1 1196 0
	lis 10,.LC4@ha
	la 10,.LC4@l(10)
	lis 9,glErrFile@ha
	stw 10,glErrFile@l(9)
	.loc 1 1197 0
	li 10,1201
	lis 9,glErrLine@ha
	stw 10,glErrLine@l(9)
.LBE380:
.LBE381:
	.loc 1 1201 0
	blr
.LVL310:
.L532:
	.loc 1 1203 0
	lwz 3,glErrCode@l(9)
.LVL311:
	.loc 1 1204 0
	stw 10,glErrCode@l(9)
	.loc 1 1206 0
	blr
	.cfi_endproc
.LFE121:
	.size	glGetError, .-glGetError
	.align 2
	.globl glColorMask
	.type	glColorMask, @function
glColorMask:
.LFB122:
	.loc 1 1212 0
	.cfi_startproc
.LVL312:
	.loc 1 1213 0
	xori 3,3,1
.LVL313:
	.loc 1 1214 0
	xori 4,4,1
.LVL314:
	.loc 1 1215 0
	xori 5,5,1
.LVL315:
	.loc 1 1216 0
	xori 6,6,1
.LVL316:
	.loc 1 1213 0
	lis 10,color_write_mask@ha
	cntlzw 3,3
	.loc 1 1214 0
	cntlzw 4,4
	.loc 1 1215 0
	cntlzw 5,5
	.loc 1 1216 0
	cntlzw 6,6
	.loc 1 1213 0
	la 9,color_write_mask@l(10)
	srwi 3,3,5
	.loc 1 1214 0
	srwi 4,4,5
	.loc 1 1215 0
	srwi 5,5,5
	.loc 1 1216 0
	srwi 6,6,5
	.loc 1 1213 0
	stb 3,color_write_mask@l(10)
	.loc 1 1214 0
	stb 4,1(9)
	.loc 1 1215 0
	stb 5,2(9)
	.loc 1 1216 0
	stb 6,3(9)
	blr
	.cfi_endproc
.LFE122:
	.size	glColorMask, .-glColorMask
	.globl glErrLine
	.globl glErrFile
	.globl glErrCode
	.comm	call_offset,4,4
	.comm	read_mode,4,4
	.comm	glTexEnvs,864,4
	.comm	fog_color,4,1
	.comm	fog_density,4,4
	.comm	fog_endz,4,4
	.comm	fog_startz,4,4
	.comm	fog_mode,1,1
	.comm	fog_enable,1,1
	.comm	Trans,32,4
	.comm	_clearcolor,4,1
	.comm	copy_material,4,4
	.comm	copy_mat_enabled,1,1
	.comm	color_write_mask,4,4
	.comm	unpack,20,4
	.comm	pack,20,4
	.comm	point_size,4,4
	.comm	line_width,4,4
	.comm	normFar,4,4
	.comm	normNear,4,4
	.comm	viewPort,16,4
	.comm	scissorInfo,16,4
	.comm	scissor_test,1,1
	.comm	fb_max_width,4,4
	.comm	fb_max_height,4,4
	.comm	cur_state,4,4
	.comm	cull_mode,1,1
	.comm	blend_op,1,1
	.comm	blend_dst,1,1
	.comm	blend_src,1,1
	.comm	blend_type,1,1
	.comm	lighting,1,1
	.comm	gxwinding,4,4
	.comm	gxcullfaceanabled,1,1
	.comm	curmat,68,4
	.comm	globAmbient,16,4
	.comm	lights,1312,4
	.comm	cur_mode,4,4
	.comm	curmtx,4,4
	.comm	texture_stack,128,4
	.comm	projection_stack,16,4
	.comm	model_stack,16,4
	.comm	_cleardepth,4,4
	.comm	depthfunction,4,4
	.comm	depthupdate,1,1
	.comm	depthtestenabled,1,1
	.comm	cur_tex_client,4,4
	.comm	cur_tex,4,4
	.comm	_GLtype,4,4
	.comm	_type,4,4
	.comm	vert_i,4,4
	.comm	_colorelements,16000,32
	.comm	_texcoordelements,64000,32
	.comm	_vertexelements,12000,32
	.comm	_normalelements,12000,32
	.comm	color,20,4
	.comm	tex,160,4
	.comm	vert,20,4
	.comm	norm,20,4
	.comm	_temptexcoordelement,64,4
	.comm	_tempnormalelement,12,4
	.comm	_tempcolorelement,16,4
	.section	.rodata.cst4,"aM",@progbits,4
	.align 2
.LC0:
	.4byte	1139802112
.LC1:
	.4byte	1142947840
.LC2:
	.4byte	1065353217
.LC3:
	.4byte	0
.LC6:
	.4byte	1501560836
.LC7:
	.4byte	1065353216
.LC9:
	.4byte	1501560832
.LC10:
	.4byte	1132396544
.LC11:
	.4byte	1266679807
.LC12:
	.4byte	1325400064
.LC16:
	.4byte	1082130432
	.section	.rodata.cst8,"aM",@progbits,8
	.align 3
.LC13:
	.4byte	0
	.4byte	0
.LC15:
	.4byte	1075195458
	.4byte	-17155559
	.section	.rodata.str1.1,"aMS",@progbits,1
.LC4:
	.string	"D:/devkitPro/portlibs/thirdparty/gl2gx/libogc/../source/gl.c"
	.section	.sbss,"aw",@nobits
	.align 2
	.type	glErrLine, @object
	.size	glErrLine, 4
glErrLine:
	.zero	4
	.type	glErrFile, @object
	.size	glErrFile, 4
glErrFile:
	.zero	4
	.type	glErrCode, @object
	.size	glErrCode, 4
glErrCode:
	.zero	4
	.section	".text"
.Letext0:
	.file 3 "d:\\devkitpro\\devkitppc\\lib\\gcc\\powerpc-eabi\\4.8.2\\include\\stddef.h"
	.file 4 "D:/devkitPro/portlibs/thirdparty/gl2gx/libogc/include/GL/gl.h"
	.file 5 "d:\\devkitpro\\devkitppc\\powerpc-eabi\\include\\stdint.h"
	.file 6 "D:\\devkitPro\\/libogc/include/gctypes.h"
	.file 7 "D:\\devkitPro\\/libogc/include/ogc/gu.h"
	.file 8 "D:\\devkitPro\\/libogc/include/ogc/lwp.h"
	.file 9 "D:/devkitPro/portlibs/thirdparty/gl2gx/libogc/../source/include/glint.h"
	.file 10 "D:/devkitPro/portlibs/thirdparty/gl2gx/libogc/../source/include/mat_stack.h"