	.file	"gl_outcopy.c"
	.section	".text"
.Ltext0:
	.cfi_sections	.debug_frame
	.align 2
	.type	TransformC, @function
TransformC:
.LFB62:
	.file 1 "D:/devkitPro/portlibs/thirdparty/gl2gx/libogc/../source/include/glint.h"
	.loc 1 357 0
	.cfi_startproc
.LVL0:
	.loc 1 358 0
	lfs 0,4(4)
	.loc 1 360 0
	lis 9,.LC0@ha
	.loc 1 358 0
	lfs 12,0(3)
	lfs 13,0(4)
	fmadds 13,12,13,0
	.loc 1 360 0
	lfs 0,.LC0@l(9)
	fcmpu 7,13,0
	bgt+ 7,.L2
	.loc 1 362 0
	lis 9,.LC1@ha
	lfs 0,.LC1@l(9)
	fcmpu 7,13,0
	blt+ 7,.L2
	.loc 1 361 0
	fmr 0,13
.L2:
	stfs 0,0(3)
	blr
	.cfi_endproc
.LFE62:
	.size	TransformC, .-TransformC
	.align 2
	.type	put_UBYTE, @function
put_UBYTE:
.LFB77:
	.file 2 "D:/devkitPro/portlibs/thirdparty/gl2gx/libogc/../source/gl_outcopy.c"
	.loc 2 145 0
	.cfi_startproc
.LVL1:
	.loc 2 147 0
	lwz 9,0(3)
	.loc 2 145 0
	stwu 1,-16(1)
	.cfi_def_cfa_offset 16
	.loc 2 147 0
	addi 10,9,1
	stw 10,0(3)
	lis 10,.LC3@ha
	lfs 0,.LC3@l(10)
	addi 10,1,8
	fmul 0,1,0
	fctiwz 0,0
	stfiwx 0,0,10
	lwz 10,8(1)
	stb 10,0(9)
	.loc 2 148 0
	addi 1,1,16
	.cfi_def_cfa_offset 0
	blr
	.cfi_endproc
.LFE77:
	.size	put_UBYTE, .-put_UBYTE
	.align 2
	.type	put_BYTE, @function
put_BYTE:
.LFB78:
	.loc 2 150 0
	.cfi_startproc
.LVL2:
	.loc 2 152 0
	lwz 9,0(3)
	.loc 2 150 0
	stwu 1,-16(1)
	.cfi_def_cfa_offset 16
	.loc 2 152 0
	addi 10,9,1
	stw 10,0(3)
	lis 10,.LC5@ha
	lfs 0,.LC5@l(10)
	addi 10,1,8
	fmul 0,1,0
	fctiwz 0,0
	stfiwx 0,0,10
	lwz 10,8(1)
	stb 10,0(9)
	.loc 2 153 0
	addi 1,1,16
	.cfi_def_cfa_offset 0
	blr
	.cfi_endproc
.LFE78:
	.size	put_BYTE, .-put_BYTE
	.align 2
	.type	put_USHORT, @function
put_USHORT:
.LFB79:
	.loc 2 155 0
	.cfi_startproc
.LVL3:
	.loc 2 157 0
	lwz 9,0(3)
	.loc 2 155 0
	stwu 1,-16(1)
	.cfi_def_cfa_offset 16
	.loc 2 157 0
	addi 10,9,2
	stw 10,0(3)
	lis 10,.LC6@ha
	lfs 0,.LC6@l(10)
	addi 10,1,8
	fmuls 1,1,0
.LVL4:
	fctiwz 0,1
	stfiwx 0,0,10
	lwz 10,8(1)
	sth 10,0(9)
	.loc 2 158 0
	addi 1,1,16
	.cfi_def_cfa_offset 0
	blr
	.cfi_endproc
.LFE79:
	.size	put_USHORT, .-put_USHORT
	.align 2
	.type	put_SHORT, @function
put_SHORT:
.LFB80:
	.loc 2 160 0
	.cfi_startproc
.LVL5:
	.loc 2 162 0
	lwz 9,0(3)
	.loc 2 160 0
	stwu 1,-16(1)
	.cfi_def_cfa_offset 16
	.loc 2 162 0
	addi 10,9,2
	stw 10,0(3)
	lis 10,.LC7@ha
	lfs 0,.LC7@l(10)
	addi 10,1,8
	fmuls 1,1,0
.LVL6:
	fctiwz 0,1
	stfiwx 0,0,10
	lwz 10,8(1)
	sth 10,0(9)
	.loc 2 163 0
	addi 1,1,16
	.cfi_def_cfa_offset 0
	blr
	.cfi_endproc
.LFE80:
	.size	put_SHORT, .-put_SHORT
	.align 2
	.type	put_UINT, @function
put_UINT:
.LFB81:
	.loc 2 165 0
	.cfi_startproc
.LVL7:
	.loc 2 167 0
	lwz 9,0(3)
	addi 10,9,4
	stw 10,0(3)
	lis 10,.LC8@ha
	lfs 0,.LC8@l(10)
	lis 10,.LC9@ha
	fmuls 1,1,0
.LVL8:
	lfs 0,.LC9@l(10)
	fcmpu 7,1,0
	cror 30,29,30
	beq- 7,.L17
	.loc 2 167 0
	fctiwz 1,1
	stfiwx 1,0,9
	blr
.L17:
	fsubs 0,1,0
	.loc 2 165 0
	stwu 1,-16(1)
	.cfi_def_cfa_offset 16
	.loc 2 167 0
	addi 10,1,8
	fctiwz 0,0
	stfiwx 0,0,10
	lwz 10,8(1)
	addis 10,10,0x8000
	stw 10,0(9)
	.loc 2 168 0
	addi 1,1,16
	.cfi_def_cfa_offset 0
	blr
	.cfi_endproc
.LFE81:
	.size	put_UINT, .-put_UINT
	.align 2
	.type	put_INT, @function
put_INT:
.LFB82:
	.loc 2 170 0
	.cfi_startproc
.LVL9:
	.loc 2 172 0
	lwz 9,0(3)
	addi 10,9,4
	stw 10,0(3)
	lis 10,.LC9@ha
	lfs 0,.LC9@l(10)
	fmuls 1,1,0
.LVL10:
	fctiwz 0,1
	stfiwx 0,0,9
	blr
	.cfi_endproc
.LFE82:
	.size	put_INT, .-put_INT
	.align 2
	.type	put_FLOAT, @function
put_FLOAT:
.LFB83:
	.loc 2 175 0
	.cfi_startproc
.LVL11:
	.loc 2 177 0
	lwz 9,0(3)
	addi 10,9,4
	stw 10,0(3)
	stfs 1,0(9)
	blr
	.cfi_endproc
.LFE83:
	.size	put_FLOAT, .-put_FLOAT
	.align 2
	.type	write_rgb, @function
write_rgb:
.LFB93:
	.loc 2 224 0
	.cfi_startproc
.LVL12:
	.loc 2 225 0
	addis 9,4,0xffff
	.loc 2 224 0
	mflr 0
	.loc 2 225 0
	addi 9,9,32544
	.loc 2 224 0
	stwu 1,-208(1)
	.cfi_def_cfa_offset 208
	.cfi_register 65, 0
	.loc 2 225 0
	cmplwi 7,9,1
	.loc 2 224 0
	stmw 27,188(1)
	.cfi_offset 27, -20
	.cfi_offset 28, -16
	.cfi_offset 29, -12
	.cfi_offset 30, -8
	.cfi_offset 31, -4
	mr 30,3
	stw 0,212(1)
	.cfi_offset 65, 4
	.loc 2 224 0
	mr 29,4
	.loc 2 225 0
	bgt- 7,.L23
.LBB53:
	.loc 2 230 0
	lbz 10,0(6)
.LVL13:
	.loc 2 231 0
	lbz 9,2(6)
	.loc 2 232 0
	stb 10,2(6)
	.loc 2 231 0
	stb 9,0(6)
.LVL14:
.L23:
.LBE53:
	.loc 2 237 0
	li 9,0
	lbz 8,0(6)
	ori 9,9,32820
	lbz 10,1(6)
	cmpw 7,5,9
	lbz 9,2(6)
	beq- 7,.L26
	cmplwi 7,5,32820
	bgt- 7,.L27
	cmplwi 7,5,5124
	beq- 7,.L28
	bgt- 7,.L29
	cmplwi 7,5,5121
	beq- 7,.L69
	bgt+ 7,.L31
	cmplwi 7,5,5120
	beq+ 7,.L32
	b .L25
.L31:
	cmplwi 7,5,5122
	beq- 7,.L33
	cmplwi 7,5,5123
	beq+ 7,.L34
	b .L25
.L29:
	cmplwi 7,5,5126
	beq- 7,.L35
	blt- 7,.L36
	xoris 7,5,0xffff
	cmpwi 7,7,-32718
	beq 7,.L37
	xoris 7,5,0xffff
	cmpwi 7,7,-32717
	beq 7,.L38
	b .L25
.L27:
	xoris 7,5,0xffff
	cmpwi 7,7,-31900
	beq 7,.L39
	cmplwi 7,5,33636
	li 7,0
	bgt- 7,.L40
	ori 7,7,32822
	cmpw 7,5,7
	beq- 7,.L41
	cmplwi 7,5,32822
	blt- 7,.L42
	xoris 7,5,0xffff
	cmpwi 7,7,-31902
	beq 7,.L43
	xoris 7,5,0xffff
	cmpwi 7,7,-31901
	beq 7,.L44
	b .L25
.L40:
	ori 7,7,33638
	cmpw 7,5,7
	beq- 7,.L45
	cmplwi 7,5,33638
	blt- 7,.L46
	xoris 7,5,0xffff
	cmpwi 7,7,-31897
	beq 7,.L47
	xoris 7,5,0xffff
	cmpwi 7,7,-31896
	beq 7,.L48
.L25:
	.loc 2 236 0
	li 31,0
	b .L30
.L37:
.LVL15:
.LBB54:
.LBB55:
	.loc 2 36 0
	rlwinm 9,9,26,30,31
	rlwinm 8,8,0,0,26
	or 9,9,8
	rlwinm 10,10,29,27,29
	b .L80
.LVL16:
.L43:
.LBE55:
.LBE54:
.LBB56:
.LBB57:
	.loc 2 42 0
	rlwinm 8,8,27,29,31
	rlwinm 9,9,0,0,25
	or 9,8,9
	rlwinm 10,10,2,22,24
.LVL17:
.L80:
	or 10,9,10
	stb 10,0(30)
	b .L22
.L44:
.LVL18:
.LBE57:
.LBE56:
.LBB58:
.LBB59:
	.loc 2 48 0
	rlwinm 8,8,8,16,20
	rlwinm 10,10,3,21,26
	or 10,8,10
	rlwinm 9,9,29,27,31
	b .L81
.LVL19:
.L39:
.LBE59:
.LBE58:
.LBB60:
.LBB61:
	.loc 2 54 0
	rlwinm 9,9,8,16,20
	rlwinm 10,10,3,21,26
	or 9,9,10
	rlwinm 8,8,29,27,31
	or 8,8,9
	sth 8,0(30)
	b .L22
.LVL20:
.L38:
.LBE61:
.LBE60:
.LBB62:
.LBB63:
	.loc 2 60 0
	rlwinm 8,8,8,16,19
	rlwinm 10,10,4,20,23
	or 10,8,10
	lbz 8,3(6)
	rlwinm 9,9,0,24,27
	srwi 8,8,4
	or 9,9,8
.LVL21:
.L81:
	or 9,9,10
.L82:
	sth 9,0(30)
	b .L22
.L46:
.LVL22:
.LBE63:
.LBE62:
.LBB64:
.LBB65:
	.loc 2 66 0
	lbz 7,3(6)
	rlwinm 9,9,4,20,23
	rlwinm 8,8,28,28,31
	rlwinm 7,7,8,16,19
	or 7,7,9
	rlwinm 9,10,0,24,27
	or 9,9,8
	or 9,9,7
	b .L82
.LVL23:
.L26:
.LBE65:
.LBE64:
.LBB66:
.LBB67:
	.loc 2 72 0
	rlwinm 10,10,3,21,25
	rlwinm 8,8,8,16,20
	or 8,8,10
	lbz 10,3(6)
	rlwinm 9,9,30,26,30
	srwi 10,10,7
	or 10,10,8
	b .L81
.LVL24:
.L45:
.LBE67:
.LBE66:
.LBB68:
.LBB69:
	.loc 2 78 0
	lbz 7,3(6)
	rlwinm 9,9,7,17,21
	rlwinm 8,8,29,27,31
	rlwinm 10,10,2,22,26
	rlwinm 7,7,8,16,16
	or 9,7,9
	or 8,8,9
	or 10,8,10
	sth 10,0(30)
	b .L22
.LVL25:
.L42:
.LBE69:
.LBE68:
.LBB70:
.LBB71:
	.loc 2 84 0
	slwi 8,8,24
	rlwinm 10,10,16,8,15
	lbz 7,3(6)
	or 10,8,10
	rlwinm 9,9,8,16,23
	or 10,10,7
	b .L83
.LVL26:
.L47:
.LBE71:
.LBE70:
.LBB72:
.LBB73:
	.loc 2 90 0
	lbz 7,3(6)
	rlwinm 9,9,16,8,15
	rlwinm 8,8,0,0xff
	rlwinm 10,10,8,16,23
	slwi 7,7,24
	or 9,7,9
	or 8,9,8
	or 10,8,10
	stw 10,0(30)
	b .L22
.LVL27:
.L41:
.LBE73:
.LBE72:
.LBB74:
.LBB75:
	.loc 2 100 0
	rlwinm 8,8,0,0xff
	lis 7,0x4330
	xoris 8,8,0x8000
	stw 7,56(1)
	stw 8,60(1)
	lis 5,.LC11@ha
.LVL28:
	lfs 13,.LC11@l(5)
	lis 8,.LC12@ha
	lfd 0,56(1)
	.loc 2 105 0
	rlwinm 10,10,0,0xff
	xoris 10,10,0x8000
	.loc 2 110 0
	rlwinm 9,9,0,0xff
	.loc 2 100 0
	fsub 12,0,13
	lfd 0,.LC12@l(8)
	addi 8,1,172
	.loc 2 110 0
	xoris 9,9,0x8000
	.loc 2 100 0
	fmul 12,12,0
	fctiwz 12,12
	stfiwx 12,0,8
	.loc 2 105 0
	addi 8,1,176
	stw 10,68(1)
	stw 7,64(1)
	.loc 2 100 0
	lwz 5,172(1)
	.loc 2 105 0
	lfd 11,64(1)
	.loc 2 100 0
	rlwinm 5,5,0,0xffff
.LVL29:
	.loc 2 105 0
	fsub 12,11,13
	cmplwi 7,5,1023
	fmul 12,12,0
	fctiwz 12,12
	stfiwx 12,0,8
	.loc 2 110 0
	stw 9,76(1)
	addi 9,1,180
	stw 7,72(1)
	.loc 2 105 0
	lwz 8,176(1)
	.loc 2 110 0
	lfd 11,72(1)
	.loc 2 105 0
	rlwinm 8,8,0,0xffff
.LVL30:
	.loc 2 110 0
	fsub 13,11,13
	fmul 0,13,0
	fctiwz 0,0
	stfiwx 0,0,9
	mr 9,5
	lwz 10,180(1)
	rlwinm 10,10,0,0xffff
.LVL31:
	ble- 7,.L50
	li 9,1023
.L50:
	cmplwi 7,8,1023
	.loc 2 116 0
	slwi 7,9,22
	mr 9,8
	ble- 7,.L51
	li 9,1023
.L51:
	rlwinm 9,9,12,4,19
	cmplwi 7,10,1023
	or 8,7,9
.LVL32:
	lbz 7,3(6)
	mr 9,10
	srwi 7,7,6
	or 8,8,7
	ble- 7,.L52
	li 9,1023
.L52:
	rlwinm 9,9,2,14,29
	or 9,8,9
	b .L84
.LVL33:
.L48:
.LBE75:
.LBE74:
.LBB76:
.LBB77:
	.loc 2 123 0
	rlwinm 8,8,0,0xff
	lis 7,0x4330
	xoris 8,8,0x8000
	stw 7,80(1)
	stw 8,84(1)
	lis 6,.LC11@ha
.LVL34:
	lfs 13,.LC11@l(6)
	lis 8,.LC12@ha
	lfd 0,80(1)
	.loc 2 128 0
	rlwinm 10,10,0,0xff
	xoris 10,10,0x8000
	.loc 2 133 0
	rlwinm 9,9,0,0xff
	.loc 2 123 0
	fsub 12,0,13
	lfd 0,.LC12@l(8)
	addi 8,1,160
	.loc 2 133 0
	xoris 9,9,0x8000
	.loc 2 123 0
	fmul 12,12,0
	fctiwz 12,12
	stfiwx 12,0,8
	.loc 2 128 0
	stw 10,92(1)
	addi 10,1,164
	stw 7,88(1)
	.loc 2 123 0
	lwz 8,160(1)
	.loc 2 128 0
	lfd 11,88(1)
	.loc 2 123 0
	rlwinm 8,8,0,0xffff
.LVL35:
	.loc 2 128 0
	fsub 12,11,13
	fmul 12,12,0
	fctiwz 12,12
	stfiwx 12,0,10
	.loc 2 133 0
	stw 9,100(1)
	addi 9,1,168
	stw 7,96(1)
	.loc 2 128 0
	lwz 6,164(1)
	.loc 2 133 0
	lfd 11,96(1)
	.loc 2 128 0
	rlwinm 6,6,0,0xffff
.LVL36:
	.loc 2 133 0
	fsub 13,11,13
	fmul 0,13,0
	fctiwz 0,0
	stfiwx 0,0,9
	lwz 9,168(1)
	rlwinm 9,9,0,0xffff
.LVL37:
	cmplwi 7,9,1023
	mr 10,9
	ble- 7,.L53
	li 10,1023
.L53:
	cmplwi 7,6,1023
	.loc 2 139 0
	slwi 7,10,20
	mr 10,6
	ble- 7,.L54
	li 10,1023
.L54:
	cmplwi 7,8,1023
	rlwinm 9,10,10,6,21
.LVL38:
	or 10,7,9
	mr 9,8
	ble- 7,.L55
	li 9,1023
.L55:
	rlwinm 9,9,0,0xffff
.LVL39:
.L83:
	or 9,10,9
.LVL40:
.L84:
	stw 9,0(30)
	b .L22
.LVL41:
.L32:
.LBE77:
.LBE76:
	.loc 2 291 0
	lis 31,put_BYTE@ha
	la 31,put_BYTE@l(31)
	.loc 2 292 0
	b .L30
.LVL42:
.L34:
	.loc 2 294 0
	lis 31,put_USHORT@ha
	la 31,put_USHORT@l(31)
	.loc 2 295 0
	b .L30
.LVL43:
.L33:
	.loc 2 297 0
	lis 31,put_SHORT@ha
	la 31,put_SHORT@l(31)
	.loc 2 298 0
	b .L30
.LVL44:
.L36:
	.loc 2 300 0
	lis 31,put_UINT@ha
	la 31,put_UINT@l(31)
	.loc 2 301 0
	b .L30
.LVL45:
.L28:
	.loc 2 303 0
	lis 31,put_INT@ha
	la 31,put_INT@l(31)
	.loc 2 304 0
	b .L30
.LVL46:
.L35:
	.loc 2 306 0
	lis 31,put_FLOAT@ha
	la 31,put_FLOAT@l(31)
	.loc 2 307 0
	b .L30
.LVL47:
.L69:
	.loc 2 288 0
	lis 31,put_UBYTE@ha
	la 31,put_UBYTE@l(31)
.LVL48:
.L30:
	.loc 2 318 0
	rlwinm 8,8,0,0xff
	lis 28,0x4330
	xoris 8,8,0x8000
	stw 28,104(1)
	stw 8,108(1)
	lis 7,.LC11@ha
	lfs 13,.LC11@l(7)
	lis 8,.LC3@ha
	lfd 0,104(1)
	.loc 2 319 0
	rlwinm 10,10,0,0xff
	xoris 10,10,0x8000
	stw 28,112(1)
	.loc 2 318 0
	fsub 12,0,13
	lfs 0,.LC3@l(8)
	.loc 2 319 0
	stw 10,116(1)
	.loc 2 320 0
	rlwinm 9,9,0,0xff
	xoris 9,9,0x8000
	stw 28,120(1)
	.loc 2 318 0
	frsp 12,12
	.loc 2 319 0
	lfd 11,112(1)
	.loc 2 320 0
	stw 9,124(1)
.LBB78:
.LBB79:
	.loc 1 369 0
	lis 27,Trans@ha
	la 27,Trans@l(27)
	addi 3,1,8
.LVL49:
.LBE79:
.LBE78:
	.loc 2 318 0
	fdivs 12,12,0
	.loc 2 321 0
	lbz 9,3(6)
	stw 28,128(1)
.LBB82:
.LBB80:
	.loc 1 369 0
	mr 4,27
.LVL50:
.LBE80:
.LBE82:
	.loc 2 321 0
	xoris 9,9,0x8000
	stw 9,132(1)
	.loc 2 318 0
	stfs 12,8(1)
	.loc 2 319 0
	fsub 12,11,13
	.loc 2 320 0
	lfd 11,120(1)
	.loc 2 319 0
	frsp 12,12
	fdivs 12,12,0
	stfs 12,12(1)
	.loc 2 320 0
	fsub 12,11,13
	frsp 12,12
	fdivs 12,12,0
	stfs 12,16(1)
	.loc 2 321 0
	lfd 12,128(1)
	fsub 13,12,13
	frsp 13,13
	fdivs 0,13,0
	stfs 0,20(1)
.LVL51:
.LBB83:
.LBB81:
	.loc 1 369 0
	bl TransformC
.LVL52:
	.loc 1 370 0
	addi 3,1,12
.LVL53:
	addi 4,27,8
	bl TransformC
.LVL54:
	.loc 1 371 0
	addi 3,1,16
.LVL55:
	addi 4,27,16
	bl TransformC
.LVL56:
	.loc 1 372 0
	addi 3,1,20
.LVL57:
	addi 4,27,24
	bl TransformC
.LVL58:
.LBE81:
.LBE83:
	.loc 2 325 0
	cmplwi 7,29,6407
	beq- 7,.L57
	bgt- 7,.L58
	cmplwi 7,29,6404
	beq- 7,.L59
	bgt+ 7,.L60
	cmplwi 7,29,6403
	bne- 7,.L22
	mr 3,1
.LBB84:
.LBB85:
	.loc 2 182 0
	lfs 1,8(1)
	stwu 30,52(3)
.LVL59:
	b .L78
.LVL60:
.L60:
.LBE85:
.LBE84:
	.loc 2 325 0
	cmplwi 7,29,6405
	beq- 7,.L62
	cmplwi 7,29,6406
	bne- 7,.L22
	mr 3,1
	stwu 30,40(3)
.LVL61:
	b .L79
.LVL62:
.L58:
	cmplwi 7,29,6410
	beq- 7,.L64
	bgt- 7,.L65
	cmplwi 7,29,6408
	beq- 7,.L66
	cmplwi 7,29,6409
	bne- 7,.L22
.LBB86:
.LBB87:
.LBB88:
.LBB89:
	.loc 2 211 0
	lfs 13,8(1)
	lis 9,.LC13@ha
	lfs 0,12(1)
	mr 3,1
	addi 8,1,156
	stwu 30,28(3)
.LVL63:
	fadds 0,13,0
.LVL64:
	lfs 13,16(1)
.LVL65:
	fadds 0,0,13
	lfs 13,.LC13@l(9)
	fdivs 0,0,13
	fctiwz 0,0
	stfiwx 0,0,8
.LBE89:
.LBE88:
	.loc 2 215 0
	stw 28,136(1)
.LBB91:
.LBB90:
	.loc 2 211 0
	lwz 9,156(1)
.LBE90:
.LBE91:
	.loc 2 215 0
	rlwinm 9,9,0,0xff
	stw 9,140(1)
	lis 9,.LC15@ha
	lfs 1,.LC15@l(9)
	lfd 0,136(1)
	fsub 1,0,1
	frsp 1,1
	b .L78
.LVL66:
.L65:
.LBE87:
.LBE86:
	.loc 2 325 0
	xoris 9,29,0xffff
	cmpwi 7,9,-32544
	beq 7,.L57
	xoris 9,29,0xffff
	cmpwi 7,9,-32543
	beq 7,.L66
	b .L22
.L59:
	mr 3,1
.LBB92:
.LBB93:
	.loc 2 186 0
	lfs 1,12(1)
	stwu 30,48(3)
.LVL67:
	b .L78
.LVL68:
.L62:
	mr 3,1
	stwu 30,44(3)
.LVL69:
	b .L85
.LVL70:
.L57:
	mr 29,1
.LVL71:
.LBE93:
.LBE92:
.LBB94:
.LBB95:
	.loc 2 198 0
	lfs 1,8(1)
	stwu 30,36(29)
.LVL72:
	mtctr 31
	mr 3,29
	bctrl
.LVL73:
	.loc 2 199 0
	mr 3,29
	lfs 1,12(1)
	mtctr 31
	bctrl
.LVL74:
	.loc 2 200 0
	mr 3,29
.LVL75:
.L85:
	lfs 1,16(1)
	b .L78
.LVL76:
.L66:
	mr 29,1
.LVL77:
.LBE95:
.LBE94:
.LBB96:
.LBB97:
	.loc 2 204 0
	lfs 1,8(1)
	stwu 30,32(29)
.LVL78:
	mtctr 31
	mr 3,29
	bctrl
.LVL79:
	.loc 2 205 0
	mr 3,29
	lfs 1,12(1)
	mtctr 31
	bctrl
.LVL80:
	.loc 2 206 0
	mr 3,29
	lfs 1,16(1)
	b .L77
.LVL81:
.L64:
.LBE97:
.LBE96:
.LBB98:
.LBB99:
.LBB100:
.LBB101:
	.loc 2 211 0
	lfs 13,8(1)
	lis 9,.LC13@ha
	lfs 0,12(1)
	mr 29,1
.LVL82:
	addi 8,1,152
	stwu 30,24(29)
.LVL83:
	fadds 0,13,0
.LVL84:
	lfs 13,16(1)
.LVL85:
.LBE101:
.LBE100:
	.loc 2 219 0
	mr 3,29
.LBB104:
.LBB102:
	.loc 2 211 0
	fadds 0,0,13
	lfs 13,.LC13@l(9)
	fdivs 0,0,13
	fctiwz 0,0
	stfiwx 0,0,8
.LBE102:
.LBE104:
	.loc 2 219 0
	stw 28,144(1)
.LBB105:
.LBB103:
	.loc 2 211 0
	lwz 9,152(1)
.LBE103:
.LBE105:
	.loc 2 219 0
	rlwinm 9,9,0,0xff
	stw 9,148(1)
	lis 9,.LC15@ha
	lfs 1,.LC15@l(9)
	lfd 0,144(1)
	fsub 1,0,1
	frsp 1,1
.LVL86:
.L77:
	mtctr 31
	bctrl
.LVL87:
	.loc 2 220 0
	mr 3,29
.L79:
	lfs 1,20(1)
.L78:
	mtctr 31
	bctrl
.LVL88:
.L22:
.LBE99:
.LBE98:
	.loc 2 360 0
	addi 11,1,208
	b _restgpr_27_x
	.cfi_restore 31
	.cfi_restore 30
	.cfi_restore 29
	.cfi_restore 28
	.cfi_restore 27
	.cfi_restore 65
	.cfi_endproc
.LFE93:
	.size	write_rgb, .-write_rgb
	.align 2
	.type	YCbCr2RGB, @function
YCbCr2RGB:
.LFB95:
	.loc 2 379 0
	.cfi_startproc
.LVL89:
	.loc 2 380 0
	lis 9,.LC16@ha
	lis 8,.LC19@ha
	lfd 0,.LC16@l(9)
	lis 9,.LC17@ha
	lfd 13,.LC17@l(9)
	lis 9,.LC20@ha
	fmul 1,1,0
.LVL90:
	lfs 12,.LC19@l(8)
	lfd 0,.LC20@l(9)
.LBB112:
.LBB113:
	.loc 2 364 0
	lis 10,.LC3@ha
.LBE113:
.LBE112:
	.loc 2 379 0
	stwu 1,-24(1)
	.cfi_def_cfa_offset 24
.LBB117:
.LBB114:
	.loc 2 366 0
	li 9,255
.LBE114:
.LBE117:
	.loc 2 380 0
	fmadd 13,3,13,1
	fmadd 13,13,12,0
.LBB118:
.LBB115:
	.loc 2 364 0
	lfs 0,.LC3@l(10)
.LBE115:
.LBE118:
	.loc 2 380 0
	frsp 13,13
.LVL91:
.LBB119:
.LBB116:
	.loc 2 364 0
	fcmpu 7,13,0
	bgt+ 7,.L87
	.loc 2 368 0
	lis 9,.LC1@ha
	lfs 0,.LC1@l(9)
	fcmpu 7,13,0
	blt- 7,.L91
	.loc 2 374 0
	fctiwz 13,13
.LVL92:
	addi 9,1,16
	stfiwx 13,0,9
	lwz 9,16(1)
	rlwinm 9,9,0,0xff
	b .L87
.LVL93:
.L91:
	.loc 2 370 0
	li 9,0
.LVL94:
.L87:
.LBE116:
.LBE119:
	.loc 2 380 0
	stb 9,0(3)
	fneg 13,2
	.loc 2 381 0
	lis 9,.LC21@ha
	fneg 3,3
.LVL95:
	lfd 0,.LC21@l(9)
	lis 9,.LC22@ha
	lfs 12,.LC19@l(8)
	fmadd 13,13,0,1
	lfd 0,.LC22@l(9)
	lis 9,.LC23@ha
	fmadd 0,3,0,13
	lfd 13,.LC23@l(9)
.LBB120:
.LBB121:
	.loc 2 366 0
	li 9,255
.LBE121:
.LBE120:
	.loc 2 381 0
	fmadd 0,0,12,13
.LBB124:
.LBB122:
	.loc 2 364 0
	lfs 13,.LC3@l(10)
.LBE122:
.LBE124:
	.loc 2 381 0
	frsp 0,0
.LVL96:
.LBB125:
.LBB123:
	.loc 2 364 0
	fcmpu 7,0,13
	bgt+ 7,.L88
	.loc 2 368 0
	lis 9,.LC1@ha
	lfs 13,.LC1@l(9)
	fcmpu 7,0,13
	blt- 7,.L93
	.loc 2 374 0
	fctiwz 0,0
.LVL97:
	addi 9,1,12
	stfiwx 0,0,9
	lwz 9,12(1)
	rlwinm 9,9,0,0xff
	b .L88
.LVL98:
.L93:
	.loc 2 370 0
	li 9,0
.LVL99:
.L88:
.LBE123:
.LBE125:
	.loc 2 381 0
	stb 9,1(3)
	.loc 2 382 0
	lis 9,.LC24@ha
	lfd 0,.LC24@l(9)
	lis 9,.LC25@ha
	lfs 13,.LC19@l(8)
	fmadd 1,2,0,1
.LVL100:
	lfd 0,.LC25@l(9)
.LBB126:
.LBB127:
	.loc 2 366 0
	li 9,255
.LBE127:
.LBE126:
	.loc 2 382 0
	fmadd 1,1,13,0
.LBB130:
.LBB128:
	.loc 2 364 0
	lfs 0,.LC3@l(10)
.LBE128:
.LBE130:
	.loc 2 382 0
	frsp 1,1
.LVL101:
.LBB131:
.LBB129:
	.loc 2 364 0
	fcmpu 7,1,0
	bgt+ 7,.L89
	.loc 2 368 0
	lis 9,.LC1@ha
	lfs 0,.LC1@l(9)
	fcmpu 7,1,0
	blt- 7,.L95
	.loc 2 374 0
	fctiwz 1,1
.LVL102:
	addi 9,1,8
	stfiwx 1,0,9
	lwz 9,8(1)
	rlwinm 9,9,0,0xff
	b .L89
.LVL103:
.L95:
	.loc 2 370 0
	li 9,0
.LVL104:
.L89:
.LBE129:
.LBE131:
	.loc 2 383 0
	.loc 2 382 0
	stb 9,2(3)
	.loc 2 383 0
	addi 1,1,24
	.cfi_def_cfa_offset 0
	blr
	.cfi_endproc
.LFE95:
	.size	YCbCr2RGB, .-YCbCr2RGB
	.align 2
	.globl glReadBuffer
	.type	glReadBuffer, @function
glReadBuffer:
.LFB64:
	.loc 2 6 0
	.cfi_startproc
.LVL105:
	.loc 2 7 0
	lis 9,cur_state@ha
	lwz 9,cur_state@l(9)
	andi. 10,9,1
	beq+ 0,.L98
	.loc 2 7 0 is_stmt 0 discriminator 1
	lis 4,.LC26@ha
	li 3,1282
.LVL106:
	la 4,.LC26@l(4)
	li 5,7
	b .L103
.LVL107:
.L98:
	addi 3,3,-1024
.LVL108:
	cmplwi 7,3,6
	bgt- 7,.L99
	li 9,1
	slw 3,9,3
.LVL109:
	andi. 9,3,81
	bne- 0,.L100
	andi. 10,3,36
	beq+ 0,.L99
	.loc 2 18 0 is_stmt 1
	li 10,1029
	b .L104
.L100:
	.loc 2 14 0
	li 10,1028
.L104:
	.loc 2 18 0
	lis 9,read_mode@ha
	stw 10,read_mode@l(9)
	.loc 2 19 0
	blr
.L99:
	.loc 2 21 0
	lis 4,.LC26@ha
	li 3,1282
	la 4,.LC26@l(4)
	li 5,21
.L103:
	.loc 2 24 0
	.loc 2 21 0
	b _glSetErrorEx
.LVL110:
	.cfi_endproc
.LFE64:
	.size	glReadBuffer, .-glReadBuffer
	.align 2
	.globl glReadPixels
	.type	glReadPixels, @function
glReadPixels:
.LFB96:
	.loc 2 389 0
	.cfi_startproc
.LVL111:
	stwu 1,-168(1)
	.cfi_def_cfa_offset 168
	mfcr 12
	mflr 0
	stmw 14,96(1)
	.cfi_register 70, 12
	.cfi_register 65, 0
	.cfi_offset 14, -72
	.cfi_offset 15, -68
	.cfi_offset 16, -64
	.cfi_offset 17, -60
	.cfi_offset 18, -56
	.cfi_offset 19, -52
	.cfi_offset 20, -48
	.cfi_offset 21, -44
	.cfi_offset 22, -40
	.cfi_offset 23, -36
	.cfi_offset 24, -32
	.cfi_offset 25, -28
	.cfi_offset 26, -24
	.cfi_offset 27, -20
	.cfi_offset 28, -16
	.cfi_offset 29, -12
	.cfi_offset 30, -8
	.cfi_offset 31, -4
	mr 20,9
	.loc 2 390 0
	lis 9,cur_state@ha
.LVL112:
	.loc 2 389 0
	stw 12,92(1)
	.loc 2 390 0
	lwz 9,cur_state@l(9)
	.loc 2 389 0
	stw 0,172(1)
	.cfi_offset 70, -76
	.cfi_offset 65, 4
	.loc 2 390 0
	andi. 10,9,1
	beq+ 0,.L106
	.loc 2 390 0 is_stmt 0 discriminator 1
	lis 4,.LC26@ha
.LVL113:
	li 3,1282
.LVL114:
	la 4,.LC26@l(4)
	li 5,390
.LVL115:
	b .L133
.LVL116:
.L106:
	.loc 2 392 0 is_stmt 1
	cmpwi 7,5,0
	mr 24,5
	blt- 7,.L108
	.loc 2 392 0 is_stmt 0 discriminator 1
	cmpwi 7,6,0
	mr 23,6
	bge+ 7,.L109
.L108:
	.loc 2 394 0 is_stmt 1
	lis 4,.LC26@ha
.LVL117:
	li 3,1281
.LVL118:
	la 4,.LC26@l(4)
	li 5,394
.LVL119:
.L133:
	bl _glSetErrorEx
.LVL120:
	.loc 2 395 0
	b .L105
.LVL121:
.L109:
	.loc 2 399 0
	cmplwi 7,7,6403
	mr 29,7
	blt- 7,.L110
	cmplwi 7,7,6410
	mr 25,3
	mr 21,4
	mr 31,8
	ble- 7,.L111
	addis 9,7,0xffff
	addi 9,9,32544
	cmplwi 7,9,1
	ble+ 7,.L111
.L110:
	.loc 2 416 0
	lis 4,.LC26@ha
.LVL122:
	li 3,1280
.LVL123:
	la 4,.LC26@l(4)
	li 5,416
.LVL124:
	b .L133
.LVL125:
.L111:
	.loc 2 422 0
	cmplwi 7,31,32822
	bgt- 7,.L113
	cmplwi 7,31,32818
	addi 9,31,-5120
	blt+ 7,.L132
	b .L114
.L113:
	addis 9,31,0xffff
	addi 9,9,31902
.L132:
	cmplwi 7,9,6
	ble+ 7,.L114
	.loc 2 446 0
	lis 4,.LC26@ha
.LVL126:
	li 3,1280
.LVL127:
	la 4,.LC26@l(4)
	li 5,446
.LVL128:
	b .L133
.LVL129:
.L114:
	.loc 2 453 0
	lis 9,read_mode@ha
	lwz 9,read_mode@l(9)
	cmplwi 7,9,1028
	beq- 7,.L115
	cmplwi 7,9,1029
	bne- 7,.L105
	.loc 2 461 0
	bl getBackFramebuffer
.LVL130:
	.loc 2 462 0
	li 4,0
	.loc 2 461 0
	mr 26,3
.LVL131:
	.loc 2 462 0
	bl GX_CopyDisp
.LVL132:
	.loc 2 463 0
	bl GX_DrawDone
.LVL133:
	b .L117
.LVL134:
.L115:
	.loc 2 457 0
	bl getFrontFramebuffer
.LVL135:
	mr 26,3
.LVL136:
.L117:
	.loc 2 466 0
	cmpwi 7,26,0
	beq- 7,.L105
	.loc 2 474 0
	addi 3,1,16
	addi 4,1,12
	bl getVImode
.LVL137:
	.loc 2 478 0
	lwz 28,12(1)
.LBB132:
	.loc 2 514 0
	lis 16,pack@ha
	.loc 2 489 0
	add 14,21,23
.LBE132:
	.loc 2 478 0
	addi 28,28,-1
.LVL138:
.LBB133:
	.loc 2 489 0
	add 19,25,24
	.loc 2 512 0
	lis 27,0x4330
	lis 18,.LC15@ha
	.loc 2 513 0
	li 17,-1
	.loc 2 514 0
	la 16,pack@l(16)
.L119:
.LBE133:
	.loc 2 478 0 discriminator 1
	cmpwi 7,28,0
	blt- 7,.L105
	.loc 2 480 0
	cmpw 7,28,21
	blt- 7,.L105
.LBB134:
	.loc 2 489 0
	cmpw 4,28,14
.LBE134:
	.loc 2 480 0
	li 30,0
	subf 15,21,28
.L121:
.LVL139:
	.loc 2 485 0 discriminator 1
	lwz 9,16(1)
	cmplw 7,30,9
	bge- 7,.L134
.LBB135:
	.loc 2 487 0
	addi 26,26,4
.LVL140:
	lwz 11,-4(26)
.LVL141:
	.loc 2 489 0
	bgt- 4,.L124
	.loc 2 489 0 is_stmt 0 discriminator 1
	addi 22,30,1
	cmpw 7,22,25
	blt- 7,.L124
	cmpw 7,30,19
	bgt- 7,.L124
.LVL142:
	.loc 2 501 0 is_stmt 1
	cmpw 7,30,25
	.loc 2 495 0
	rlwinm 12,11,16,24,31
.LVL143:
	.loc 2 497 0
	rlwinm 0,11,0,0xff
.LVL144:
	.loc 2 501 0
	blt+ 7,.L125
	.loc 2 503 0
	srwi 9,11,24
.LVL145:
	stw 27,24(1)
	stw 9,28(1)
	addi 3,1,8
	stw 12,36(1)
	lfs 3,.LC15@l(18)
	lfd 0,24(1)
	stw 27,32(1)
	stw 0,44(1)
	fsub 1,0,3
	stw 27,40(1)
	lfd 0,32(1)
	frsp 1,1
	stw 0,80(1)
	fsub 2,0,3
	lfd 0,40(1)
	stw 11,72(1)
	fsub 3,0,3
	stw 12,76(1)
	frsp 2,2
	frsp 3,3
	bl YCbCr2RGB
.LVL146:
	.loc 2 505 0
	mr 4,20
	mr 5,31
	mr 6,24
	mr 7,23
	subf 8,25,30
	mr 9,15
	mr 10,16
	mr 3,29
	.loc 2 504 0
	stb 17,11(1)
	.loc 2 505 0
	bl pixel_offset
.LVL147:
	mr 4,29
	mr 5,31
	addi 6,1,8
	bl write_rgb
.LVL148:
	lwz 12,76(1)
	lwz 11,72(1)
	lwz 0,80(1)
.L125:
.LVL149:
	.loc 2 510 0
	cmpw 7,22,19
	bge+ 7,.L126
	.loc 2 512 0
	rlwinm 11,11,24,24,31
	stw 27,48(1)
	stw 11,52(1)
	addi 3,1,8
	lfs 3,.LC15@l(18)
	lfd 0,48(1)
	stw 12,60(1)
	stw 27,56(1)
	fsub 1,0,3
	stw 0,68(1)
	lfd 0,56(1)
	stw 27,64(1)
	frsp 1,1
	fsub 2,0,3
	lfd 0,64(1)
	fsub 3,0,3
	frsp 2,2
	frsp 3,3
	bl YCbCr2RGB
.LVL150:
	.loc 2 514 0
	mr 4,20
	mr 5,31
	mr 6,24
	mr 3,29
	mr 7,23
	subf 8,25,22
	mr 9,15
	mr 10,16
	.loc 2 513 0
	stb 17,11(1)
	.loc 2 514 0
	bl pixel_offset
.LVL151:
	mr 4,29
	mr 5,31
	addi 6,1,8
	bl write_rgb
.LVL152:
.L126:
	mr 30,22
.LVL153:
.L124:
.LBE135:
	.loc 2 485 0
	addi 30,30,1
.LVL154:
	b .L121
.L134:
	.loc 2 478 0
	addi 28,28,-1
.LVL155:
	b .L119
.LVL156:
.L105:
	.loc 2 518 0
	lwz 12,92(1)
	addi 11,1,168
	mtcrf 8,12
	b _restgpr_14_x
	.cfi_restore 31
	.cfi_restore 30
	.cfi_restore 29
	.cfi_restore 28
	.cfi_restore 27
	.cfi_restore 26
	.cfi_restore 25
	.cfi_restore 24
	.cfi_restore 23
	.cfi_restore 22
	.cfi_restore 21
	.cfi_restore 20
	.cfi_restore 19
	.cfi_restore 18
	.cfi_restore 17
	.cfi_restore 16
	.cfi_restore 15
	.cfi_restore 14
	.cfi_restore 65
	.cfi_restore 70
	.cfi_endproc
.LFE96:
	.size	glReadPixels, .-glReadPixels
	.align 2
	.globl glGetTexImage
	.type	glGetTexImage, @function
glGetTexImage:
.LFB97:
	.loc 2 523 0
	.cfi_startproc
.LVL157:
	.loc 2 524 0
	lis 9,cur_state@ha
	lwz 9,cur_state@l(9)
	andi. 10,9,1
	beqlr+ 0
	.loc 2 524 0 is_stmt 0 discriminator 1
	lis 4,.LC26@ha
.LVL158:
	li 3,1282
.LVL159:
	la 4,.LC26@l(4)
	li 5,524
.LVL160:
	.loc 2 525 0 is_stmt 1 discriminator 1
	.loc 2 524 0 discriminator 1
	b _glSetErrorEx
.LVL161:
	.cfi_endproc
.LFE97:
	.size	glGetTexImage, .-glGetTexImage
	.comm	call_offset,4,4
	.comm	read_mode,4,4
	.comm	glTexEnvs,864,4
	.comm	fog_color,4,1
	.comm	fog_density,4,4
	.comm	fog_endz,4,4
	.comm	fog_startz,4,4
	.comm	fog_mode,1,1
	.comm	fog_enable,1,1
	.comm	Trans,32,4
	.comm	_clearcolor,4,1
	.comm	copy_material,4,4
	.comm	copy_mat_enabled,1,1
	.comm	color_write_mask,4,4
	.comm	unpack,20,4
	.comm	pack,20,4
	.comm	point_size,4,4
	.comm	line_width,4,4
	.comm	normFar,4,4
	.comm	normNear,4,4
	.comm	viewPort,16,4
	.comm	scissorInfo,16,4
	.comm	scissor_test,1,1
	.comm	fb_max_width,4,4
	.comm	fb_max_height,4,4
	.comm	cur_state,4,4
	.comm	cull_mode,1,1
	.comm	blend_op,1,1
	.comm	blend_dst,1,1
	.comm	blend_src,1,1
	.comm	blend_type,1,1
	.comm	lighting,1,1
	.comm	gxwinding,4,4
	.comm	gxcullfaceanabled,1,1
	.comm	curmat,68,4
	.comm	globAmbient,16,4
	.comm	lights,1312,4
	.comm	cur_mode,4,4
	.comm	curmtx,4,4
	.comm	texture_stack,128,4
	.comm	projection_stack,16,4
	.comm	model_stack,16,4
	.comm	_cleardepth,4,4
	.comm	depthfunction,4,4
	.comm	depthupdate,1,1
	.comm	depthtestenabled,1,1
	.comm	cur_tex_client,4,4
	.comm	cur_tex,4,4
	.comm	_GLtype,4,4
	.comm	_type,4,4
	.comm	vert_i,4,4
	.comm	_colorelements,16000,32
	.comm	_texcoordelements,64000,32
	.comm	_vertexelements,12000,32
	.comm	_normalelements,12000,32
	.comm	color,20,4
	.comm	tex,160,4
	.comm	vert,20,4
	.comm	norm,20,4
	.comm	_temptexcoordelement,64,4
	.comm	_tempnormalelement,12,4
	.comm	_tempcolorelement,16,4
	.section	.rodata.cst4,"aM",@progbits,4
	.align 2
.LC0:
	.4byte	1065353216
.LC1:
	.4byte	0
.LC3:
	.4byte	1132396544
.LC5:
	.4byte	1123942400
.LC6:
	.4byte	1199570688
.LC7:
	.4byte	1191181824
.LC8:
	.4byte	1333788672
.LC9:
	.4byte	1325400064
.LC11:
	.4byte	1501560836
.LC13:
	.4byte	1077936128
.LC15:
	.4byte	1501560832
.LC19:
	.4byte	998244352
	.section	.rodata.cst8,"aM",@progbits,8
	.align 3
.LC12:
	.4byte	1074793484
	.4byte	202116108
.LC16:
	.4byte	1081254223
	.4byte	-549755814
.LC17:
	.4byte	1081706835
	.4byte	-137438953
.LC20:
	.4byte	-1066672776
	.4byte	-721554506
.LC21:
	.4byte	1079579295
	.4byte	-1099511628
.LC22:
	.4byte	1080689623
	.4byte	171798692
.LC23:
	.4byte	1080095342
	.4byte	-1752346657
.LC24:
	.4byte	1082139467
	.4byte	-962072674
.LC25:
	.4byte	-1066316448
	.4byte	1099511628
	.section	.rodata.str1.1,"aMS",@progbits,1
.LC26:
	.string	"D:/devkitPro/portlibs/thirdparty/gl2gx/libogc/../source/gl_outcopy.c"
	.section	".text"
.Letext0:
	.file 3 "D:/devkitPro/portlibs/thirdparty/gl2gx/libogc/include/GL/gl.h"
	.file 4 "d:\\devkitpro\\devkitppc\\lib\\gcc\\powerpc-eabi\\4.8.2\\include\\stddef.h"
	.file 5 "d:\\devkitpro\\devkitppc\\powerpc-eabi\\include\\stdint.h"
	.file 6 "D:\\devkitPro\\/libogc/include/gctypes.h"
	.file 7 "D:\\devkitPro\\/libogc/include/ogc/gu.h"
	.file 8 "D:\\devkitPro\\/libogc/include/ogc/gx.h"
	.file 9 "D:/devkitPro/portlibs/thirdparty/gl2gx/libogc/../source/include/mat_stack.h"