	.file	"gl_render.c"
	.section	".text"
.Ltext0:
	.cfi_sections	.debug_frame
	.align 2
	.type	scaleColorf2b, @function
scaleColorf2b:
.LFB65:
	.file 1 "D:/devkitPro/portlibs/thirdparty/gl2gx/libogc/../source/gl_render.c"
	.loc 1 21 0
	.cfi_startproc
.LVL0:
	.loc 1 22 0
	lbz 10,0(4)
	lis 9,0x4330
	.loc 1 21 0
	stwu 1,-56(1)
	.cfi_def_cfa_offset 56
	.loc 1 22 0
	lis 8,.LC1@ha
	xoris 10,10,0x8000
	lfs 0,.LC1@l(8)
	stw 10,12(1)
	addi 10,1,40
	stw 9,8(1)
	lfd 12,8(1)
	fsub 13,12,0
	lfs 12,0(3)
	frsp 13,13
	fmuls 13,13,12
	fctiwz 13,13
	stfiwx 13,0,10
	.loc 1 23 0
	stw 9,16(1)
	.loc 1 22 0
	lwz 10,40(1)
	stb 10,0(4)
	.loc 1 23 0
	lbz 10,1(4)
	xoris 10,10,0x8000
	stw 10,20(1)
	addi 10,1,44
	lfd 12,16(1)
	fsub 13,12,0
	lfs 12,4(3)
	frsp 13,13
	fmuls 13,13,12
	fctiwz 13,13
	stfiwx 13,0,10
	.loc 1 24 0
	stw 9,24(1)
	.loc 1 23 0
	lwz 10,44(1)
	stb 10,1(4)
	.loc 1 24 0
	lbz 10,2(4)
	xoris 10,10,0x8000
	stw 10,28(1)
	addi 10,1,48
	lfd 12,24(1)
	fsub 13,12,0
	lfs 12,8(3)
	frsp 13,13
	fmuls 13,13,12
	fctiwz 13,13
	stfiwx 13,0,10
	.loc 1 25 0
	stw 9,32(1)
	addi 9,1,52
	.loc 1 24 0
	lwz 10,48(1)
	stb 10,2(4)
	.loc 1 25 0
	lbz 10,3(4)
	lfs 13,12(3)
	xoris 10,10,0x8000
	stw 10,36(1)
	lfd 12,32(1)
	fsub 0,12,0
	frsp 0,0
	fmuls 0,0,13
	fctiwz 0,0
	stfiwx 0,0,9
	lwz 9,52(1)
	stb 9,3(4)
	.loc 1 26 0
	addi 1,1,56
	.cfi_def_cfa_offset 0
	blr
	.cfi_endproc
.LFE65:
	.size	scaleColorf2b, .-scaleColorf2b
	.align 2
	.type	Color_f2b, @function
Color_f2b:
.LFB67:
	.loc 1 37 0
	.cfi_startproc
.LVL1:
	.loc 1 38 0
	lis 9,.LC2@ha
	lfs 13,0(3)
	lfs 0,.LC2@l(9)
	.loc 1 37 0
	stwu 1,-24(1)
	.cfi_def_cfa_offset 24
	.loc 1 38 0
	fmuls 13,13,0
	addi 9,1,8
	fctiwz 13,13
	stfiwx 13,0,9
	lwz 9,8(1)
	stb 9,0(4)
	.loc 1 39 0
	addi 9,1,12
	lfs 13,4(3)
	fmuls 13,13,0
	fctiwz 13,13
	stfiwx 13,0,9
	lwz 9,12(1)
	stb 9,1(4)
	.loc 1 40 0
	addi 9,1,16
	lfs 13,8(3)
	fmuls 13,13,0
	fctiwz 13,13
	stfiwx 13,0,9
	lwz 9,16(1)
	stb 9,2(4)
	.loc 1 41 0
	addi 9,1,20
	lfs 13,12(3)
	fmuls 0,13,0
	fctiwz 0,0
	stfiwx 0,0,9
	lwz 9,20(1)
	.loc 1 42 0
	addi 1,1,24
	.cfi_def_cfa_offset 0
	.loc 1 41 0
	stb 9,3(4)
	.loc 1 42 0
	blr
	.cfi_endproc
.LFE67:
	.size	Color_f2b, .-Color_f2b
	.align 2
	.type	getElement, @function
getElement:
.LFB79:
	.loc 1 331 0
	.cfi_startproc
.LVL2:
	.loc 1 332 0
	cmplwi 7,3,5123
	beq- 7,.L7
	cmplwi 7,3,5125
	beq- 7,.L8
	cmplwi 7,3,5121
	bne+ 7,.L11
.LVL3:
.LBB1644:
	.loc 1 337 0
	lbzx 3,4,5
.LVL4:
	blr
.LVL5:
.L7:
.LBE1644:
.LBB1645:
	.loc 1 342 0
	slwi 5,5,1
.LVL6:
	lhzx 3,4,5
.LVL7:
	blr
.LVL8:
.L8:
.LBE1645:
.LBB1646:
	.loc 1 347 0
	slwi 5,5,2
.LVL9:
	lwzx 3,4,5
.LVL10:
	blr
.LVL11:
.L11:
.LBE1646:
	.loc 1 350 0
	li 3,0
.LVL12:
	.loc 1 352 0
	blr
	.cfi_endproc
.LFE79:
	.size	getElement, .-getElement
	.align 2
	.type	UploadVertexPT0_Array, @function
UploadVertexPT0_Array:
.LFB82:
	.loc 1 567 0
	.cfi_startproc
.LVL13:
.LBB1647:
.LBB1648:
	.file 2 "D:\\devkitPro\\/libogc/include/ogc/gx.h"
	.loc 2 2193 0
	lis 9,wgPipe@ha
.LBE1648:
.LBE1647:
	.loc 1 567 0
	rlwinm 3,3,0,0xffff
.LVL14:
.LBB1651:
.LBB1649:
	.loc 2 2193 0
	lwz 9,wgPipe@l(9)
.LBE1649:
.LBE1651:
	.loc 1 567 0
	lis 8,_tempcolorelement@ha
	stwu 1,-24(1)
	.cfi_def_cfa_offset 24
	.loc 1 567 0
	la 10,_tempcolorelement@l(8)
.LBB1652:
.LBB1650:
	.loc 2 2193 0
	sth 3,0(9)
.LVL15:
.LBE1650:
.LBE1652:
	.loc 1 567 0
	lfs 13,_tempcolorelement@l(8)
	lis 8,.LC2@ha
	lfs 0,.LC2@l(8)
	addi 8,1,8
	fmuls 13,13,0
	fctiwz 13,13
	stfiwx 13,0,8
	addi 8,1,12
	lfs 13,4(10)
	lwz 6,8(1)
	fmuls 13,13,0
	rlwinm 6,6,0,0xff
	fctiwz 13,13
	stfiwx 13,0,8
	addi 8,1,16
	lfs 13,8(10)
	lwz 7,12(1)
	fmuls 13,13,0
	rlwinm 7,7,0,0xff
	fctiwz 13,13
	stfiwx 13,0,8
	lfs 13,12(10)
	addi 10,1,20
	lwz 8,16(1)
	fmuls 0,13,0
	rlwinm 8,8,0,0xff
	fctiwz 0,0
	stfiwx 0,0,10
	lwz 10,20(1)
.LBB1653:
.LBB1654:
	.loc 2 2229 0
	stb 6,0(9)
.LBE1654:
.LBE1653:
	.loc 1 567 0
	rlwinm 10,10,0,0xff
.LVL16:
.LBB1656:
.LBB1655:
	.loc 2 2230 0
	stb 7,0(9)
	.loc 2 2231 0
	stb 8,0(9)
	.loc 2 2232 0
	stb 10,0(9)
.LBE1655:
.LBE1656:
	.loc 1 567 0
	addi 1,1,24
	.cfi_def_cfa_offset 0
	blr
	.cfi_endproc
.LFE82:
	.size	UploadVertexPT0_Array, .-UploadVertexPT0_Array
	.align 2
	.type	UploadVertexPT1_Array, @function
UploadVertexPT1_Array:
.LFB83:
	.loc 1 567 0
	.cfi_startproc
.LVL17:
.LBB1657:
.LBB1658:
	.loc 2 2193 0
	lis 9,wgPipe@ha
.LBE1658:
.LBE1657:
	.loc 1 567 0
	rlwinm 3,3,0,0xffff
.LVL18:
.LBB1661:
.LBB1659:
	.loc 2 2193 0
	lwz 9,wgPipe@l(9)
.LBE1659:
.LBE1661:
	.loc 1 567 0
	lis 8,_tempcolorelement@ha
	stwu 1,-24(1)
	.cfi_def_cfa_offset 24
	.loc 1 567 0
	la 10,_tempcolorelement@l(8)
.LBB1662:
.LBB1660:
	.loc 2 2193 0
	sth 3,0(9)
.LVL19:
.LBE1660:
.LBE1662:
	.loc 1 567 0
	lfs 13,_tempcolorelement@l(8)
	lis 8,.LC2@ha
	lfs 0,.LC2@l(8)
	addi 8,1,8
	fmuls 13,13,0
	fctiwz 13,13
	stfiwx 13,0,8
	addi 8,1,12
	lfs 13,4(10)
	lwz 6,8(1)
	fmuls 13,13,0
	rlwinm 6,6,0,0xff
	fctiwz 13,13
	stfiwx 13,0,8
	addi 8,1,16
	lfs 13,8(10)
	lwz 7,12(1)
	fmuls 13,13,0
	rlwinm 7,7,0,0xff
	fctiwz 13,13
	stfiwx 13,0,8
	lfs 13,12(10)
	addi 10,1,20
	lwz 8,16(1)
	fmuls 0,13,0
	rlwinm 8,8,0,0xff
	fctiwz 0,0
	stfiwx 0,0,10
	lwz 10,20(1)
.LBB1663:
.LBB1664:
	.loc 2 2229 0
	stb 6,0(9)
.LBE1664:
.LBE1663:
	.loc 1 567 0
	rlwinm 10,10,0,0xff
.LVL20:
.LBB1666:
.LBB1665:
	.loc 2 2230 0
	stb 7,0(9)
	.loc 2 2231 0
	stb 8,0(9)
	.loc 2 2232 0
	stb 10,0(9)
.LVL21:
.LBE1665:
.LBE1666:
.LBB1667:
.LBB1668:
	.loc 2 2331 0
	sth 3,0(9)
.LBE1668:
.LBE1667:
	.loc 1 567 0
	addi 1,1,24
	.cfi_def_cfa_offset 0
	blr
	.cfi_endproc
.LFE83:
	.size	UploadVertexPT1_Array, .-UploadVertexPT1_Array
	.section	.text.unlikely,"ax",@progbits
	.align 2
	.type	UploadVertexPT2_Array, @function
UploadVertexPT2_Array:
.LFB84:
	.loc 1 567 0
	.cfi_startproc
.LVL22:
.LBB1669:
.LBB1670:
	.loc 2 2193 0
	lis 9,wgPipe@ha
.LBE1670:
.LBE1669:
	.loc 1 567 0
	rlwinm 3,3,0,0xffff
.LVL23:
.LBB1673:
.LBB1671:
	.loc 2 2193 0
	lwz 9,wgPipe@l(9)
.LBE1671:
.LBE1673:
	.loc 1 567 0
	lis 8,_tempcolorelement@ha
	stwu 1,-24(1)
	.cfi_def_cfa_offset 24
	.loc 1 567 0
	la 10,_tempcolorelement@l(8)
.LBB1674:
.LBB1672:
	.loc 2 2193 0
	sth 3,0(9)
.LVL24:
.LBE1672:
.LBE1674:
	.loc 1 567 0
	lfs 13,_tempcolorelement@l(8)
	lis 8,.LC2@ha
	lfs 0,.LC2@l(8)
	addi 8,1,8
	fmuls 13,13,0
	fctiwz 13,13
	stfiwx 13,0,8
	addi 8,1,12
	lfs 13,4(10)
	lwz 6,8(1)
	fmuls 13,13,0
	rlwinm 6,6,0,0xff
	fctiwz 13,13
	stfiwx 13,0,8
	addi 8,1,16
	lfs 13,8(10)
	lwz 7,12(1)
	fmuls 13,13,0
	rlwinm 7,7,0,0xff
	fctiwz 13,13
	stfiwx 13,0,8
	lfs 13,12(10)
	addi 10,1,20
	lwz 8,16(1)
	fmuls 0,13,0
	rlwinm 8,8,0,0xff
	fctiwz 0,0
	stfiwx 0,0,10
	lwz 10,20(1)
.LBB1675:
.LBB1676:
	.loc 2 2229 0
	stb 6,0(9)
.LBE1676:
.LBE1675:
	.loc 1 567 0
	rlwinm 10,10,0,0xff
.LVL25:
.LBB1678:
.LBB1677:
	.loc 2 2230 0
	stb 7,0(9)
	.loc 2 2231 0
	stb 8,0(9)
	.loc 2 2232 0
	stb 10,0(9)
.LVL26:
.LBE1677:
.LBE1678:
.LBB1679:
.LBB1680:
	.loc 2 2331 0
	sth 3,0(9)
.LVL27:
.LBE1680:
.LBE1679:
.LBB1681:
.LBB1682:
	sth 3,0(9)
.LBE1682:
.LBE1681:
	.loc 1 567 0
	addi 1,1,24
	.cfi_def_cfa_offset 0
	blr
	.cfi_endproc
.LFE84:
	.size	UploadVertexPT2_Array, .-UploadVertexPT2_Array
	.align 2
	.type	UploadVertexPT3_Array, @function
UploadVertexPT3_Array:
.LFB85:
	.loc 1 567 0
	.cfi_startproc
.LVL28:
.LBB1683:
.LBB1684:
	.loc 2 2193 0
	lis 9,wgPipe@ha
.LBE1684:
.LBE1683:
	.loc 1 567 0
	rlwinm 3,3,0,0xffff
.LVL29:
.LBB1687:
.LBB1685:
	.loc 2 2193 0
	lwz 9,wgPipe@l(9)
.LBE1685:
.LBE1687:
	.loc 1 567 0
	lis 8,_tempcolorelement@ha
	stwu 1,-24(1)
	.cfi_def_cfa_offset 24
	.loc 1 567 0
	la 10,_tempcolorelement@l(8)
.LBB1688:
.LBB1686:
	.loc 2 2193 0
	sth 3,0(9)
.LVL30:
.LBE1686:
.LBE1688:
	.loc 1 567 0
	lfs 13,_tempcolorelement@l(8)
	lis 8,.LC2@ha
	lfs 0,.LC2@l(8)
	addi 8,1,8
	fmuls 13,13,0
	fctiwz 13,13
	stfiwx 13,0,8
	addi 8,1,12
	lfs 13,4(10)
	lwz 6,8(1)
	fmuls 13,13,0
	rlwinm 6,6,0,0xff
	fctiwz 13,13
	stfiwx 13,0,8
	addi 8,1,16
	lfs 13,8(10)
	lwz 7,12(1)
	fmuls 13,13,0
	rlwinm 7,7,0,0xff
	fctiwz 13,13
	stfiwx 13,0,8
	lfs 13,12(10)
	addi 10,1,20
	lwz 8,16(1)
	fmuls 0,13,0
	rlwinm 8,8,0,0xff
	fctiwz 0,0
	stfiwx 0,0,10
	lwz 10,20(1)
.LBB1689:
.LBB1690:
	.loc 2 2229 0
	stb 6,0(9)
.LBE1690:
.LBE1689:
	.loc 1 567 0
	rlwinm 10,10,0,0xff
.LVL31:
.LBB1692:
.LBB1691:
	.loc 2 2230 0
	stb 7,0(9)
	.loc 2 2231 0
	stb 8,0(9)
	.loc 2 2232 0
	stb 10,0(9)
.LVL32:
.LBE1691:
.LBE1692:
.LBB1693:
.LBB1694:
	.loc 2 2331 0
	sth 3,0(9)
.LVL33:
.LBE1694:
.LBE1693:
.LBB1695:
.LBB1696:
	sth 3,0(9)
.LVL34:
.LBE1696:
.LBE1695:
.LBB1697:
.LBB1698:
	sth 3,0(9)
.LBE1698:
.LBE1697:
	.loc 1 567 0
	addi 1,1,24
	.cfi_def_cfa_offset 0
	blr
	.cfi_endproc
.LFE85:
	.size	UploadVertexPT3_Array, .-UploadVertexPT3_Array
	.align 2
	.type	UploadVertexPT4_Array, @function
UploadVertexPT4_Array:
.LFB86:
	.loc 1 567 0
	.cfi_startproc
.LVL35:
.LBB1699:
.LBB1700:
	.loc 2 2193 0
	lis 9,wgPipe@ha
.LBE1700:
.LBE1699:
	.loc 1 567 0
	rlwinm 3,3,0,0xffff
.LVL36:
.LBB1703:
.LBB1701:
	.loc 2 2193 0
	lwz 9,wgPipe@l(9)
.LBE1701:
.LBE1703:
	.loc 1 567 0
	lis 8,_tempcolorelement@ha
	stwu 1,-24(1)
	.cfi_def_cfa_offset 24
	.loc 1 567 0
	la 10,_tempcolorelement@l(8)
.LBB1704:
.LBB1702:
	.loc 2 2193 0
	sth 3,0(9)
.LVL37:
.LBE1702:
.LBE1704:
	.loc 1 567 0
	lfs 13,_tempcolorelement@l(8)
	lis 8,.LC2@ha
	lfs 0,.LC2@l(8)
	addi 8,1,8
	fmuls 13,13,0
	fctiwz 13,13
	stfiwx 13,0,8
	addi 8,1,12
	lfs 13,4(10)
	lwz 6,8(1)
	fmuls 13,13,0
	rlwinm 6,6,0,0xff
	fctiwz 13,13
	stfiwx 13,0,8
	addi 8,1,16
	lfs 13,8(10)
	lwz 7,12(1)
	fmuls 13,13,0
	rlwinm 7,7,0,0xff
	fctiwz 13,13
	stfiwx 13,0,8
	lfs 13,12(10)
	addi 10,1,20
	lwz 8,16(1)
	fmuls 0,13,0
	rlwinm 8,8,0,0xff
	fctiwz 0,0
	stfiwx 0,0,10
	lwz 10,20(1)
.LBB1705:
.LBB1706:
	.loc 2 2229 0
	stb 6,0(9)
.LBE1706:
.LBE1705:
	.loc 1 567 0
	rlwinm 10,10,0,0xff
.LVL38:
.LBB1708:
.LBB1707:
	.loc 2 2230 0
	stb 7,0(9)
	.loc 2 2231 0
	stb 8,0(9)
	.loc 2 2232 0
	stb 10,0(9)
.LVL39:
.LBE1707:
.LBE1708:
.LBB1709:
.LBB1710:
	.loc 2 2331 0
	sth 3,0(9)
.LVL40:
.LBE1710:
.LBE1709:
.LBB1711:
.LBB1712:
	sth 3,0(9)
.LVL41:
.LBE1712:
.LBE1711:
.LBB1713:
.LBB1714:
	sth 3,0(9)
.LVL42:
.LBE1714:
.LBE1713:
.LBB1715:
.LBB1716:
	sth 3,0(9)
.LBE1716:
.LBE1715:
	.loc 1 567 0
	addi 1,1,24
	.cfi_def_cfa_offset 0
	blr
	.cfi_endproc
.LFE86:
	.size	UploadVertexPT4_Array, .-UploadVertexPT4_Array
	.align 2
	.type	UploadVertexPT5_Array, @function
UploadVertexPT5_Array:
.LFB87:
	.loc 1 567 0
	.cfi_startproc
.LVL43:
.LBB1717:
.LBB1718:
	.loc 2 2193 0
	lis 9,wgPipe@ha
.LBE1718:
.LBE1717:
	.loc 1 567 0
	rlwinm 3,3,0,0xffff
.LVL44:
.LBB1721:
.LBB1719:
	.loc 2 2193 0
	lwz 9,wgPipe@l(9)
.LBE1719:
.LBE1721:
	.loc 1 567 0
	lis 8,_tempcolorelement@ha
	stwu 1,-24(1)
	.cfi_def_cfa_offset 24
	.loc 1 567 0
	la 10,_tempcolorelement@l(8)
.LBB1722:
.LBB1720:
	.loc 2 2193 0
	sth 3,0(9)
.LVL45:
.LBE1720:
.LBE1722:
	.loc 1 567 0
	lfs 13,_tempcolorelement@l(8)
	lis 8,.LC2@ha
	lfs 0,.LC2@l(8)
	addi 8,1,8
	fmuls 13,13,0
	fctiwz 13,13
	stfiwx 13,0,8
	addi 8,1,12
	lfs 13,4(10)
	lwz 6,8(1)
	fmuls 13,13,0
	rlwinm 6,6,0,0xff
	fctiwz 13,13
	stfiwx 13,0,8
	addi 8,1,16
	lfs 13,8(10)
	lwz 7,12(1)
	fmuls 13,13,0
	rlwinm 7,7,0,0xff
	fctiwz 13,13
	stfiwx 13,0,8
	lfs 13,12(10)
	addi 10,1,20
	lwz 8,16(1)
	fmuls 0,13,0
	rlwinm 8,8,0,0xff
	fctiwz 0,0
	stfiwx 0,0,10
	lwz 10,20(1)
.LBB1723:
.LBB1724:
	.loc 2 2229 0
	stb 6,0(9)
.LBE1724:
.LBE1723:
	.loc 1 567 0
	rlwinm 10,10,0,0xff
.LVL46:
.LBB1726:
.LBB1725:
	.loc 2 2230 0
	stb 7,0(9)
	.loc 2 2231 0
	stb 8,0(9)
	.loc 2 2232 0
	stb 10,0(9)
.LVL47:
.LBE1725:
.LBE1726:
.LBB1727:
.LBB1728:
	.loc 2 2331 0
	sth 3,0(9)
.LVL48:
.LBE1728:
.LBE1727:
.LBB1729:
.LBB1730:
	sth 3,0(9)
.LVL49:
.LBE1730:
.LBE1729:
.LBB1731:
.LBB1732:
	sth 3,0(9)
.LVL50:
.LBE1732:
.LBE1731:
.LBB1733:
.LBB1734:
	sth 3,0(9)
.LVL51:
.LBE1734:
.LBE1733:
.LBB1735:
.LBB1736:
	sth 3,0(9)
.LBE1736:
.LBE1735:
	.loc 1 567 0
	addi 1,1,24
	.cfi_def_cfa_offset 0
	blr
	.cfi_endproc
.LFE87:
	.size	UploadVertexPT5_Array, .-UploadVertexPT5_Array
	.align 2
	.type	UploadVertexPT6_Array, @function
UploadVertexPT6_Array:
.LFB88:
	.loc 1 567 0
	.cfi_startproc
.LVL52:
.LBB1737:
.LBB1738:
	.loc 2 2193 0
	lis 9,wgPipe@ha
.LBE1738:
.LBE1737:
	.loc 1 567 0
	rlwinm 3,3,0,0xffff
.LVL53:
.LBB1741:
.LBB1739:
	.loc 2 2193 0
	lwz 9,wgPipe@l(9)
.LBE1739:
.LBE1741:
	.loc 1 567 0
	lis 8,_tempcolorelement@ha
	stwu 1,-24(1)
	.cfi_def_cfa_offset 24
	.loc 1 567 0
	la 10,_tempcolorelement@l(8)
.LBB1742:
.LBB1740:
	.loc 2 2193 0
	sth 3,0(9)
.LVL54:
.LBE1740:
.LBE1742:
	.loc 1 567 0
	lfs 13,_tempcolorelement@l(8)
	lis 8,.LC2@ha
	lfs 0,.LC2@l(8)
	addi 8,1,8
	fmuls 13,13,0
	fctiwz 13,13
	stfiwx 13,0,8
	addi 8,1,12
	lfs 13,4(10)
	lwz 6,8(1)
	fmuls 13,13,0
	rlwinm 6,6,0,0xff
	fctiwz 13,13
	stfiwx 13,0,8
	addi 8,1,16
	lfs 13,8(10)
	lwz 7,12(1)
	fmuls 13,13,0
	rlwinm 7,7,0,0xff
	fctiwz 13,13
	stfiwx 13,0,8
	lfs 13,12(10)
	addi 10,1,20
	lwz 8,16(1)
	fmuls 0,13,0
	rlwinm 8,8,0,0xff
	fctiwz 0,0
	stfiwx 0,0,10
	lwz 10,20(1)
.LBB1743:
.LBB1744:
	.loc 2 2229 0
	stb 6,0(9)
.LBE1744:
.LBE1743:
	.loc 1 567 0
	rlwinm 10,10,0,0xff
.LVL55:
.LBB1746:
.LBB1745:
	.loc 2 2230 0
	stb 7,0(9)
	.loc 2 2231 0
	stb 8,0(9)
	.loc 2 2232 0
	stb 10,0(9)
.LVL56:
.LBE1745:
.LBE1746:
.LBB1747:
.LBB1748:
	.loc 2 2331 0
	sth 3,0(9)
.LVL57:
.LBE1748:
.LBE1747:
.LBB1749:
.LBB1750:
	sth 3,0(9)
.LVL58:
.LBE1750:
.LBE1749:
.LBB1751:
.LBB1752:
	sth 3,0(9)
.LVL59:
.LBE1752:
.LBE1751:
.LBB1753:
.LBB1754:
	sth 3,0(9)
.LVL60:
.LBE1754:
.LBE1753:
.LBB1755:
.LBB1756:
	sth 3,0(9)
.LVL61:
.LBE1756:
.LBE1755:
.LBB1757:
.LBB1758:
	sth 3,0(9)
.LBE1758:
.LBE1757:
	.loc 1 567 0
	addi 1,1,24
	.cfi_def_cfa_offset 0
	blr
	.cfi_endproc
.LFE88:
	.size	UploadVertexPT6_Array, .-UploadVertexPT6_Array
	.align 2
	.type	UploadVertexPT7_Array, @function
UploadVertexPT7_Array:
.LFB89:
	.loc 1 567 0
	.cfi_startproc
.LVL62:
.LBB1759:
.LBB1760:
	.loc 2 2193 0
	lis 9,wgPipe@ha
.LBE1760:
.LBE1759:
	.loc 1 567 0
	rlwinm 3,3,0,0xffff
.LVL63:
.LBB1763:
.LBB1761:
	.loc 2 2193 0
	lwz 9,wgPipe@l(9)
.LBE1761:
.LBE1763:
	.loc 1 567 0
	lis 8,_tempcolorelement@ha
	stwu 1,-24(1)
	.cfi_def_cfa_offset 24
	.loc 1 567 0
	la 10,_tempcolorelement@l(8)
.LBB1764:
.LBB1762:
	.loc 2 2193 0
	sth 3,0(9)
.LVL64:
.LBE1762:
.LBE1764:
	.loc 1 567 0
	lfs 13,_tempcolorelement@l(8)
	lis 8,.LC2@ha
	lfs 0,.LC2@l(8)
	addi 8,1,8
	fmuls 13,13,0
	fctiwz 13,13
	stfiwx 13,0,8
	addi 8,1,12
	lfs 13,4(10)
	lwz 6,8(1)
	fmuls 13,13,0
	rlwinm 6,6,0,0xff
	fctiwz 13,13
	stfiwx 13,0,8
	addi 8,1,16
	lfs 13,8(10)
	lwz 7,12(1)
	fmuls 13,13,0
	rlwinm 7,7,0,0xff
	fctiwz 13,13
	stfiwx 13,0,8
	lfs 13,12(10)
	addi 10,1,20
	lwz 8,16(1)
	fmuls 0,13,0
	rlwinm 8,8,0,0xff
	fctiwz 0,0
	stfiwx 0,0,10
	lwz 10,20(1)
.LBB1765:
.LBB1766:
	.loc 2 2229 0
	stb 6,0(9)
.LBE1766:
.LBE1765:
	.loc 1 567 0
	rlwinm 10,10,0,0xff
.LVL65:
.LBB1768:
.LBB1767:
	.loc 2 2230 0
	stb 7,0(9)
	.loc 2 2231 0
	stb 8,0(9)
	.loc 2 2232 0
	stb 10,0(9)
.LVL66:
.LBE1767:
.LBE1768:
.LBB1769:
.LBB1770:
	.loc 2 2331 0
	sth 3,0(9)
.LVL67:
.LBE1770:
.LBE1769:
.LBB1771:
.LBB1772:
	sth 3,0(9)
.LVL68:
.LBE1772:
.LBE1771:
.LBB1773:
.LBB1774:
	sth 3,0(9)
.LVL69:
.LBE1774:
.LBE1773:
.LBB1775:
.LBB1776:
	sth 3,0(9)
.LVL70:
.LBE1776:
.LBE1775:
.LBB1777:
.LBB1778:
	sth 3,0(9)
.LVL71:
.LBE1778:
.LBE1777:
.LBB1779:
.LBB1780:
	sth 3,0(9)
.LVL72:
.LBE1780:
.LBE1779:
.LBB1781:
.LBB1782:
	sth 3,0(9)
.LBE1782:
.LBE1781:
	.loc 1 567 0
	addi 1,1,24
	.cfi_def_cfa_offset 0
	blr
	.cfi_endproc
.LFE89:
	.size	UploadVertexPT7_Array, .-UploadVertexPT7_Array
	.section	".text"
	.align 2
	.type	UploadVertexPNT0_Array, @function
UploadVertexPNT0_Array:
.LFB90:
	.loc 1 567 0
	.cfi_startproc
.LVL73:
.LBB1783:
.LBB1784:
	.loc 2 2193 0
	lis 9,wgPipe@ha
.LBE1784:
.LBE1783:
	.loc 1 567 0
	rlwinm 3,3,0,0xffff
.LVL74:
.LBB1787:
.LBB1785:
	.loc 2 2193 0
	lwz 9,wgPipe@l(9)
.LBE1785:
.LBE1787:
	.loc 1 567 0
	lis 8,_tempcolorelement@ha
	stwu 1,-24(1)
	.cfi_def_cfa_offset 24
	.loc 1 567 0
	la 10,_tempcolorelement@l(8)
.LBB1788:
.LBB1786:
	.loc 2 2193 0
	sth 3,0(9)
.LVL75:
.LBE1786:
.LBE1788:
.LBB1789:
.LBB1790:
	.loc 2 2224 0
	sth 3,0(9)
.LVL76:
.LBE1790:
.LBE1789:
	.loc 1 567 0
	lfs 13,_tempcolorelement@l(8)
	lis 8,.LC2@ha
	lfs 0,.LC2@l(8)
	addi 8,1,8
	fmuls 13,13,0
	fctiwz 13,13
	stfiwx 13,0,8
	addi 8,1,12
	lfs 13,4(10)
	lwz 6,8(1)
	fmuls 13,13,0
	rlwinm 6,6,0,0xff
	fctiwz 13,13
	stfiwx 13,0,8
	addi 8,1,16
	lfs 13,8(10)
	lwz 7,12(1)
	fmuls 13,13,0
	rlwinm 7,7,0,0xff
	fctiwz 13,13
	stfiwx 13,0,8
	lfs 13,12(10)
	addi 10,1,20
	lwz 8,16(1)
	fmuls 0,13,0
	rlwinm 8,8,0,0xff
	fctiwz 0,0
	stfiwx 0,0,10
	lwz 10,20(1)
.LBB1791:
.LBB1792:
	.loc 2 2229 0
	stb 6,0(9)
.LBE1792:
.LBE1791:
	.loc 1 567 0
	rlwinm 10,10,0,0xff
.LVL77:
.LBB1794:
.LBB1793:
	.loc 2 2230 0
	stb 7,0(9)
	.loc 2 2231 0
	stb 8,0(9)
	.loc 2 2232 0
	stb 10,0(9)
.LBE1793:
.LBE1794:
	.loc 1 567 0
	addi 1,1,24
	.cfi_def_cfa_offset 0
	blr
	.cfi_endproc
.LFE90:
	.size	UploadVertexPNT0_Array, .-UploadVertexPNT0_Array
	.section	.text.unlikely
	.align 2
	.type	UploadVertexPNT1_Array, @function
UploadVertexPNT1_Array:
.LFB91:
	.loc 1 567 0
	.cfi_startproc
.LVL78:
.LBB1795:
.LBB1796:
	.loc 2 2193 0
	lis 9,wgPipe@ha
.LBE1796:
.LBE1795:
	.loc 1 567 0
	rlwinm 3,3,0,0xffff
.LVL79:
.LBB1799:
.LBB1797:
	.loc 2 2193 0
	lwz 9,wgPipe@l(9)
.LBE1797:
.LBE1799:
	.loc 1 567 0
	lis 8,_tempcolorelement@ha
	stwu 1,-24(1)
	.cfi_def_cfa_offset 24
	.loc 1 567 0
	la 10,_tempcolorelement@l(8)
.LBB1800:
.LBB1798:
	.loc 2 2193 0
	sth 3,0(9)
.LVL80:
.LBE1798:
.LBE1800:
.LBB1801:
.LBB1802:
	.loc 2 2224 0
	sth 3,0(9)
.LVL81:
.LBE1802:
.LBE1801:
	.loc 1 567 0
	lfs 13,_tempcolorelement@l(8)
	lis 8,.LC2@ha
	lfs 0,.LC2@l(8)
	addi 8,1,8
	fmuls 13,13,0
	fctiwz 13,13
	stfiwx 13,0,8
	addi 8,1,12
	lfs 13,4(10)
	lwz 6,8(1)
	fmuls 13,13,0
	rlwinm 6,6,0,0xff
	fctiwz 13,13
	stfiwx 13,0,8
	addi 8,1,16
	lfs 13,8(10)
	lwz 7,12(1)
	fmuls 13,13,0
	rlwinm 7,7,0,0xff
	fctiwz 13,13
	stfiwx 13,0,8
	lfs 13,12(10)
	addi 10,1,20
	lwz 8,16(1)
	fmuls 0,13,0
	rlwinm 8,8,0,0xff
	fctiwz 0,0
	stfiwx 0,0,10
	lwz 10,20(1)
.LBB1803:
.LBB1804:
	.loc 2 2229 0
	stb 6,0(9)
.LBE1804:
.LBE1803:
	.loc 1 567 0
	rlwinm 10,10,0,0xff
.LVL82:
.LBB1806:
.LBB1805:
	.loc 2 2230 0
	stb 7,0(9)
	.loc 2 2231 0
	stb 8,0(9)
	.loc 2 2232 0
	stb 10,0(9)
.LVL83:
.LBE1805:
.LBE1806:
.LBB1807:
.LBB1808:
	.loc 2 2331 0
	sth 3,0(9)
.LBE1808:
.LBE1807:
	.loc 1 567 0
	addi 1,1,24
	.cfi_def_cfa_offset 0
	blr
	.cfi_endproc
.LFE91:
	.size	UploadVertexPNT1_Array, .-UploadVertexPNT1_Array
	.align 2
	.type	UploadVertexPNT2_Array, @function
UploadVertexPNT2_Array:
.LFB92:
	.loc 1 567 0
	.cfi_startproc
.LVL84:
.LBB1809:
.LBB1810:
	.loc 2 2193 0
	lis 9,wgPipe@ha
.LBE1810:
.LBE1809:
	.loc 1 567 0
	rlwinm 3,3,0,0xffff
.LVL85:
.LBB1813:
.LBB1811:
	.loc 2 2193 0
	lwz 9,wgPipe@l(9)
.LBE1811:
.LBE1813:
	.loc 1 567 0
	lis 8,_tempcolorelement@ha
	stwu 1,-24(1)
	.cfi_def_cfa_offset 24
	.loc 1 567 0
	la 10,_tempcolorelement@l(8)
.LBB1814:
.LBB1812:
	.loc 2 2193 0
	sth 3,0(9)
.LVL86:
.LBE1812:
.LBE1814:
.LBB1815:
.LBB1816:
	.loc 2 2224 0
	sth 3,0(9)
.LVL87:
.LBE1816:
.LBE1815:
	.loc 1 567 0
	lfs 13,_tempcolorelement@l(8)
	lis 8,.LC2@ha
	lfs 0,.LC2@l(8)
	addi 8,1,8
	fmuls 13,13,0
	fctiwz 13,13
	stfiwx 13,0,8
	addi 8,1,12
	lfs 13,4(10)
	lwz 6,8(1)
	fmuls 13,13,0
	rlwinm 6,6,0,0xff
	fctiwz 13,13
	stfiwx 13,0,8
	addi 8,1,16
	lfs 13,8(10)
	lwz 7,12(1)
	fmuls 13,13,0
	rlwinm 7,7,0,0xff
	fctiwz 13,13
	stfiwx 13,0,8
	lfs 13,12(10)
	addi 10,1,20
	lwz 8,16(1)
	fmuls 0,13,0
	rlwinm 8,8,0,0xff
	fctiwz 0,0
	stfiwx 0,0,10
	lwz 10,20(1)
.LBB1817:
.LBB1818:
	.loc 2 2229 0
	stb 6,0(9)
.LBE1818:
.LBE1817:
	.loc 1 567 0
	rlwinm 10,10,0,0xff
.LVL88:
.LBB1820:
.LBB1819:
	.loc 2 2230 0
	stb 7,0(9)
	.loc 2 2231 0
	stb 8,0(9)
	.loc 2 2232 0
	stb 10,0(9)
.LVL89:
.LBE1819:
.LBE1820:
.LBB1821:
.LBB1822:
	.loc 2 2331 0
	sth 3,0(9)
.LVL90:
.LBE1822:
.LBE1821:
.LBB1823:
.LBB1824:
	sth 3,0(9)
.LBE1824:
.LBE1823:
	.loc 1 567 0
	addi 1,1,24
	.cfi_def_cfa_offset 0
	blr
	.cfi_endproc
.LFE92:
	.size	UploadVertexPNT2_Array, .-UploadVertexPNT2_Array
	.align 2
	.type	UploadVertexPNT3_Array, @function
UploadVertexPNT3_Array:
.LFB93:
	.loc 1 567 0
	.cfi_startproc
.LVL91:
.LBB1825:
.LBB1826:
	.loc 2 2193 0
	lis 9,wgPipe@ha
.LBE1826:
.LBE1825:
	.loc 1 567 0
	rlwinm 3,3,0,0xffff
.LVL92:
.LBB1829:
.LBB1827:
	.loc 2 2193 0
	lwz 9,wgPipe@l(9)
.LBE1827:
.LBE1829:
	.loc 1 567 0
	lis 8,_tempcolorelement@ha
	stwu 1,-24(1)
	.cfi_def_cfa_offset 24
	.loc 1 567 0
	la 10,_tempcolorelement@l(8)
.LBB1830:
.LBB1828:
	.loc 2 2193 0
	sth 3,0(9)
.LVL93:
.LBE1828:
.LBE1830:
.LBB1831:
.LBB1832:
	.loc 2 2224 0
	sth 3,0(9)
.LVL94:
.LBE1832:
.LBE1831:
	.loc 1 567 0
	lfs 13,_tempcolorelement@l(8)
	lis 8,.LC2@ha
	lfs 0,.LC2@l(8)
	addi 8,1,8
	fmuls 13,13,0
	fctiwz 13,13
	stfiwx 13,0,8
	addi 8,1,12
	lfs 13,4(10)
	lwz 6,8(1)
	fmuls 13,13,0
	rlwinm 6,6,0,0xff
	fctiwz 13,13
	stfiwx 13,0,8
	addi 8,1,16
	lfs 13,8(10)
	lwz 7,12(1)
	fmuls 13,13,0
	rlwinm 7,7,0,0xff
	fctiwz 13,13
	stfiwx 13,0,8
	lfs 13,12(10)
	addi 10,1,20
	lwz 8,16(1)
	fmuls 0,13,0
	rlwinm 8,8,0,0xff
	fctiwz 0,0
	stfiwx 0,0,10
	lwz 10,20(1)
.LBB1833:
.LBB1834:
	.loc 2 2229 0
	stb 6,0(9)
.LBE1834:
.LBE1833:
	.loc 1 567 0
	rlwinm 10,10,0,0xff
.LVL95:
.LBB1836:
.LBB1835:
	.loc 2 2230 0
	stb 7,0(9)
	.loc 2 2231 0
	stb 8,0(9)
	.loc 2 2232 0
	stb 10,0(9)
.LVL96:
.LBE1835:
.LBE1836:
.LBB1837:
.LBB1838:
	.loc 2 2331 0
	sth 3,0(9)
.LVL97:
.LBE1838:
.LBE1837:
.LBB1839:
.LBB1840:
	sth 3,0(9)
.LVL98:
.LBE1840:
.LBE1839:
.LBB1841:
.LBB1842:
	sth 3,0(9)
.LBE1842:
.LBE1841:
	.loc 1 567 0
	addi 1,1,24
	.cfi_def_cfa_offset 0
	blr
	.cfi_endproc
.LFE93:
	.size	UploadVertexPNT3_Array, .-UploadVertexPNT3_Array
	.align 2
	.type	UploadVertexPNT4_Array, @function
UploadVertexPNT4_Array:
.LFB94:
	.loc 1 567 0
	.cfi_startproc
.LVL99:
.LBB1843:
.LBB1844:
	.loc 2 2193 0
	lis 9,wgPipe@ha
.LBE1844:
.LBE1843:
	.loc 1 567 0
	rlwinm 3,3,0,0xffff
.LVL100:
.LBB1847:
.LBB1845:
	.loc 2 2193 0
	lwz 9,wgPipe@l(9)
.LBE1845:
.LBE1847:
	.loc 1 567 0
	lis 8,_tempcolorelement@ha
	stwu 1,-24(1)
	.cfi_def_cfa_offset 24
	.loc 1 567 0
	la 10,_tempcolorelement@l(8)
.LBB1848:
.LBB1846:
	.loc 2 2193 0
	sth 3,0(9)
.LVL101:
.LBE1846:
.LBE1848:
.LBB1849:
.LBB1850:
	.loc 2 2224 0
	sth 3,0(9)
.LVL102:
.LBE1850:
.LBE1849:
	.loc 1 567 0
	lfs 13,_tempcolorelement@l(8)
	lis 8,.LC2@ha
	lfs 0,.LC2@l(8)
	addi 8,1,8
	fmuls 13,13,0
	fctiwz 13,13
	stfiwx 13,0,8
	addi 8,1,12
	lfs 13,4(10)
	lwz 6,8(1)
	fmuls 13,13,0
	rlwinm 6,6,0,0xff
	fctiwz 13,13
	stfiwx 13,0,8
	addi 8,1,16
	lfs 13,8(10)
	lwz 7,12(1)
	fmuls 13,13,0
	rlwinm 7,7,0,0xff
	fctiwz 13,13
	stfiwx 13,0,8
	lfs 13,12(10)
	addi 10,1,20
	lwz 8,16(1)
	fmuls 0,13,0
	rlwinm 8,8,0,0xff
	fctiwz 0,0
	stfiwx 0,0,10
	lwz 10,20(1)
.LBB1851:
.LBB1852:
	.loc 2 2229 0
	stb 6,0(9)
.LBE1852:
.LBE1851:
	.loc 1 567 0
	rlwinm 10,10,0,0xff
.LVL103:
.LBB1854:
.LBB1853:
	.loc 2 2230 0
	stb 7,0(9)
	.loc 2 2231 0
	stb 8,0(9)
	.loc 2 2232 0
	stb 10,0(9)
.LVL104:
.LBE1853:
.LBE1854:
.LBB1855:
.LBB1856:
	.loc 2 2331 0
	sth 3,0(9)
.LVL105:
.LBE1856:
.LBE1855:
.LBB1857:
.LBB1858:
	sth 3,0(9)
.LVL106:
.LBE1858:
.LBE1857:
.LBB1859:
.LBB1860:
	sth 3,0(9)
.LVL107:
.LBE1860:
.LBE1859:
.LBB1861:
.LBB1862:
	sth 3,0(9)
.LBE1862:
.LBE1861:
	.loc 1 567 0
	addi 1,1,24
	.cfi_def_cfa_offset 0
	blr
	.cfi_endproc
.LFE94:
	.size	UploadVertexPNT4_Array, .-UploadVertexPNT4_Array
	.align 2
	.type	UploadVertexPNT5_Array, @function
UploadVertexPNT5_Array:
.LFB95:
	.loc 1 567 0
	.cfi_startproc
.LVL108:
.LBB1863:
.LBB1864:
	.loc 2 2193 0
	lis 9,wgPipe@ha
.LBE1864:
.LBE1863:
	.loc 1 567 0
	rlwinm 3,3,0,0xffff
.LVL109:
.LBB1867:
.LBB1865:
	.loc 2 2193 0
	lwz 9,wgPipe@l(9)
.LBE1865:
.LBE1867:
	.loc 1 567 0
	lis 8,_tempcolorelement@ha
	stwu 1,-24(1)
	.cfi_def_cfa_offset 24
	.loc 1 567 0
	la 10,_tempcolorelement@l(8)
.LBB1868:
.LBB1866:
	.loc 2 2193 0
	sth 3,0(9)
.LVL110:
.LBE1866:
.LBE1868:
.LBB1869:
.LBB1870:
	.loc 2 2224 0
	sth 3,0(9)
.LVL111:
.LBE1870:
.LBE1869:
	.loc 1 567 0
	lfs 13,_tempcolorelement@l(8)
	lis 8,.LC2@ha
	lfs 0,.LC2@l(8)
	addi 8,1,8
	fmuls 13,13,0
	fctiwz 13,13
	stfiwx 13,0,8
	addi 8,1,12
	lfs 13,4(10)
	lwz 6,8(1)
	fmuls 13,13,0
	rlwinm 6,6,0,0xff
	fctiwz 13,13
	stfiwx 13,0,8
	addi 8,1,16
	lfs 13,8(10)
	lwz 7,12(1)
	fmuls 13,13,0
	rlwinm 7,7,0,0xff
	fctiwz 13,13
	stfiwx 13,0,8
	lfs 13,12(10)
	addi 10,1,20
	lwz 8,16(1)
	fmuls 0,13,0
	rlwinm 8,8,0,0xff
	fctiwz 0,0
	stfiwx 0,0,10
	lwz 10,20(1)
.LBB1871:
.LBB1872:
	.loc 2 2229 0
	stb 6,0(9)
.LBE1872:
.LBE1871:
	.loc 1 567 0
	rlwinm 10,10,0,0xff
.LVL112:
.LBB1874:
.LBB1873:
	.loc 2 2230 0
	stb 7,0(9)
	.loc 2 2231 0
	stb 8,0(9)
	.loc 2 2232 0
	stb 10,0(9)
.LVL113:
.LBE1873:
.LBE1874:
.LBB1875:
.LBB1876:
	.loc 2 2331 0
	sth 3,0(9)
.LVL114:
.LBE1876:
.LBE1875:
.LBB1877:
.LBB1878:
	sth 3,0(9)
.LVL115:
.LBE1878:
.LBE1877:
.LBB1879:
.LBB1880:
	sth 3,0(9)
.LVL116:
.LBE1880:
.LBE1879:
.LBB1881:
.LBB1882:
	sth 3,0(9)
.LVL117:
.LBE1882:
.LBE1881:
.LBB1883:
.LBB1884:
	sth 3,0(9)
.LBE1884:
.LBE1883:
	.loc 1 567 0
	addi 1,1,24
	.cfi_def_cfa_offset 0
	blr
	.cfi_endproc
.LFE95:
	.size	UploadVertexPNT5_Array, .-UploadVertexPNT5_Array
	.align 2
	.type	UploadVertexPNT6_Array, @function
UploadVertexPNT6_Array:
.LFB96:
	.loc 1 567 0
	.cfi_startproc
.LVL118:
.LBB1885:
.LBB1886:
	.loc 2 2193 0
	lis 9,wgPipe@ha
.LBE1886:
.LBE1885:
	.loc 1 567 0
	rlwinm 3,3,0,0xffff
.LVL119:
.LBB1889:
.LBB1887:
	.loc 2 2193 0
	lwz 9,wgPipe@l(9)
.LBE1887:
.LBE1889:
	.loc 1 567 0
	lis 8,_tempcolorelement@ha
	stwu 1,-24(1)
	.cfi_def_cfa_offset 24
	.loc 1 567 0
	la 10,_tempcolorelement@l(8)
.LBB1890:
.LBB1888:
	.loc 2 2193 0
	sth 3,0(9)
.LVL120:
.LBE1888:
.LBE1890:
.LBB1891:
.LBB1892:
	.loc 2 2224 0
	sth 3,0(9)
.LVL121:
.LBE1892:
.LBE1891:
	.loc 1 567 0
	lfs 13,_tempcolorelement@l(8)
	lis 8,.LC2@ha
	lfs 0,.LC2@l(8)
	addi 8,1,8
	fmuls 13,13,0
	fctiwz 13,13
	stfiwx 13,0,8
	addi 8,1,12
	lfs 13,4(10)
	lwz 6,8(1)
	fmuls 13,13,0
	rlwinm 6,6,0,0xff
	fctiwz 13,13
	stfiwx 13,0,8
	addi 8,1,16
	lfs 13,8(10)
	lwz 7,12(1)
	fmuls 13,13,0
	rlwinm 7,7,0,0xff
	fctiwz 13,13
	stfiwx 13,0,8
	lfs 13,12(10)
	addi 10,1,20
	lwz 8,16(1)
	fmuls 0,13,0
	rlwinm 8,8,0,0xff
	fctiwz 0,0
	stfiwx 0,0,10
	lwz 10,20(1)
.LBB1893:
.LBB1894:
	.loc 2 2229 0
	stb 6,0(9)
.LBE1894:
.LBE1893:
	.loc 1 567 0
	rlwinm 10,10,0,0xff
.LVL122:
.LBB1896:
.LBB1895:
	.loc 2 2230 0
	stb 7,0(9)
	.loc 2 2231 0
	stb 8,0(9)
	.loc 2 2232 0
	stb 10,0(9)
.LVL123:
.LBE1895:
.LBE1896:
.LBB1897:
.LBB1898:
	.loc 2 2331 0
	sth 3,0(9)
.LVL124:
.LBE1898:
.LBE1897:
.LBB1899:
.LBB1900:
	sth 3,0(9)
.LVL125:
.LBE1900:
.LBE1899:
.LBB1901:
.LBB1902:
	sth 3,0(9)
.LVL126:
.LBE1902:
.LBE1901:
.LBB1903:
.LBB1904:
	sth 3,0(9)
.LVL127:
.LBE1904:
.LBE1903:
.LBB1905:
.LBB1906:
	sth 3,0(9)
.LVL128:
.LBE1906:
.LBE1905:
.LBB1907:
.LBB1908:
	sth 3,0(9)
.LBE1908:
.LBE1907:
	.loc 1 567 0
	addi 1,1,24
	.cfi_def_cfa_offset 0
	blr
	.cfi_endproc
.LFE96:
	.size	UploadVertexPNT6_Array, .-UploadVertexPNT6_Array
	.align 2
	.type	UploadVertexPNT7_Array, @function
UploadVertexPNT7_Array:
.LFB97:
	.loc 1 567 0
	.cfi_startproc
.LVL129:
.LBB1909:
.LBB1910:
	.loc 2 2193 0
	lis 9,wgPipe@ha
.LBE1910:
.LBE1909:
	.loc 1 567 0
	rlwinm 3,3,0,0xffff
.LVL130:
.LBB1913:
.LBB1911:
	.loc 2 2193 0
	lwz 9,wgPipe@l(9)
.LBE1911:
.LBE1913:
	.loc 1 567 0
	lis 8,_tempcolorelement@ha
	stwu 1,-24(1)
	.cfi_def_cfa_offset 24
	.loc 1 567 0
	la 10,_tempcolorelement@l(8)
.LBB1914:
.LBB1912:
	.loc 2 2193 0
	sth 3,0(9)
.LVL131:
.LBE1912:
.LBE1914:
.LBB1915:
.LBB1916:
	.loc 2 2224 0
	sth 3,0(9)
.LVL132:
.LBE1916:
.LBE1915:
	.loc 1 567 0
	lfs 13,_tempcolorelement@l(8)
	lis 8,.LC2@ha
	lfs 0,.LC2@l(8)
	addi 8,1,8
	fmuls 13,13,0
	fctiwz 13,13
	stfiwx 13,0,8
	addi 8,1,12
	lfs 13,4(10)
	lwz 6,8(1)
	fmuls 13,13,0
	rlwinm 6,6,0,0xff
	fctiwz 13,13
	stfiwx 13,0,8
	addi 8,1,16
	lfs 13,8(10)
	lwz 7,12(1)
	fmuls 13,13,0
	rlwinm 7,7,0,0xff
	fctiwz 13,13
	stfiwx 13,0,8
	lfs 13,12(10)
	addi 10,1,20
	lwz 8,16(1)
	fmuls 0,13,0
	rlwinm 8,8,0,0xff
	fctiwz 0,0
	stfiwx 0,0,10
	lwz 10,20(1)
.LBB1917:
.LBB1918:
	.loc 2 2229 0
	stb 6,0(9)
.LBE1918:
.LBE1917:
	.loc 1 567 0
	rlwinm 10,10,0,0xff
.LVL133:
.LBB1920:
.LBB1919:
	.loc 2 2230 0
	stb 7,0(9)
	.loc 2 2231 0
	stb 8,0(9)
	.loc 2 2232 0
	stb 10,0(9)
.LVL134:
.LBE1919:
.LBE1920:
.LBB1921:
.LBB1922:
	.loc 2 2331 0
	sth 3,0(9)
.LVL135:
.LBE1922:
.LBE1921:
.LBB1923:
.LBB1924:
	sth 3,0(9)
.LVL136:
.LBE1924:
.LBE1923:
.LBB1925:
.LBB1926:
	sth 3,0(9)
.LVL137:
.LBE1926:
.LBE1925:
.LBB1927:
.LBB1928:
	sth 3,0(9)
.LVL138:
.LBE1928:
.LBE1927:
.LBB1929:
.LBB1930:
	sth 3,0(9)
.LVL139:
.LBE1930:
.LBE1929:
.LBB1931:
.LBB1932:
	sth 3,0(9)
.LVL140:
.LBE1932:
.LBE1931:
.LBB1933:
.LBB1934:
	sth 3,0(9)
.LBE1934:
.LBE1933:
	.loc 1 567 0
	addi 1,1,24
	.cfi_def_cfa_offset 0
	blr
	.cfi_endproc
.LFE97:
	.size	UploadVertexPNT7_Array, .-UploadVertexPNT7_Array
	.section	".text"
	.align 2
	.type	UploadVertexPCT0_Array, @function
UploadVertexPCT0_Array:
.LFB98:
	.loc 1 567 0
	.cfi_startproc
.LVL141:
.LBB1935:
.LBB1936:
	.loc 2 2193 0
	lis 9,wgPipe@ha
.LBE1936:
.LBE1935:
	.loc 1 567 0
	rlwinm 3,3,0,0xffff
.LVL142:
.LBB1938:
.LBB1937:
	.loc 2 2193 0
	lwz 9,wgPipe@l(9)
	sth 3,0(9)
.LVL143:
.LBE1937:
.LBE1938:
.LBB1939:
.LBB1940:
	.loc 2 2266 0
	sth 3,0(9)
	blr
.LBE1940:
.LBE1939:
	.cfi_endproc
.LFE98:
	.size	UploadVertexPCT0_Array, .-UploadVertexPCT0_Array
	.section	.text.unlikely
	.align 2
	.type	UploadVertexPCT1_Array, @function
UploadVertexPCT1_Array:
.LFB99:
	.loc 1 567 0
	.cfi_startproc
.LVL144:
.LBB1941:
.LBB1942:
	.loc 2 2193 0
	lis 9,wgPipe@ha
.LBE1942:
.LBE1941:
	.loc 1 567 0
	rlwinm 3,3,0,0xffff
.LVL145:
.LBB1944:
.LBB1943:
	.loc 2 2193 0
	lwz 9,wgPipe@l(9)
	sth 3,0(9)
.LVL146:
.LBE1943:
.LBE1944:
.LBB1945:
.LBB1946:
	.loc 2 2266 0
	sth 3,0(9)
.LVL147:
.LBE1946:
.LBE1945:
.LBB1947:
.LBB1948:
	.loc 2 2331 0
	sth 3,0(9)
	blr
.LBE1948:
.LBE1947:
	.cfi_endproc
.LFE99:
	.size	UploadVertexPCT1_Array, .-UploadVertexPCT1_Array
	.align 2
	.type	UploadVertexPCT2_Array, @function
UploadVertexPCT2_Array:
.LFB100:
	.loc 1 567 0
	.cfi_startproc
.LVL148:
.LBB1949:
.LBB1950:
	.loc 2 2193 0
	lis 9,wgPipe@ha
.LBE1950:
.LBE1949:
	.loc 1 567 0
	rlwinm 3,3,0,0xffff
.LVL149:
.LBB1952:
.LBB1951:
	.loc 2 2193 0
	lwz 9,wgPipe@l(9)
	sth 3,0(9)
.LVL150:
.LBE1951:
.LBE1952:
.LBB1953:
.LBB1954:
	.loc 2 2266 0
	sth 3,0(9)
.LVL151:
.LBE1954:
.LBE1953:
.LBB1955:
.LBB1956:
	.loc 2 2331 0
	sth 3,0(9)
.LVL152:
.LBE1956:
.LBE1955:
.LBB1957:
.LBB1958:
	sth 3,0(9)
	blr
.LBE1958:
.LBE1957:
	.cfi_endproc
.LFE100:
	.size	UploadVertexPCT2_Array, .-UploadVertexPCT2_Array
	.align 2
	.type	UploadVertexPCT3_Array, @function
UploadVertexPCT3_Array:
.LFB101:
	.loc 1 567 0
	.cfi_startproc
.LVL153:
.LBB1959:
.LBB1960:
	.loc 2 2193 0
	lis 9,wgPipe@ha
.LBE1960:
.LBE1959:
	.loc 1 567 0
	rlwinm 3,3,0,0xffff
.LVL154:
.LBB1962:
.LBB1961:
	.loc 2 2193 0
	lwz 9,wgPipe@l(9)
	sth 3,0(9)
.LVL155:
.LBE1961:
.LBE1962:
.LBB1963:
.LBB1964:
	.loc 2 2266 0
	sth 3,0(9)
.LVL156:
.LBE1964:
.LBE1963:
.LBB1965:
.LBB1966:
	.loc 2 2331 0
	sth 3,0(9)
.LVL157:
.LBE1966:
.LBE1965:
.LBB1967:
.LBB1968:
	sth 3,0(9)
.LVL158:
.LBE1968:
.LBE1967:
.LBB1969:
.LBB1970:
	sth 3,0(9)
	blr
.LBE1970:
.LBE1969:
	.cfi_endproc
.LFE101:
	.size	UploadVertexPCT3_Array, .-UploadVertexPCT3_Array
	.align 2
	.type	UploadVertexPCT4_Array, @function
UploadVertexPCT4_Array:
.LFB102:
	.loc 1 567 0
	.cfi_startproc
.LVL159:
.LBB1971:
.LBB1972:
	.loc 2 2193 0
	lis 9,wgPipe@ha
.LBE1972:
.LBE1971:
	.loc 1 567 0
	rlwinm 3,3,0,0xffff
.LVL160:
.LBB1974:
.LBB1973:
	.loc 2 2193 0
	lwz 9,wgPipe@l(9)
	sth 3,0(9)
.LVL161:
.LBE1973:
.LBE1974:
.LBB1975:
.LBB1976:
	.loc 2 2266 0
	sth 3,0(9)
.LVL162:
.LBE1976:
.LBE1975:
.LBB1977:
.LBB1978:
	.loc 2 2331 0
	sth 3,0(9)
.LVL163:
.LBE1978:
.LBE1977:
.LBB1979:
.LBB1980:
	sth 3,0(9)
.LVL164:
.LBE1980:
.LBE1979:
.LBB1981:
.LBB1982:
	sth 3,0(9)
.LVL165:
.LBE1982:
.LBE1981:
.LBB1983:
.LBB1984:
	sth 3,0(9)
	blr
.LBE1984:
.LBE1983:
	.cfi_endproc
.LFE102:
	.size	UploadVertexPCT4_Array, .-UploadVertexPCT4_Array
	.align 2
	.type	UploadVertexPCT5_Array, @function
UploadVertexPCT5_Array:
.LFB103:
	.loc 1 567 0
	.cfi_startproc
.LVL166:
.LBB1985:
.LBB1986:
	.loc 2 2193 0
	lis 9,wgPipe@ha
.LBE1986:
.LBE1985:
	.loc 1 567 0
	rlwinm 3,3,0,0xffff
.LVL167:
.LBB1988:
.LBB1987:
	.loc 2 2193 0
	lwz 9,wgPipe@l(9)
	sth 3,0(9)
.LVL168:
.LBE1987:
.LBE1988:
.LBB1989:
.LBB1990:
	.loc 2 2266 0
	sth 3,0(9)
.LVL169:
.LBE1990:
.LBE1989:
.LBB1991:
.LBB1992:
	.loc 2 2331 0
	sth 3,0(9)
.LVL170:
.LBE1992:
.LBE1991:
.LBB1993:
.LBB1994:
	sth 3,0(9)
.LVL171:
.LBE1994:
.LBE1993:
.LBB1995:
.LBB1996:
	sth 3,0(9)
.LVL172:
.LBE1996:
.LBE1995:
.LBB1997:
.LBB1998:
	sth 3,0(9)
.LVL173:
.LBE1998:
.LBE1997:
.LBB1999:
.LBB2000:
	sth 3,0(9)
	blr
.LBE2000:
.LBE1999:
	.cfi_endproc
.LFE103:
	.size	UploadVertexPCT5_Array, .-UploadVertexPCT5_Array
	.align 2
	.type	UploadVertexPCT6_Array, @function
UploadVertexPCT6_Array:
.LFB104:
	.loc 1 567 0
	.cfi_startproc
.LVL174:
.LBB2001:
.LBB2002:
	.loc 2 2193 0
	lis 9,wgPipe@ha
.LBE2002:
.LBE2001:
	.loc 1 567 0
	rlwinm 3,3,0,0xffff
.LVL175:
.LBB2004:
.LBB2003:
	.loc 2 2193 0
	lwz 9,wgPipe@l(9)
	sth 3,0(9)
.LVL176:
.LBE2003:
.LBE2004:
.LBB2005:
.LBB2006:
	.loc 2 2266 0
	sth 3,0(9)
.LVL177:
.LBE2006:
.LBE2005:
.LBB2007:
.LBB2008:
	.loc 2 2331 0
	sth 3,0(9)
.LVL178:
.LBE2008:
.LBE2007:
.LBB2009:
.LBB2010:
	sth 3,0(9)
.LVL179:
.LBE2010:
.LBE2009:
.LBB2011:
.LBB2012:
	sth 3,0(9)
.LVL180:
.LBE2012:
.LBE2011:
.LBB2013:
.LBB2014:
	sth 3,0(9)
.LVL181:
.LBE2014:
.LBE2013:
.LBB2015:
.LBB2016:
	sth 3,0(9)
.LVL182:
.LBE2016:
.LBE2015:
.LBB2017:
.LBB2018:
	sth 3,0(9)
	blr
.LBE2018:
.LBE2017:
	.cfi_endproc
.LFE104:
	.size	UploadVertexPCT6_Array, .-UploadVertexPCT6_Array
	.align 2
	.type	UploadVertexPCT7_Array, @function
UploadVertexPCT7_Array:
.LFB105:
	.loc 1 567 0
	.cfi_startproc
.LVL183:
.LBB2019:
.LBB2020:
	.loc 2 2193 0
	lis 9,wgPipe@ha
.LBE2020:
.LBE2019:
	.loc 1 567 0
	rlwinm 3,3,0,0xffff
.LVL184:
.LBB2022:
.LBB2021:
	.loc 2 2193 0
	lwz 9,wgPipe@l(9)
	sth 3,0(9)
.LVL185:
.LBE2021:
.LBE2022:
.LBB2023:
.LBB2024:
	.loc 2 2266 0
	sth 3,0(9)
.LVL186:
.LBE2024:
.LBE2023:
.LBB2025:
.LBB2026:
	.loc 2 2331 0
	sth 3,0(9)
.LVL187:
.LBE2026:
.LBE2025:
.LBB2027:
.LBB2028:
	sth 3,0(9)
.LVL188:
.LBE2028:
.LBE2027:
.LBB2029:
.LBB2030:
	sth 3,0(9)
.LVL189:
.LBE2030:
.LBE2029:
.LBB2031:
.LBB2032:
	sth 3,0(9)
.LVL190:
.LBE2032:
.LBE2031:
.LBB2033:
.LBB2034:
	sth 3,0(9)
.LVL191:
.LBE2034:
.LBE2033:
.LBB2035:
.LBB2036:
	sth 3,0(9)
.LVL192:
.LBE2036:
.LBE2035:
.LBB2037:
.LBB2038:
	sth 3,0(9)
	blr
.LBE2038:
.LBE2037:
	.cfi_endproc
.LFE105:
	.size	UploadVertexPCT7_Array, .-UploadVertexPCT7_Array
	.section	".text"
	.align 2
	.type	UploadVertexPNCT0_Array, @function
UploadVertexPNCT0_Array:
.LFB106:
	.loc 1 567 0
	.cfi_startproc
.LVL193:
.LBB2039:
.LBB2040:
	.loc 2 2193 0
	lis 9,wgPipe@ha
.LBE2040:
.LBE2039:
	.loc 1 567 0
	rlwinm 3,3,0,0xffff
.LVL194:
.LBB2042:
.LBB2041:
	.loc 2 2193 0
	lwz 9,wgPipe@l(9)
	sth 3,0(9)
.LVL195:
.LBE2041:
.LBE2042:
.LBB2043:
.LBB2044:
	.loc 2 2224 0
	sth 3,0(9)
.LVL196:
.LBE2044:
.LBE2043:
.LBB2045:
.LBB2046:
	.loc 2 2266 0
	sth 3,0(9)
	blr
.LBE2046:
.LBE2045:
	.cfi_endproc
.LFE106:
	.size	UploadVertexPNCT0_Array, .-UploadVertexPNCT0_Array
	.section	.text.unlikely
	.align 2
	.type	UploadVertexPNCT1_Array, @function
UploadVertexPNCT1_Array:
.LFB107:
	.loc 1 567 0
	.cfi_startproc
.LVL197:
.LBB2047:
.LBB2048:
	.loc 2 2193 0
	lis 9,wgPipe@ha
.LBE2048:
.LBE2047:
	.loc 1 567 0
	rlwinm 3,3,0,0xffff
.LVL198:
.LBB2050:
.LBB2049:
	.loc 2 2193 0
	lwz 9,wgPipe@l(9)
	sth 3,0(9)
.LVL199:
.LBE2049:
.LBE2050:
.LBB2051:
.LBB2052:
	.loc 2 2224 0
	sth 3,0(9)
.LVL200:
.LBE2052:
.LBE2051:
.LBB2053:
.LBB2054:
	.loc 2 2266 0
	sth 3,0(9)
.LVL201:
.LBE2054:
.LBE2053:
.LBB2055:
.LBB2056:
	.loc 2 2331 0
	sth 3,0(9)
	blr
.LBE2056:
.LBE2055:
	.cfi_endproc
.LFE107:
	.size	UploadVertexPNCT1_Array, .-UploadVertexPNCT1_Array
	.align 2
	.type	UploadVertexPNCT2_Array, @function
UploadVertexPNCT2_Array:
.LFB108:
	.loc 1 567 0
	.cfi_startproc
.LVL202:
.LBB2057:
.LBB2058:
	.loc 2 2193 0
	lis 9,wgPipe@ha
.LBE2058:
.LBE2057:
	.loc 1 567 0
	rlwinm 3,3,0,0xffff
.LVL203:
.LBB2060:
.LBB2059:
	.loc 2 2193 0
	lwz 9,wgPipe@l(9)
	sth 3,0(9)
.LVL204:
.LBE2059:
.LBE2060:
.LBB2061:
.LBB2062:
	.loc 2 2224 0
	sth 3,0(9)
.LVL205:
.LBE2062:
.LBE2061:
.LBB2063:
.LBB2064:
	.loc 2 2266 0
	sth 3,0(9)
.LVL206:
.LBE2064:
.LBE2063:
.LBB2065:
.LBB2066:
	.loc 2 2331 0
	sth 3,0(9)
.LVL207:
.LBE2066:
.LBE2065:
.LBB2067:
.LBB2068:
	sth 3,0(9)
	blr
.LBE2068:
.LBE2067:
	.cfi_endproc
.LFE108:
	.size	UploadVertexPNCT2_Array, .-UploadVertexPNCT2_Array
	.align 2
	.type	UploadVertexPNCT3_Array, @function
UploadVertexPNCT3_Array:
.LFB109:
	.loc 1 567 0
	.cfi_startproc
.LVL208:
.LBB2069:
.LBB2070:
	.loc 2 2193 0
	lis 9,wgPipe@ha
.LBE2070:
.LBE2069:
	.loc 1 567 0
	rlwinm 3,3,0,0xffff
.LVL209:
.LBB2072:
.LBB2071:
	.loc 2 2193 0
	lwz 9,wgPipe@l(9)
	sth 3,0(9)
.LVL210:
.LBE2071:
.LBE2072:
.LBB2073:
.LBB2074:
	.loc 2 2224 0
	sth 3,0(9)
.LVL211:
.LBE2074:
.LBE2073:
.LBB2075:
.LBB2076:
	.loc 2 2266 0
	sth 3,0(9)
.LVL212:
.LBE2076:
.LBE2075:
.LBB2077:
.LBB2078:
	.loc 2 2331 0
	sth 3,0(9)
.LVL213:
.LBE2078:
.LBE2077:
.LBB2079:
.LBB2080:
	sth 3,0(9)
.LVL214:
.LBE2080:
.LBE2079:
.LBB2081:
.LBB2082:
	sth 3,0(9)
	blr
.LBE2082:
.LBE2081:
	.cfi_endproc
.LFE109:
	.size	UploadVertexPNCT3_Array, .-UploadVertexPNCT3_Array
	.align 2
	.type	UploadVertexPNCT4_Array, @function
UploadVertexPNCT4_Array:
.LFB110:
	.loc 1 567 0
	.cfi_startproc
.LVL215:
.LBB2083:
.LBB2084:
	.loc 2 2193 0
	lis 9,wgPipe@ha
.LBE2084:
.LBE2083:
	.loc 1 567 0
	rlwinm 3,3,0,0xffff
.LVL216:
.LBB2086:
.LBB2085:
	.loc 2 2193 0
	lwz 9,wgPipe@l(9)
	sth 3,0(9)
.LVL217:
.LBE2085:
.LBE2086:
.LBB2087:
.LBB2088:
	.loc 2 2224 0
	sth 3,0(9)
.LVL218:
.LBE2088:
.LBE2087:
.LBB2089:
.LBB2090:
	.loc 2 2266 0
	sth 3,0(9)
.LVL219:
.LBE2090:
.LBE2089:
.LBB2091:
.LBB2092:
	.loc 2 2331 0
	sth 3,0(9)
.LVL220:
.LBE2092:
.LBE2091:
.LBB2093:
.LBB2094:
	sth 3,0(9)
.LVL221:
.LBE2094:
.LBE2093:
.LBB2095:
.LBB2096:
	sth 3,0(9)
.LVL222:
.LBE2096:
.LBE2095:
.LBB2097:
.LBB2098:
	sth 3,0(9)
	blr
.LBE2098:
.LBE2097:
	.cfi_endproc
.LFE110:
	.size	UploadVertexPNCT4_Array, .-UploadVertexPNCT4_Array
	.align 2
	.type	UploadVertexPNCT5_Array, @function
UploadVertexPNCT5_Array:
.LFB111:
	.loc 1 567 0
	.cfi_startproc
.LVL223:
.LBB2099:
.LBB2100:
	.loc 2 2193 0
	lis 9,wgPipe@ha
.LBE2100:
.LBE2099:
	.loc 1 567 0
	rlwinm 3,3,0,0xffff
.LVL224:
.LBB2102:
.LBB2101:
	.loc 2 2193 0
	lwz 9,wgPipe@l(9)
	sth 3,0(9)
.LVL225:
.LBE2101:
.LBE2102:
.LBB2103:
.LBB2104:
	.loc 2 2224 0
	sth 3,0(9)
.LVL226:
.LBE2104:
.LBE2103:
.LBB2105:
.LBB2106:
	.loc 2 2266 0
	sth 3,0(9)
.LVL227:
.LBE2106:
.LBE2105:
.LBB2107:
.LBB2108:
	.loc 2 2331 0
	sth 3,0(9)
.LVL228:
.LBE2108:
.LBE2107:
.LBB2109:
.LBB2110:
	sth 3,0(9)
.LVL229:
.LBE2110:
.LBE2109:
.LBB2111:
.LBB2112:
	sth 3,0(9)
.LVL230:
.LBE2112:
.LBE2111:
.LBB2113:
.LBB2114:
	sth 3,0(9)
.LVL231:
.LBE2114:
.LBE2113:
.LBB2115:
.LBB2116:
	sth 3,0(9)
	blr
.LBE2116:
.LBE2115:
	.cfi_endproc
.LFE111:
	.size	UploadVertexPNCT5_Array, .-UploadVertexPNCT5_Array
	.align 2
	.type	UploadVertexPNCT6_Array, @function
UploadVertexPNCT6_Array:
.LFB112:
	.loc 1 567 0
	.cfi_startproc
.LVL232:
.LBB2117:
.LBB2118:
	.loc 2 2193 0
	lis 9,wgPipe@ha
.LBE2118:
.LBE2117:
	.loc 1 567 0
	rlwinm 3,3,0,0xffff
.LVL233:
.LBB2120:
.LBB2119:
	.loc 2 2193 0
	lwz 9,wgPipe@l(9)
	sth 3,0(9)
.LVL234:
.LBE2119:
.LBE2120:
.LBB2121:
.LBB2122:
	.loc 2 2224 0
	sth 3,0(9)
.LVL235:
.LBE2122:
.LBE2121:
.LBB2123:
.LBB2124:
	.loc 2 2266 0
	sth 3,0(9)
.LVL236:
.LBE2124:
.LBE2123:
.LBB2125:
.LBB2126:
	.loc 2 2331 0
	sth 3,0(9)
.LVL237:
.LBE2126:
.LBE2125:
.LBB2127:
.LBB2128:
	sth 3,0(9)
.LVL238:
.LBE2128:
.LBE2127:
.LBB2129:
.LBB2130:
	sth 3,0(9)
.LVL239:
.LBE2130:
.LBE2129:
.LBB2131:
.LBB2132:
	sth 3,0(9)
.LVL240:
.LBE2132:
.LBE2131:
.LBB2133:
.LBB2134:
	sth 3,0(9)
.LVL241:
.LBE2134:
.LBE2133:
.LBB2135:
.LBB2136:
	sth 3,0(9)
	blr
.LBE2136:
.LBE2135:
	.cfi_endproc
.LFE112:
	.size	UploadVertexPNCT6_Array, .-UploadVertexPNCT6_Array
	.align 2
	.type	UploadVertexPNCT7_Array, @function
UploadVertexPNCT7_Array:
.LFB113:
	.loc 1 567 0
	.cfi_startproc
.LVL242:
.LBB2137:
.LBB2138:
	.loc 2 2193 0
	lis 9,wgPipe@ha
.LBE2138:
.LBE2137:
	.loc 1 567 0
	rlwinm 3,3,0,0xffff
.LVL243:
.LBB2140:
.LBB2139:
	.loc 2 2193 0
	lwz 9,wgPipe@l(9)
	sth 3,0(9)
.LVL244:
.LBE2139:
.LBE2140:
.LBB2141:
.LBB2142:
	.loc 2 2224 0
	sth 3,0(9)
.LVL245:
.LBE2142:
.LBE2141:
.LBB2143:
.LBB2144:
	.loc 2 2266 0
	sth 3,0(9)
.LVL246:
.LBE2144:
.LBE2143:
.LBB2145:
.LBB2146:
	.loc 2 2331 0
	sth 3,0(9)
.LVL247:
.LBE2146:
.LBE2145:
.LBB2147:
.LBB2148:
	sth 3,0(9)
.LVL248:
.LBE2148:
.LBE2147:
.LBB2149:
.LBB2150:
	sth 3,0(9)
.LVL249:
.LBE2150:
.LBE2149:
.LBB2151:
.LBB2152:
	sth 3,0(9)
.LVL250:
.LBE2152:
.LBE2151:
.LBB2153:
.LBB2154:
	sth 3,0(9)
.LVL251:
.LBE2154:
.LBE2153:
.LBB2155:
.LBB2156:
	sth 3,0(9)
.LVL252:
.LBE2156:
.LBE2155:
.LBB2157:
.LBB2158:
	sth 3,0(9)
	blr
.LBE2158:
.LBE2157:
	.cfi_endproc
.LFE113:
	.size	UploadVertexPNCT7_Array, .-UploadVertexPNCT7_Array
	.align 2
	.type	UploadVertexPT0_ElemGLubyte, @function
UploadVertexPT0_ElemGLubyte:
.LFB114:
	.loc 1 572 0
	.cfi_startproc
.LVL253:
	lis 9,.LANCHOR0@ha
	stwu 1,-24(1)
	.cfi_def_cfa_offset 24
.LVL254:
	.loc 1 572 0
	lwz 9,.LANCHOR0@l(9)
	lis 8,_tempcolorelement@ha
	lbzx 10,9,3
.LVL255:
.LBB2159:
.LBB2160:
	.loc 2 2193 0
	lis 9,wgPipe@ha
	lwz 9,wgPipe@l(9)
	sth 10,0(9)
.LVL256:
.LBE2160:
.LBE2159:
	.loc 1 572 0
	la 10,_tempcolorelement@l(8)
.LVL257:
	lfs 13,_tempcolorelement@l(8)
	lis 8,.LC2@ha
	lfs 0,.LC2@l(8)
	addi 8,1,8
	fmuls 13,13,0
	fctiwz 13,13
	stfiwx 13,0,8
	addi 8,1,12
	lfs 13,4(10)
	lwz 6,8(1)
	fmuls 13,13,0
	rlwinm 6,6,0,0xff
	fctiwz 13,13
	stfiwx 13,0,8
	addi 8,1,16
	lfs 13,8(10)
	lwz 7,12(1)
	fmuls 13,13,0
	rlwinm 7,7,0,0xff
	fctiwz 13,13
	stfiwx 13,0,8
	lfs 13,12(10)
	addi 10,1,20
	lwz 8,16(1)
	fmuls 0,13,0
	rlwinm 8,8,0,0xff
	fctiwz 0,0
	stfiwx 0,0,10
	lwz 10,20(1)
.LBB2161:
.LBB2162:
	.loc 2 2229 0
	stb 6,0(9)
.LBE2162:
.LBE2161:
	.loc 1 572 0
	rlwinm 10,10,0,0xff
.LVL258:
.LBB2164:
.LBB2163:
	.loc 2 2230 0
	stb 7,0(9)
	.loc 2 2231 0
	stb 8,0(9)
	.loc 2 2232 0
	stb 10,0(9)
.LBE2163:
.LBE2164:
	.loc 1 572 0
	addi 1,1,24
	.cfi_def_cfa_offset 0
	blr
	.cfi_endproc
.LFE114:
	.size	UploadVertexPT0_ElemGLubyte, .-UploadVertexPT0_ElemGLubyte
	.align 2
	.type	UploadVertexPT1_ElemGLubyte, @function
UploadVertexPT1_ElemGLubyte:
.LFB115:
	.loc 1 572 0
	.cfi_startproc
.LVL259:
	lis 9,.LANCHOR0@ha
	stwu 1,-24(1)
	.cfi_def_cfa_offset 24
.LVL260:
	.loc 1 572 0
	lwz 9,.LANCHOR0@l(9)
	lis 7,_tempcolorelement@ha
	la 10,_tempcolorelement@l(7)
	lbzx 8,9,3
.LVL261:
.LBB2165:
.LBB2166:
	.loc 2 2193 0
	lis 9,wgPipe@ha
	lwz 9,wgPipe@l(9)
	sth 8,0(9)
.LVL262:
.LBE2166:
.LBE2165:
	.loc 1 572 0
	lfs 13,_tempcolorelement@l(7)
	lis 7,.LC2@ha
	lfs 0,.LC2@l(7)
	addi 7,1,8
	fmuls 13,13,0
	fctiwz 13,13
	stfiwx 13,0,7
	addi 7,1,12
	lfs 13,4(10)
	lwz 5,8(1)
	fmuls 13,13,0
	rlwinm 5,5,0,0xff
	fctiwz 13,13
	stfiwx 13,0,7
	addi 7,1,16
	lfs 13,8(10)
	lwz 6,12(1)
	fmuls 13,13,0
	rlwinm 6,6,0,0xff
	fctiwz 13,13
	stfiwx 13,0,7
	lfs 13,12(10)
	addi 10,1,20
	lwz 7,16(1)
	fmuls 0,13,0
	rlwinm 7,7,0,0xff
	fctiwz 0,0
	stfiwx 0,0,10
	lwz 10,20(1)
.LBB2167:
.LBB2168:
	.loc 2 2229 0
	stb 5,0(9)
.LBE2168:
.LBE2167:
	.loc 1 572 0
	rlwinm 10,10,0,0xff
.LVL263:
.LBB2170:
.LBB2169:
	.loc 2 2230 0
	stb 6,0(9)
	.loc 2 2231 0
	stb 7,0(9)
	.loc 2 2232 0
	stb 10,0(9)
.LVL264:
.LBE2169:
.LBE2170:
.LBB2171:
.LBB2172:
	.loc 2 2331 0
	sth 8,0(9)
.LBE2172:
.LBE2171:
	.loc 1 572 0
	addi 1,1,24
	.cfi_def_cfa_offset 0
	blr
	.cfi_endproc
.LFE115:
	.size	UploadVertexPT1_ElemGLubyte, .-UploadVertexPT1_ElemGLubyte
	.align 2
	.type	UploadVertexPT2_ElemGLubyte, @function
UploadVertexPT2_ElemGLubyte:
.LFB116:
	.loc 1 572 0
	.cfi_startproc
.LVL265:
	lis 9,.LANCHOR0@ha
	stwu 1,-24(1)
	.cfi_def_cfa_offset 24
.LVL266:
	.loc 1 572 0
	lwz 9,.LANCHOR0@l(9)
	lis 7,_tempcolorelement@ha
	la 8,_tempcolorelement@l(7)
	lbzx 10,9,3
.LVL267:
.LBB2173:
.LBB2174:
	.loc 2 2193 0
	lis 9,wgPipe@ha
	lwz 9,wgPipe@l(9)
	sth 10,0(9)
.LVL268:
.LBE2174:
.LBE2173:
	.loc 1 572 0
	lfs 13,_tempcolorelement@l(7)
	lis 7,.LC2@ha
	lfs 0,.LC2@l(7)
	addi 7,1,8
	fmuls 13,13,0
	fctiwz 13,13
	stfiwx 13,0,7
	addi 7,1,12
	lfs 13,4(8)
	lwz 5,8(1)
	fmuls 13,13,0
	rlwinm 5,5,0,0xff
	fctiwz 13,13
	stfiwx 13,0,7
	addi 7,1,16
	lfs 13,8(8)
	lwz 6,12(1)
	fmuls 13,13,0
	rlwinm 6,6,0,0xff
	fctiwz 13,13
	stfiwx 13,0,7
	lfs 13,12(8)
	addi 8,1,20
	lwz 7,16(1)
	fmuls 0,13,0
	rlwinm 7,7,0,0xff
	fctiwz 0,0
	stfiwx 0,0,8
	lwz 8,20(1)
.LBB2175:
.LBB2176:
	.loc 2 2229 0
	stb 5,0(9)
.LBE2176:
.LBE2175:
	.loc 1 572 0
	rlwinm 8,8,0,0xff
.LVL269:
.LBB2178:
.LBB2177:
	.loc 2 2230 0
	stb 6,0(9)
	.loc 2 2231 0
	stb 7,0(9)
	.loc 2 2232 0
	stb 8,0(9)
.LVL270:
.LBE2177:
.LBE2178:
.LBB2179:
.LBB2180:
	.loc 2 2331 0
	sth 10,0(9)
.LVL271:
.LBE2180:
.LBE2179:
.LBB2181:
.LBB2182:
	sth 10,0(9)
.LBE2182:
.LBE2181:
	.loc 1 572 0
	addi 1,1,24
	.cfi_def_cfa_offset 0
	blr
	.cfi_endproc
.LFE116:
	.size	UploadVertexPT2_ElemGLubyte, .-UploadVertexPT2_ElemGLubyte
	.align 2
	.type	UploadVertexPT3_ElemGLubyte, @function
UploadVertexPT3_ElemGLubyte:
.LFB117:
	.loc 1 572 0
	.cfi_startproc
.LVL272:
	lis 9,.LANCHOR0@ha
	stwu 1,-24(1)
	.cfi_def_cfa_offset 24
.LVL273:
	.loc 1 572 0
	lwz 9,.LANCHOR0@l(9)
	lis 7,_tempcolorelement@ha
	la 8,_tempcolorelement@l(7)
	lbzx 10,9,3
.LVL274:
.LBB2183:
.LBB2184:
	.loc 2 2193 0
	lis 9,wgPipe@ha
	lwz 9,wgPipe@l(9)
	sth 10,0(9)
.LVL275:
.LBE2184:
.LBE2183:
	.loc 1 572 0
	lfs 13,_tempcolorelement@l(7)
	lis 7,.LC2@ha
	lfs 0,.LC2@l(7)
	addi 7,1,8
	fmuls 13,13,0
	fctiwz 13,13
	stfiwx 13,0,7
	addi 7,1,12
	lfs 13,4(8)
	lwz 5,8(1)
	fmuls 13,13,0
	rlwinm 5,5,0,0xff
	fctiwz 13,13
	stfiwx 13,0,7
	addi 7,1,16
	lfs 13,8(8)
	lwz 6,12(1)
	fmuls 13,13,0
	rlwinm 6,6,0,0xff
	fctiwz 13,13
	stfiwx 13,0,7
	lfs 13,12(8)
	addi 8,1,20
	lwz 7,16(1)
	fmuls 0,13,0
	rlwinm 7,7,0,0xff
	fctiwz 0,0
	stfiwx 0,0,8
	lwz 8,20(1)
.LBB2185:
.LBB2186:
	.loc 2 2229 0
	stb 5,0(9)
.LBE2186:
.LBE2185:
	.loc 1 572 0
	rlwinm 8,8,0,0xff
.LVL276:
.LBB2188:
.LBB2187:
	.loc 2 2230 0
	stb 6,0(9)
	.loc 2 2231 0
	stb 7,0(9)
	.loc 2 2232 0
	stb 8,0(9)
.LVL277:
.LBE2187:
.LBE2188:
.LBB2189:
.LBB2190:
	.loc 2 2331 0
	sth 10,0(9)
.LVL278:
.LBE2190:
.LBE2189:
.LBB2191:
.LBB2192:
	sth 10,0(9)
.LVL279:
.LBE2192:
.LBE2191:
.LBB2193:
.LBB2194:
	sth 10,0(9)
.LBE2194:
.LBE2193:
	.loc 1 572 0
	addi 1,1,24
	.cfi_def_cfa_offset 0
	blr
	.cfi_endproc
.LFE117:
	.size	UploadVertexPT3_ElemGLubyte, .-UploadVertexPT3_ElemGLubyte
	.align 2
	.type	UploadVertexPT4_ElemGLubyte, @function
UploadVertexPT4_ElemGLubyte:
.LFB118:
	.loc 1 572 0
	.cfi_startproc
.LVL280:
	lis 9,.LANCHOR0@ha
	stwu 1,-24(1)
	.cfi_def_cfa_offset 24
.LVL281:
	.loc 1 572 0
	lwz 9,.LANCHOR0@l(9)
	lis 7,_tempcolorelement@ha
	la 8,_tempcolorelement@l(7)
	lbzx 10,9,3
.LVL282:
.LBB2195:
.LBB2196:
	.loc 2 2193 0
	lis 9,wgPipe@ha
	lwz 9,wgPipe@l(9)
	sth 10,0(9)
.LVL283:
.LBE2196:
.LBE2195:
	.loc 1 572 0
	lfs 13,_tempcolorelement@l(7)
	lis 7,.LC2@ha
	lfs 0,.LC2@l(7)
	addi 7,1,8
	fmuls 13,13,0
	fctiwz 13,13
	stfiwx 13,0,7
	addi 7,1,12
	lfs 13,4(8)
	lwz 5,8(1)
	fmuls 13,13,0
	rlwinm 5,5,0,0xff
	fctiwz 13,13
	stfiwx 13,0,7
	addi 7,1,16
	lfs 13,8(8)
	lwz 6,12(1)
	fmuls 13,13,0
	rlwinm 6,6,0,0xff
	fctiwz 13,13
	stfiwx 13,0,7
	lfs 13,12(8)
	addi 8,1,20
	lwz 7,16(1)
	fmuls 0,13,0
	rlwinm 7,7,0,0xff
	fctiwz 0,0
	stfiwx 0,0,8
	lwz 8,20(1)
.LBB2197:
.LBB2198:
	.loc 2 2229 0
	stb 5,0(9)
.LBE2198:
.LBE2197:
	.loc 1 572 0
	rlwinm 8,8,0,0xff
.LVL284:
.LBB2200:
.LBB2199:
	.loc 2 2230 0
	stb 6,0(9)
	.loc 2 2231 0
	stb 7,0(9)
	.loc 2 2232 0
	stb 8,0(9)
.LVL285:
.LBE2199:
.LBE2200:
.LBB2201:
.LBB2202:
	.loc 2 2331 0
	sth 10,0(9)
.LVL286:
.LBE2202:
.LBE2201:
.LBB2203:
.LBB2204:
	sth 10,0(9)
.LVL287:
.LBE2204:
.LBE2203:
.LBB2205:
.LBB2206:
	sth 10,0(9)
.LVL288:
.LBE2206:
.LBE2205:
.LBB2207:
.LBB2208:
	sth 10,0(9)
.LBE2208:
.LBE2207:
	.loc 1 572 0
	addi 1,1,24
	.cfi_def_cfa_offset 0
	blr
	.cfi_endproc
.LFE118:
	.size	UploadVertexPT4_ElemGLubyte, .-UploadVertexPT4_ElemGLubyte
	.align 2
	.type	UploadVertexPT5_ElemGLubyte, @function
UploadVertexPT5_ElemGLubyte:
.LFB119:
	.loc 1 572 0
	.cfi_startproc
.LVL289:
	lis 9,.LANCHOR0@ha
	stwu 1,-24(1)
	.cfi_def_cfa_offset 24
.LVL290:
	.loc 1 572 0
	lwz 9,.LANCHOR0@l(9)
	lis 7,_tempcolorelement@ha
	la 8,_tempcolorelement@l(7)
	lbzx 10,9,3
.LVL291:
.LBB2209:
.LBB2210:
	.loc 2 2193 0
	lis 9,wgPipe@ha
	lwz 9,wgPipe@l(9)
	sth 10,0(9)
.LVL292:
.LBE2210:
.LBE2209:
	.loc 1 572 0
	lfs 13,_tempcolorelement@l(7)
	lis 7,.LC2@ha
	lfs 0,.LC2@l(7)
	addi 7,1,8
	fmuls 13,13,0
	fctiwz 13,13
	stfiwx 13,0,7
	addi 7,1,12
	lfs 13,4(8)
	lwz 5,8(1)
	fmuls 13,13,0
	rlwinm 5,5,0,0xff
	fctiwz 13,13
	stfiwx 13,0,7
	addi 7,1,16
	lfs 13,8(8)
	lwz 6,12(1)
	fmuls 13,13,0
	rlwinm 6,6,0,0xff
	fctiwz 13,13
	stfiwx 13,0,7
	lfs 13,12(8)
	addi 8,1,20
	lwz 7,16(1)
	fmuls 0,13,0
	rlwinm 7,7,0,0xff
	fctiwz 0,0
	stfiwx 0,0,8
	lwz 8,20(1)
.LBB2211:
.LBB2212:
	.loc 2 2229 0
	stb 5,0(9)
.LBE2212:
.LBE2211:
	.loc 1 572 0
	rlwinm 8,8,0,0xff
.LVL293:
.LBB2214:
.LBB2213:
	.loc 2 2230 0
	stb 6,0(9)
	.loc 2 2231 0
	stb 7,0(9)
	.loc 2 2232 0
	stb 8,0(9)
.LVL294:
.LBE2213:
.LBE2214:
.LBB2215:
.LBB2216:
	.loc 2 2331 0
	sth 10,0(9)
.LVL295:
.LBE2216:
.LBE2215:
.LBB2217:
.LBB2218:
	sth 10,0(9)
.LVL296:
.LBE2218:
.LBE2217:
.LBB2219:
.LBB2220:
	sth 10,0(9)
.LVL297:
.LBE2220:
.LBE2219:
.LBB2221:
.LBB2222:
	sth 10,0(9)
.LVL298:
.LBE2222:
.LBE2221:
.LBB2223:
.LBB2224:
	sth 10,0(9)
.LBE2224:
.LBE2223:
	.loc 1 572 0
	addi 1,1,24
	.cfi_def_cfa_offset 0
	blr
	.cfi_endproc
.LFE119:
	.size	UploadVertexPT5_ElemGLubyte, .-UploadVertexPT5_ElemGLubyte
	.align 2
	.type	UploadVertexPT6_ElemGLubyte, @function
UploadVertexPT6_ElemGLubyte:
.LFB120:
	.loc 1 572 0
	.cfi_startproc
.LVL299:
	lis 9,.LANCHOR0@ha
	stwu 1,-24(1)
	.cfi_def_cfa_offset 24
.LVL300:
	.loc 1 572 0
	lwz 9,.LANCHOR0@l(9)
	lis 7,_tempcolorelement@ha
	la 8,_tempcolorelement@l(7)
	lbzx 10,9,3
.LVL301:
.LBB2225:
.LBB2226:
	.loc 2 2193 0
	lis 9,wgPipe@ha
	lwz 9,wgPipe@l(9)
	sth 10,0(9)
.LVL302:
.LBE2226:
.LBE2225:
	.loc 1 572 0
	lfs 13,_tempcolorelement@l(7)
	lis 7,.LC2@ha
	lfs 0,.LC2@l(7)
	addi 7,1,8
	fmuls 13,13,0
	fctiwz 13,13
	stfiwx 13,0,7
	addi 7,1,12
	lfs 13,4(8)
	lwz 5,8(1)
	fmuls 13,13,0
	rlwinm 5,5,0,0xff
	fctiwz 13,13
	stfiwx 13,0,7
	addi 7,1,16
	lfs 13,8(8)
	lwz 6,12(1)
	fmuls 13,13,0
	rlwinm 6,6,0,0xff
	fctiwz 13,13
	stfiwx 13,0,7
	lfs 13,12(8)
	addi 8,1,20
	lwz 7,16(1)
	fmuls 0,13,0
	rlwinm 7,7,0,0xff
	fctiwz 0,0
	stfiwx 0,0,8
	lwz 8,20(1)
.LBB2227:
.LBB2228:
	.loc 2 2229 0
	stb 5,0(9)
.LBE2228:
.LBE2227:
	.loc 1 572 0
	rlwinm 8,8,0,0xff
.LVL303:
.LBB2230:
.LBB2229:
	.loc 2 2230 0
	stb 6,0(9)
	.loc 2 2231 0
	stb 7,0(9)
	.loc 2 2232 0
	stb 8,0(9)
.LVL304:
.LBE2229:
.LBE2230:
.LBB2231:
.LBB2232:
	.loc 2 2331 0
	sth 10,0(9)
.LVL305:
.LBE2232:
.LBE2231:
.LBB2233:
.LBB2234:
	sth 10,0(9)
.LVL306:
.LBE2234:
.LBE2233:
.LBB2235:
.LBB2236:
	sth 10,0(9)
.LVL307:
.LBE2236:
.LBE2235:
.LBB2237:
.LBB2238:
	sth 10,0(9)
.LVL308:
.LBE2238:
.LBE2237:
.LBB2239:
.LBB2240:
	sth 10,0(9)
.LVL309:
.LBE2240:
.LBE2239:
.LBB2241:
.LBB2242:
	sth 10,0(9)
.LBE2242:
.LBE2241:
	.loc 1 572 0
	addi 1,1,24
	.cfi_def_cfa_offset 0
	blr
	.cfi_endproc
.LFE120:
	.size	UploadVertexPT6_ElemGLubyte, .-UploadVertexPT6_ElemGLubyte
	.align 2
	.type	UploadVertexPT7_ElemGLubyte, @function
UploadVertexPT7_ElemGLubyte:
.LFB121:
	.loc 1 572 0
	.cfi_startproc
.LVL310:
	lis 9,.LANCHOR0@ha
	stwu 1,-24(1)
	.cfi_def_cfa_offset 24
.LVL311:
	.loc 1 572 0
	lwz 9,.LANCHOR0@l(9)
	lis 7,_tempcolorelement@ha
	la 8,_tempcolorelement@l(7)
	lbzx 10,9,3
.LVL312:
.LBB2243:
.LBB2244:
	.loc 2 2193 0
	lis 9,wgPipe@ha
	lwz 9,wgPipe@l(9)
	sth 10,0(9)
.LVL313:
.LBE2244:
.LBE2243:
	.loc 1 572 0
	lfs 13,_tempcolorelement@l(7)
	lis 7,.LC2@ha
	lfs 0,.LC2@l(7)
	addi 7,1,8
	fmuls 13,13,0
	fctiwz 13,13
	stfiwx 13,0,7
	addi 7,1,12
	lfs 13,4(8)
	lwz 5,8(1)
	fmuls 13,13,0
	rlwinm 5,5,0,0xff
	fctiwz 13,13
	stfiwx 13,0,7
	addi 7,1,16
	lfs 13,8(8)
	lwz 6,12(1)
	fmuls 13,13,0
	rlwinm 6,6,0,0xff
	fctiwz 13,13
	stfiwx 13,0,7
	lfs 13,12(8)
	addi 8,1,20
	lwz 7,16(1)
	fmuls 0,13,0
	rlwinm 7,7,0,0xff
	fctiwz 0,0
	stfiwx 0,0,8
	lwz 8,20(1)
.LBB2245:
.LBB2246:
	.loc 2 2229 0
	stb 5,0(9)
.LBE2246:
.LBE2245:
	.loc 1 572 0
	rlwinm 8,8,0,0xff
.LVL314:
.LBB2248:
.LBB2247:
	.loc 2 2230 0
	stb 6,0(9)
	.loc 2 2231 0
	stb 7,0(9)
	.loc 2 2232 0
	stb 8,0(9)
.LVL315:
.LBE2247:
.LBE2248:
.LBB2249:
.LBB2250:
	.loc 2 2331 0
	sth 10,0(9)
.LVL316:
.LBE2250:
.LBE2249:
.LBB2251:
.LBB2252:
	sth 10,0(9)
.LVL317:
.LBE2252:
.LBE2251:
.LBB2253:
.LBB2254:
	sth 10,0(9)
.LVL318:
.LBE2254:
.LBE2253:
.LBB2255:
.LBB2256:
	sth 10,0(9)
.LVL319:
.LBE2256:
.LBE2255:
.LBB2257:
.LBB2258:
	sth 10,0(9)
.LVL320:
.LBE2258:
.LBE2257:
.LBB2259:
.LBB2260:
	sth 10,0(9)
.LVL321:
.LBE2260:
.LBE2259:
.LBB2261:
.LBB2262:
	sth 10,0(9)
.LBE2262:
.LBE2261:
	.loc 1 572 0
	addi 1,1,24
	.cfi_def_cfa_offset 0
	blr
	.cfi_endproc
.LFE121:
	.size	UploadVertexPT7_ElemGLubyte, .-UploadVertexPT7_ElemGLubyte
	.align 2
	.type	UploadVertexPNT0_ElemGLubyte, @function
UploadVertexPNT0_ElemGLubyte:
.LFB122:
	.loc 1 572 0
	.cfi_startproc
.LVL322:
	lis 9,.LANCHOR0@ha
	stwu 1,-24(1)
	.cfi_def_cfa_offset 24
.LVL323:
	.loc 1 572 0
	lwz 9,.LANCHOR0@l(9)
	lis 8,_tempcolorelement@ha
	lbzx 10,9,3
.LVL324:
.LBB2263:
.LBB2264:
	.loc 2 2193 0
	lis 9,wgPipe@ha
	lwz 9,wgPipe@l(9)
	sth 10,0(9)
.LVL325:
.LBE2264:
.LBE2263:
.LBB2265:
.LBB2266:
	.loc 2 2224 0
	sth 10,0(9)
.LVL326:
.LBE2266:
.LBE2265:
	.loc 1 572 0
	la 10,_tempcolorelement@l(8)
.LVL327:
	lfs 13,_tempcolorelement@l(8)
	lis 8,.LC2@ha
	lfs 0,.LC2@l(8)
	addi 8,1,8
	fmuls 13,13,0
	fctiwz 13,13
	stfiwx 13,0,8
	addi 8,1,12
	lfs 13,4(10)
	lwz 6,8(1)
	fmuls 13,13,0
	rlwinm 6,6,0,0xff
	fctiwz 13,13
	stfiwx 13,0,8
	addi 8,1,16
	lfs 13,8(10)
	lwz 7,12(1)
	fmuls 13,13,0
	rlwinm 7,7,0,0xff
	fctiwz 13,13
	stfiwx 13,0,8
	lfs 13,12(10)
	addi 10,1,20
	lwz 8,16(1)
	fmuls 0,13,0
	rlwinm 8,8,0,0xff
	fctiwz 0,0
	stfiwx 0,0,10
	lwz 10,20(1)
.LBB2267:
.LBB2268:
	.loc 2 2229 0
	stb 6,0(9)
.LBE2268:
.LBE2267:
	.loc 1 572 0
	rlwinm 10,10,0,0xff
.LVL328:
.LBB2270:
.LBB2269:
	.loc 2 2230 0
	stb 7,0(9)
	.loc 2 2231 0
	stb 8,0(9)
	.loc 2 2232 0
	stb 10,0(9)
.LBE2269:
.LBE2270:
	.loc 1 572 0
	addi 1,1,24
	.cfi_def_cfa_offset 0
	blr
	.cfi_endproc
.LFE122:
	.size	UploadVertexPNT0_ElemGLubyte, .-UploadVertexPNT0_ElemGLubyte
	.align 2
	.type	UploadVertexPNT1_ElemGLubyte, @function
UploadVertexPNT1_ElemGLubyte:
.LFB123:
	.loc 1 572 0
	.cfi_startproc
.LVL329:
	lis 9,.LANCHOR0@ha
	stwu 1,-24(1)
	.cfi_def_cfa_offset 24
.LVL330:
	.loc 1 572 0
	lwz 9,.LANCHOR0@l(9)
	lis 7,_tempcolorelement@ha
	la 8,_tempcolorelement@l(7)
	lbzx 10,9,3
.LVL331:
.LBB2271:
.LBB2272:
	.loc 2 2193 0
	lis 9,wgPipe@ha
	lwz 9,wgPipe@l(9)
	sth 10,0(9)
.LVL332:
.LBE2272:
.LBE2271:
.LBB2273:
.LBB2274:
	.loc 2 2224 0
	sth 10,0(9)
.LVL333:
.LBE2274:
.LBE2273:
	.loc 1 572 0
	lfs 13,_tempcolorelement@l(7)
	lis 7,.LC2@ha
	lfs 0,.LC2@l(7)
	addi 7,1,8
	fmuls 13,13,0
	fctiwz 13,13
	stfiwx 13,0,7
	addi 7,1,12
	lfs 13,4(8)
	lwz 5,8(1)
	fmuls 13,13,0
	rlwinm 5,5,0,0xff
	fctiwz 13,13
	stfiwx 13,0,7
	addi 7,1,16
	lfs 13,8(8)
	lwz 6,12(1)
	fmuls 13,13,0
	rlwinm 6,6,0,0xff
	fctiwz 13,13
	stfiwx 13,0,7
	lfs 13,12(8)
	addi 8,1,20
	lwz 7,16(1)
	fmuls 0,13,0
	rlwinm 7,7,0,0xff
	fctiwz 0,0
	stfiwx 0,0,8
	lwz 8,20(1)
.LBB2275:
.LBB2276:
	.loc 2 2229 0
	stb 5,0(9)
.LBE2276:
.LBE2275:
	.loc 1 572 0
	rlwinm 8,8,0,0xff
.LVL334:
.LBB2278:
.LBB2277:
	.loc 2 2230 0
	stb 6,0(9)
	.loc 2 2231 0
	stb 7,0(9)
	.loc 2 2232 0
	stb 8,0(9)
.LVL335:
.LBE2277:
.LBE2278:
.LBB2279:
.LBB2280:
	.loc 2 2331 0
	sth 10,0(9)
.LBE2280:
.LBE2279:
	.loc 1 572 0
	addi 1,1,24
	.cfi_def_cfa_offset 0
	blr
	.cfi_endproc
.LFE123:
	.size	UploadVertexPNT1_ElemGLubyte, .-UploadVertexPNT1_ElemGLubyte
	.align 2
	.type	UploadVertexPNT2_ElemGLubyte, @function
UploadVertexPNT2_ElemGLubyte:
.LFB124:
	.loc 1 572 0
	.cfi_startproc
.LVL336:
	lis 9,.LANCHOR0@ha
	stwu 1,-24(1)
	.cfi_def_cfa_offset 24
.LVL337:
	.loc 1 572 0
	lwz 9,.LANCHOR0@l(9)
	lis 7,_tempcolorelement@ha
	la 8,_tempcolorelement@l(7)
	lbzx 10,9,3
.LVL338:
.LBB2281:
.LBB2282:
	.loc 2 2193 0
	lis 9,wgPipe@ha
	lwz 9,wgPipe@l(9)
	sth 10,0(9)
.LVL339:
.LBE2282:
.LBE2281:
.LBB2283:
.LBB2284:
	.loc 2 2224 0
	sth 10,0(9)
.LVL340:
.LBE2284:
.LBE2283:
	.loc 1 572 0
	lfs 13,_tempcolorelement@l(7)
	lis 7,.LC2@ha
	lfs 0,.LC2@l(7)
	addi 7,1,8
	fmuls 13,13,0
	fctiwz 13,13
	stfiwx 13,0,7
	addi 7,1,12
	lfs 13,4(8)
	lwz 5,8(1)
	fmuls 13,13,0
	rlwinm 5,5,0,0xff
	fctiwz 13,13
	stfiwx 13,0,7
	addi 7,1,16
	lfs 13,8(8)
	lwz 6,12(1)
	fmuls 13,13,0
	rlwinm 6,6,0,0xff
	fctiwz 13,13
	stfiwx 13,0,7
	lfs 13,12(8)
	addi 8,1,20
	lwz 7,16(1)
	fmuls 0,13,0
	rlwinm 7,7,0,0xff
	fctiwz 0,0
	stfiwx 0,0,8
	lwz 8,20(1)
.LBB2285:
.LBB2286:
	.loc 2 2229 0
	stb 5,0(9)
.LBE2286:
.LBE2285:
	.loc 1 572 0
	rlwinm 8,8,0,0xff
.LVL341:
.LBB2288:
.LBB2287:
	.loc 2 2230 0
	stb 6,0(9)
	.loc 2 2231 0
	stb 7,0(9)
	.loc 2 2232 0
	stb 8,0(9)
.LVL342:
.LBE2287:
.LBE2288:
.LBB2289:
.LBB2290:
	.loc 2 2331 0
	sth 10,0(9)
.LVL343:
.LBE2290:
.LBE2289:
.LBB2291:
.LBB2292:
	sth 10,0(9)
.LBE2292:
.LBE2291:
	.loc 1 572 0
	addi 1,1,24
	.cfi_def_cfa_offset 0
	blr
	.cfi_endproc
.LFE124:
	.size	UploadVertexPNT2_ElemGLubyte, .-UploadVertexPNT2_ElemGLubyte
	.align 2
	.type	UploadVertexPNT3_ElemGLubyte, @function
UploadVertexPNT3_ElemGLubyte:
.LFB125:
	.loc 1 572 0
	.cfi_startproc
.LVL344:
	lis 9,.LANCHOR0@ha
	stwu 1,-24(1)
	.cfi_def_cfa_offset 24
.LVL345:
	.loc 1 572 0
	lwz 9,.LANCHOR0@l(9)
	lis 7,_tempcolorelement@ha
	la 8,_tempcolorelement@l(7)
	lbzx 10,9,3
.LVL346:
.LBB2293:
.LBB2294:
	.loc 2 2193 0
	lis 9,wgPipe@ha
	lwz 9,wgPipe@l(9)
	sth 10,0(9)
.LVL347:
.LBE2294:
.LBE2293:
.LBB2295:
.LBB2296:
	.loc 2 2224 0
	sth 10,0(9)
.LVL348:
.LBE2296:
.LBE2295:
	.loc 1 572 0
	lfs 13,_tempcolorelement@l(7)
	lis 7,.LC2@ha
	lfs 0,.LC2@l(7)
	addi 7,1,8
	fmuls 13,13,0
	fctiwz 13,13
	stfiwx 13,0,7
	addi 7,1,12
	lfs 13,4(8)
	lwz 5,8(1)
	fmuls 13,13,0
	rlwinm 5,5,0,0xff
	fctiwz 13,13
	stfiwx 13,0,7
	addi 7,1,16
	lfs 13,8(8)
	lwz 6,12(1)
	fmuls 13,13,0
	rlwinm 6,6,0,0xff
	fctiwz 13,13
	stfiwx 13,0,7
	lfs 13,12(8)
	addi 8,1,20
	lwz 7,16(1)
	fmuls 0,13,0
	rlwinm 7,7,0,0xff
	fctiwz 0,0
	stfiwx 0,0,8
	lwz 8,20(1)
.LBB2297:
.LBB2298:
	.loc 2 2229 0
	stb 5,0(9)
.LBE2298:
.LBE2297:
	.loc 1 572 0
	rlwinm 8,8,0,0xff
.LVL349:
.LBB2300:
.LBB2299:
	.loc 2 2230 0
	stb 6,0(9)
	.loc 2 2231 0
	stb 7,0(9)
	.loc 2 2232 0
	stb 8,0(9)
.LVL350:
.LBE2299:
.LBE2300:
.LBB2301:
.LBB2302:
	.loc 2 2331 0
	sth 10,0(9)
.LVL351:
.LBE2302:
.LBE2301:
.LBB2303:
.LBB2304:
	sth 10,0(9)
.LVL352:
.LBE2304:
.LBE2303:
.LBB2305:
.LBB2306:
	sth 10,0(9)
.LBE2306:
.LBE2305:
	.loc 1 572 0
	addi 1,1,24
	.cfi_def_cfa_offset 0
	blr
	.cfi_endproc
.LFE125:
	.size	UploadVertexPNT3_ElemGLubyte, .-UploadVertexPNT3_ElemGLubyte
	.align 2
	.type	UploadVertexPNT4_ElemGLubyte, @function
UploadVertexPNT4_ElemGLubyte:
.LFB126:
	.loc 1 572 0
	.cfi_startproc
.LVL353:
	lis 9,.LANCHOR0@ha
	stwu 1,-24(1)
	.cfi_def_cfa_offset 24
.LVL354:
	.loc 1 572 0
	lwz 9,.LANCHOR0@l(9)
	lis 7,_tempcolorelement@ha
	la 8,_tempcolorelement@l(7)
	lbzx 10,9,3
.LVL355:
.LBB2307:
.LBB2308:
	.loc 2 2193 0
	lis 9,wgPipe@ha
	lwz 9,wgPipe@l(9)
	sth 10,0(9)
.LVL356:
.LBE2308:
.LBE2307:
.LBB2309:
.LBB2310:
	.loc 2 2224 0
	sth 10,0(9)
.LVL357:
.LBE2310:
.LBE2309:
	.loc 1 572 0
	lfs 13,_tempcolorelement@l(7)
	lis 7,.LC2@ha
	lfs 0,.LC2@l(7)
	addi 7,1,8
	fmuls 13,13,0
	fctiwz 13,13
	stfiwx 13,0,7
	addi 7,1,12
	lfs 13,4(8)
	lwz 5,8(1)
	fmuls 13,13,0
	rlwinm 5,5,0,0xff
	fctiwz 13,13
	stfiwx 13,0,7
	addi 7,1,16
	lfs 13,8(8)
	lwz 6,12(1)
	fmuls 13,13,0
	rlwinm 6,6,0,0xff
	fctiwz 13,13
	stfiwx 13,0,7
	lfs 13,12(8)
	addi 8,1,20
	lwz 7,16(1)
	fmuls 0,13,0
	rlwinm 7,7,0,0xff
	fctiwz 0,0
	stfiwx 0,0,8
	lwz 8,20(1)
.LBB2311:
.LBB2312:
	.loc 2 2229 0
	stb 5,0(9)
.LBE2312:
.LBE2311:
	.loc 1 572 0
	rlwinm 8,8,0,0xff
.LVL358:
.LBB2314:
.LBB2313:
	.loc 2 2230 0
	stb 6,0(9)
	.loc 2 2231 0
	stb 7,0(9)
	.loc 2 2232 0
	stb 8,0(9)
.LVL359:
.LBE2313:
.LBE2314:
.LBB2315:
.LBB2316:
	.loc 2 2331 0
	sth 10,0(9)
.LVL360:
.LBE2316:
.LBE2315:
.LBB2317:
.LBB2318:
	sth 10,0(9)
.LVL361:
.LBE2318:
.LBE2317:
.LBB2319:
.LBB2320:
	sth 10,0(9)
.LVL362:
.LBE2320:
.LBE2319:
.LBB2321:
.LBB2322:
	sth 10,0(9)
.LBE2322:
.LBE2321:
	.loc 1 572 0
	addi 1,1,24
	.cfi_def_cfa_offset 0
	blr
	.cfi_endproc
.LFE126:
	.size	UploadVertexPNT4_ElemGLubyte, .-UploadVertexPNT4_ElemGLubyte
	.align 2
	.type	UploadVertexPNT5_ElemGLubyte, @function
UploadVertexPNT5_ElemGLubyte:
.LFB127:
	.loc 1 572 0
	.cfi_startproc
.LVL363:
	lis 9,.LANCHOR0@ha
	stwu 1,-24(1)
	.cfi_def_cfa_offset 24
.LVL364:
	.loc 1 572 0
	lwz 9,.LANCHOR0@l(9)
	lis 7,_tempcolorelement@ha
	la 8,_tempcolorelement@l(7)
	lbzx 10,9,3
.LVL365:
.LBB2323:
.LBB2324:
	.loc 2 2193 0
	lis 9,wgPipe@ha
	lwz 9,wgPipe@l(9)
	sth 10,0(9)
.LVL366:
.LBE2324:
.LBE2323:
.LBB2325:
.LBB2326:
	.loc 2 2224 0
	sth 10,0(9)
.LVL367:
.LBE2326:
.LBE2325:
	.loc 1 572 0
	lfs 13,_tempcolorelement@l(7)
	lis 7,.LC2@ha
	lfs 0,.LC2@l(7)
	addi 7,1,8
	fmuls 13,13,0
	fctiwz 13,13
	stfiwx 13,0,7
	addi 7,1,12
	lfs 13,4(8)
	lwz 5,8(1)
	fmuls 13,13,0
	rlwinm 5,5,0,0xff
	fctiwz 13,13
	stfiwx 13,0,7
	addi 7,1,16
	lfs 13,8(8)
	lwz 6,12(1)
	fmuls 13,13,0
	rlwinm 6,6,0,0xff
	fctiwz 13,13
	stfiwx 13,0,7
	lfs 13,12(8)
	addi 8,1,20
	lwz 7,16(1)
	fmuls 0,13,0
	rlwinm 7,7,0,0xff
	fctiwz 0,0
	stfiwx 0,0,8
	lwz 8,20(1)
.LBB2327:
.LBB2328:
	.loc 2 2229 0
	stb 5,0(9)
.LBE2328:
.LBE2327:
	.loc 1 572 0
	rlwinm 8,8,0,0xff
.LVL368:
.LBB2330:
.LBB2329:
	.loc 2 2230 0
	stb 6,0(9)
	.loc 2 2231 0
	stb 7,0(9)
	.loc 2 2232 0
	stb 8,0(9)
.LVL369:
.LBE2329:
.LBE2330:
.LBB2331:
.LBB2332:
	.loc 2 2331 0
	sth 10,0(9)
.LVL370:
.LBE2332:
.LBE2331:
.LBB2333:
.LBB2334:
	sth 10,0(9)
.LVL371:
.LBE2334:
.LBE2333:
.LBB2335:
.LBB2336:
	sth 10,0(9)
.LVL372:
.LBE2336:
.LBE2335:
.LBB2337:
.LBB2338:
	sth 10,0(9)
.LVL373:
.LBE2338:
.LBE2337:
.LBB2339:
.LBB2340:
	sth 10,0(9)
.LBE2340:
.LBE2339:
	.loc 1 572 0
	addi 1,1,24
	.cfi_def_cfa_offset 0
	blr
	.cfi_endproc
.LFE127:
	.size	UploadVertexPNT5_ElemGLubyte, .-UploadVertexPNT5_ElemGLubyte
	.align 2
	.type	UploadVertexPNT6_ElemGLubyte, @function
UploadVertexPNT6_ElemGLubyte:
.LFB128:
	.loc 1 572 0
	.cfi_startproc
.LVL374:
	lis 9,.LANCHOR0@ha
	stwu 1,-24(1)
	.cfi_def_cfa_offset 24
.LVL375:
	.loc 1 572 0
	lwz 9,.LANCHOR0@l(9)
	lis 7,_tempcolorelement@ha
	la 8,_tempcolorelement@l(7)
	lbzx 10,9,3
.LVL376:
.LBB2341:
.LBB2342:
	.loc 2 2193 0
	lis 9,wgPipe@ha
	lwz 9,wgPipe@l(9)
	sth 10,0(9)
.LVL377:
.LBE2342:
.LBE2341:
.LBB2343:
.LBB2344:
	.loc 2 2224 0
	sth 10,0(9)
.LVL378:
.LBE2344:
.LBE2343:
	.loc 1 572 0
	lfs 13,_tempcolorelement@l(7)
	lis 7,.LC2@ha
	lfs 0,.LC2@l(7)
	addi 7,1,8
	fmuls 13,13,0
	fctiwz 13,13
	stfiwx 13,0,7
	addi 7,1,12
	lfs 13,4(8)
	lwz 5,8(1)
	fmuls 13,13,0
	rlwinm 5,5,0,0xff
	fctiwz 13,13
	stfiwx 13,0,7
	addi 7,1,16
	lfs 13,8(8)
	lwz 6,12(1)
	fmuls 13,13,0
	rlwinm 6,6,0,0xff
	fctiwz 13,13
	stfiwx 13,0,7
	lfs 13,12(8)
	addi 8,1,20
	lwz 7,16(1)
	fmuls 0,13,0
	rlwinm 7,7,0,0xff
	fctiwz 0,0
	stfiwx 0,0,8
	lwz 8,20(1)
.LBB2345:
.LBB2346:
	.loc 2 2229 0
	stb 5,0(9)
.LBE2346:
.LBE2345:
	.loc 1 572 0
	rlwinm 8,8,0,0xff
.LVL379:
.LBB2348:
.LBB2347:
	.loc 2 2230 0
	stb 6,0(9)
	.loc 2 2231 0
	stb 7,0(9)
	.loc 2 2232 0
	stb 8,0(9)
.LVL380:
.LBE2347:
.LBE2348:
.LBB2349:
.LBB2350:
	.loc 2 2331 0
	sth 10,0(9)
.LVL381:
.LBE2350:
.LBE2349:
.LBB2351:
.LBB2352:
	sth 10,0(9)
.LVL382:
.LBE2352:
.LBE2351:
.LBB2353:
.LBB2354:
	sth 10,0(9)
.LVL383:
.LBE2354:
.LBE2353:
.LBB2355:
.LBB2356:
	sth 10,0(9)
.LVL384:
.LBE2356:
.LBE2355:
.LBB2357:
.LBB2358:
	sth 10,0(9)
.LVL385:
.LBE2358:
.LBE2357:
.LBB2359:
.LBB2360:
	sth 10,0(9)
.LBE2360:
.LBE2359:
	.loc 1 572 0
	addi 1,1,24
	.cfi_def_cfa_offset 0
	blr
	.cfi_endproc
.LFE128:
	.size	UploadVertexPNT6_ElemGLubyte, .-UploadVertexPNT6_ElemGLubyte
	.align 2
	.type	UploadVertexPNT7_ElemGLubyte, @function
UploadVertexPNT7_ElemGLubyte:
.LFB129:
	.loc 1 572 0
	.cfi_startproc
.LVL386:
	lis 9,.LANCHOR0@ha
	stwu 1,-24(1)
	.cfi_def_cfa_offset 24
.LVL387:
	.loc 1 572 0
	lwz 9,.LANCHOR0@l(9)
	lis 7,_tempcolorelement@ha
	la 8,_tempcolorelement@l(7)
	lbzx 10,9,3
.LVL388:
.LBB2361:
.LBB2362:
	.loc 2 2193 0
	lis 9,wgPipe@ha
	lwz 9,wgPipe@l(9)
	sth 10,0(9)
.LVL389:
.LBE2362:
.LBE2361:
.LBB2363:
.LBB2364:
	.loc 2 2224 0
	sth 10,0(9)
.LVL390:
.LBE2364:
.LBE2363:
	.loc 1 572 0
	lfs 13,_tempcolorelement@l(7)
	lis 7,.LC2@ha
	lfs 0,.LC2@l(7)
	addi 7,1,8
	fmuls 13,13,0
	fctiwz 13,13
	stfiwx 13,0,7
	addi 7,1,12
	lfs 13,4(8)
	lwz 5,8(1)
	fmuls 13,13,0
	rlwinm 5,5,0,0xff
	fctiwz 13,13
	stfiwx 13,0,7
	addi 7,1,16
	lfs 13,8(8)
	lwz 6,12(1)
	fmuls 13,13,0
	rlwinm 6,6,0,0xff
	fctiwz 13,13
	stfiwx 13,0,7
	lfs 13,12(8)
	addi 8,1,20
	lwz 7,16(1)
	fmuls 0,13,0
	rlwinm 7,7,0,0xff
	fctiwz 0,0
	stfiwx 0,0,8
	lwz 8,20(1)
.LBB2365:
.LBB2366:
	.loc 2 2229 0
	stb 5,0(9)
.LBE2366:
.LBE2365:
	.loc 1 572 0
	rlwinm 8,8,0,0xff
.LVL391:
.LBB2368:
.LBB2367:
	.loc 2 2230 0
	stb 6,0(9)
	.loc 2 2231 0
	stb 7,0(9)
	.loc 2 2232 0
	stb 8,0(9)
.LVL392:
.LBE2367:
.LBE2368:
.LBB2369:
.LBB2370:
	.loc 2 2331 0
	sth 10,0(9)
.LVL393:
.LBE2370:
.LBE2369:
.LBB2371:
.LBB2372:
	sth 10,0(9)
.LVL394:
.LBE2372:
.LBE2371:
.LBB2373:
.LBB2374:
	sth 10,0(9)
.LVL395:
.LBE2374:
.LBE2373:
.LBB2375:
.LBB2376:
	sth 10,0(9)
.LVL396:
.LBE2376:
.LBE2375:
.LBB2377:
.LBB2378:
	sth 10,0(9)
.LVL397:
.LBE2378:
.LBE2377:
.LBB2379:
.LBB2380:
	sth 10,0(9)
.LVL398:
.LBE2380:
.LBE2379:
.LBB2381:
.LBB2382:
	sth 10,0(9)
.LBE2382:
.LBE2381:
	.loc 1 572 0
	addi 1,1,24
	.cfi_def_cfa_offset 0
	blr
	.cfi_endproc
.LFE129:
	.size	UploadVertexPNT7_ElemGLubyte, .-UploadVertexPNT7_ElemGLubyte
	.align 2
	.type	UploadVertexPCT0_ElemGLubyte, @function
UploadVertexPCT0_ElemGLubyte:
.LFB130:
	.loc 1 572 0
	.cfi_startproc
.LVL399:
	.loc 1 572 0
	lis 9,.LANCHOR0@ha
	lwz 9,.LANCHOR0@l(9)
	lbzx 10,9,3
.LVL400:
.LBB2383:
.LBB2384:
	.loc 2 2193 0
	lis 9,wgPipe@ha
	lwz 9,wgPipe@l(9)
	sth 10,0(9)
.LVL401:
.LBE2384:
.LBE2383:
.LBB2385:
.LBB2386:
	.loc 2 2266 0
	sth 10,0(9)
	blr
.LBE2386:
.LBE2385:
	.cfi_endproc
.LFE130:
	.size	UploadVertexPCT0_ElemGLubyte, .-UploadVertexPCT0_ElemGLubyte
	.align 2
	.type	UploadVertexPCT1_ElemGLubyte, @function
UploadVertexPCT1_ElemGLubyte:
.LFB131:
	.loc 1 572 0
	.cfi_startproc
.LVL402:
	.loc 1 572 0
	lis 9,.LANCHOR0@ha
	lwz 9,.LANCHOR0@l(9)
	lbzx 10,9,3
.LVL403:
.LBB2387:
.LBB2388:
	.loc 2 2193 0
	lis 9,wgPipe@ha
	lwz 9,wgPipe@l(9)
	sth 10,0(9)
.LVL404:
.LBE2388:
.LBE2387:
.LBB2389:
.LBB2390:
	.loc 2 2266 0
	sth 10,0(9)
.LVL405:
.LBE2390:
.LBE2389:
.LBB2391:
.LBB2392:
	.loc 2 2331 0
	sth 10,0(9)
	blr
.LBE2392:
.LBE2391:
	.cfi_endproc
.LFE131:
	.size	UploadVertexPCT1_ElemGLubyte, .-UploadVertexPCT1_ElemGLubyte
	.align 2
	.type	UploadVertexPCT2_ElemGLubyte, @function
UploadVertexPCT2_ElemGLubyte:
.LFB132:
	.loc 1 572 0
	.cfi_startproc
.LVL406:
	.loc 1 572 0
	lis 9,.LANCHOR0@ha
	lwz 9,.LANCHOR0@l(9)
	lbzx 10,9,3
.LVL407:
.LBB2393:
.LBB2394:
	.loc 2 2193 0
	lis 9,wgPipe@ha
	lwz 9,wgPipe@l(9)
	sth 10,0(9)
.LVL408:
.LBE2394:
.LBE2393:
.LBB2395:
.LBB2396:
	.loc 2 2266 0
	sth 10,0(9)
.LVL409:
.LBE2396:
.LBE2395:
.LBB2397:
.LBB2398:
	.loc 2 2331 0
	sth 10,0(9)
.LVL410:
.LBE2398:
.LBE2397:
.LBB2399:
.LBB2400:
	sth 10,0(9)
	blr
.LBE2400:
.LBE2399:
	.cfi_endproc
.LFE132:
	.size	UploadVertexPCT2_ElemGLubyte, .-UploadVertexPCT2_ElemGLubyte
	.align 2
	.type	UploadVertexPCT3_ElemGLubyte, @function
UploadVertexPCT3_ElemGLubyte:
.LFB133:
	.loc 1 572 0
	.cfi_startproc
.LVL411:
	.loc 1 572 0
	lis 9,.LANCHOR0@ha
	lwz 9,.LANCHOR0@l(9)
	lbzx 10,9,3
.LVL412:
.LBB2401:
.LBB2402:
	.loc 2 2193 0
	lis 9,wgPipe@ha
	lwz 9,wgPipe@l(9)
	sth 10,0(9)
.LVL413:
.LBE2402:
.LBE2401:
.LBB2403:
.LBB2404:
	.loc 2 2266 0
	sth 10,0(9)
.LVL414:
.LBE2404:
.LBE2403:
.LBB2405:
.LBB2406:
	.loc 2 2331 0
	sth 10,0(9)
.LVL415:
.LBE2406:
.LBE2405:
.LBB2407:
.LBB2408:
	sth 10,0(9)
.LVL416:
.LBE2408:
.LBE2407:
.LBB2409:
.LBB2410:
	sth 10,0(9)
	blr
.LBE2410:
.LBE2409:
	.cfi_endproc
.LFE133:
	.size	UploadVertexPCT3_ElemGLubyte, .-UploadVertexPCT3_ElemGLubyte
	.align 2
	.type	UploadVertexPCT4_ElemGLubyte, @function
UploadVertexPCT4_ElemGLubyte:
.LFB134:
	.loc 1 572 0
	.cfi_startproc
.LVL417:
	.loc 1 572 0
	lis 9,.LANCHOR0@ha
	lwz 9,.LANCHOR0@l(9)
	lbzx 10,9,3
.LVL418:
.LBB2411:
.LBB2412:
	.loc 2 2193 0
	lis 9,wgPipe@ha
	lwz 9,wgPipe@l(9)
	sth 10,0(9)
.LVL419:
.LBE2412:
.LBE2411:
.LBB2413:
.LBB2414:
	.loc 2 2266 0
	sth 10,0(9)
.LVL420:
.LBE2414:
.LBE2413:
.LBB2415:
.LBB2416:
	.loc 2 2331 0
	sth 10,0(9)
.LVL421:
.LBE2416:
.LBE2415:
.LBB2417:
.LBB2418:
	sth 10,0(9)
.LVL422:
.LBE2418:
.LBE2417:
.LBB2419:
.LBB2420:
	sth 10,0(9)
.LVL423:
.LBE2420:
.LBE2419:
.LBB2421:
.LBB2422:
	sth 10,0(9)
	blr
.LBE2422:
.LBE2421:
	.cfi_endproc
.LFE134:
	.size	UploadVertexPCT4_ElemGLubyte, .-UploadVertexPCT4_ElemGLubyte
	.align 2
	.type	UploadVertexPCT5_ElemGLubyte, @function
UploadVertexPCT5_ElemGLubyte:
.LFB135:
	.loc 1 572 0
	.cfi_startproc
.LVL424:
	.loc 1 572 0
	lis 9,.LANCHOR0@ha
	lwz 9,.LANCHOR0@l(9)
	lbzx 10,9,3
.LVL425:
.LBB2423:
.LBB2424:
	.loc 2 2193 0
	lis 9,wgPipe@ha
	lwz 9,wgPipe@l(9)
	sth 10,0(9)
.LVL426:
.LBE2424:
.LBE2423:
.LBB2425:
.LBB2426:
	.loc 2 2266 0
	sth 10,0(9)
.LVL427:
.LBE2426:
.LBE2425:
.LBB2427:
.LBB2428:
	.loc 2 2331 0
	sth 10,0(9)
.LVL428:
.LBE2428:
.LBE2427:
.LBB2429:
.LBB2430:
	sth 10,0(9)
.LVL429:
.LBE2430:
.LBE2429:
.LBB2431:
.LBB2432:
	sth 10,0(9)
.LVL430:
.LBE2432:
.LBE2431:
.LBB2433:
.LBB2434:
	sth 10,0(9)
.LVL431:
.LBE2434:
.LBE2433:
.LBB2435:
.LBB2436:
	sth 10,0(9)
	blr
.LBE2436:
.LBE2435:
	.cfi_endproc
.LFE135:
	.size	UploadVertexPCT5_ElemGLubyte, .-UploadVertexPCT5_ElemGLubyte
	.align 2
	.type	UploadVertexPCT6_ElemGLubyte, @function
UploadVertexPCT6_ElemGLubyte:
.LFB136:
	.loc 1 572 0
	.cfi_startproc
.LVL432:
	.loc 1 572 0
	lis 9,.LANCHOR0@ha
	lwz 9,.LANCHOR0@l(9)
	lbzx 10,9,3
.LVL433:
.LBB2437:
.LBB2438:
	.loc 2 2193 0
	lis 9,wgPipe@ha
	lwz 9,wgPipe@l(9)
	sth 10,0(9)
.LVL434:
.LBE2438:
.LBE2437:
.LBB2439:
.LBB2440:
	.loc 2 2266 0
	sth 10,0(9)
.LVL435:
.LBE2440:
.LBE2439:
.LBB2441:
.LBB2442:
	.loc 2 2331 0
	sth 10,0(9)
.LVL436:
.LBE2442:
.LBE2441:
.LBB2443:
.LBB2444:
	sth 10,0(9)
.LVL437:
.LBE2444:
.LBE2443:
.LBB2445:
.LBB2446:
	sth 10,0(9)
.LVL438:
.LBE2446:
.LBE2445:
.LBB2447:
.LBB2448:
	sth 10,0(9)
.LVL439:
.LBE2448:
.LBE2447:
.LBB2449:
.LBB2450:
	sth 10,0(9)
.LVL440:
.LBE2450:
.LBE2449:
.LBB2451:
.LBB2452:
	sth 10,0(9)
	blr
.LBE2452:
.LBE2451:
	.cfi_endproc
.LFE136:
	.size	UploadVertexPCT6_ElemGLubyte, .-UploadVertexPCT6_ElemGLubyte
	.align 2
	.type	UploadVertexPCT7_ElemGLubyte, @function
UploadVertexPCT7_ElemGLubyte:
.LFB137:
	.loc 1 572 0
	.cfi_startproc
.LVL441:
	.loc 1 572 0
	lis 9,.LANCHOR0@ha
	lwz 9,.LANCHOR0@l(9)
	lbzx 10,9,3
.LVL442:
.LBB2453:
.LBB2454:
	.loc 2 2193 0
	lis 9,wgPipe@ha
	lwz 9,wgPipe@l(9)
	sth 10,0(9)
.LVL443:
.LBE2454:
.LBE2453:
.LBB2455:
.LBB2456:
	.loc 2 2266 0
	sth 10,0(9)
.LVL444:
.LBE2456:
.LBE2455:
.LBB2457:
.LBB2458:
	.loc 2 2331 0
	sth 10,0(9)
.LVL445:
.LBE2458:
.LBE2457:
.LBB2459:
.LBB2460:
	sth 10,0(9)
.LVL446:
.LBE2460:
.LBE2459:
.LBB2461:
.LBB2462:
	sth 10,0(9)
.LVL447:
.LBE2462:
.LBE2461:
.LBB2463:
.LBB2464:
	sth 10,0(9)
.LVL448:
.LBE2464:
.LBE2463:
.LBB2465:
.LBB2466:
	sth 10,0(9)
.LVL449:
.LBE2466:
.LBE2465:
.LBB2467:
.LBB2468:
	sth 10,0(9)
.LVL450:
.LBE2468:
.LBE2467:
.LBB2469:
.LBB2470:
	sth 10,0(9)
	blr
.LBE2470:
.LBE2469:
	.cfi_endproc
.LFE137:
	.size	UploadVertexPCT7_ElemGLubyte, .-UploadVertexPCT7_ElemGLubyte
	.align 2
	.type	UploadVertexPNCT0_ElemGLubyte, @function
UploadVertexPNCT0_ElemGLubyte:
.LFB138:
	.loc 1 572 0
	.cfi_startproc
.LVL451:
	.loc 1 572 0
	lis 9,.LANCHOR0@ha
	lwz 9,.LANCHOR0@l(9)
	lbzx 10,9,3
.LVL452:
.LBB2471:
.LBB2472:
	.loc 2 2193 0
	lis 9,wgPipe@ha
	lwz 9,wgPipe@l(9)
	sth 10,0(9)
.LVL453:
.LBE2472:
.LBE2471:
.LBB2473:
.LBB2474:
	.loc 2 2224 0
	sth 10,0(9)
.LVL454:
.LBE2474:
.LBE2473:
.LBB2475:
.LBB2476:
	.loc 2 2266 0
	sth 10,0(9)
	blr
.LBE2476:
.LBE2475:
	.cfi_endproc
.LFE138:
	.size	UploadVertexPNCT0_ElemGLubyte, .-UploadVertexPNCT0_ElemGLubyte
	.align 2
	.type	UploadVertexPNCT1_ElemGLubyte, @function
UploadVertexPNCT1_ElemGLubyte:
.LFB139:
	.loc 1 572 0
	.cfi_startproc
.LVL455:
	.loc 1 572 0
	lis 9,.LANCHOR0@ha
	lwz 9,.LANCHOR0@l(9)
	lbzx 10,9,3
.LVL456:
.LBB2477:
.LBB2478:
	.loc 2 2193 0
	lis 9,wgPipe@ha
	lwz 9,wgPipe@l(9)
	sth 10,0(9)
.LVL457:
.LBE2478:
.LBE2477:
.LBB2479:
.LBB2480:
	.loc 2 2224 0
	sth 10,0(9)
.LVL458:
.LBE2480:
.LBE2479:
.LBB2481:
.LBB2482:
	.loc 2 2266 0
	sth 10,0(9)
.LVL459:
.LBE2482:
.LBE2481:
.LBB2483:
.LBB2484:
	.loc 2 2331 0
	sth 10,0(9)
	blr
.LBE2484:
.LBE2483:
	.cfi_endproc
.LFE139:
	.size	UploadVertexPNCT1_ElemGLubyte, .-UploadVertexPNCT1_ElemGLubyte
	.align 2
	.type	UploadVertexPNCT2_ElemGLubyte, @function
UploadVertexPNCT2_ElemGLubyte:
.LFB140:
	.loc 1 572 0
	.cfi_startproc
.LVL460:
	.loc 1 572 0
	lis 9,.LANCHOR0@ha
	lwz 9,.LANCHOR0@l(9)
	lbzx 10,9,3
.LVL461:
.LBB2485:
.LBB2486:
	.loc 2 2193 0
	lis 9,wgPipe@ha
	lwz 9,wgPipe@l(9)
	sth 10,0(9)
.LVL462:
.LBE2486:
.LBE2485:
.LBB2487:
.LBB2488:
	.loc 2 2224 0
	sth 10,0(9)
.LVL463:
.LBE2488:
.LBE2487:
.LBB2489:
.LBB2490:
	.loc 2 2266 0
	sth 10,0(9)
.LVL464:
.LBE2490:
.LBE2489:
.LBB2491:
.LBB2492:
	.loc 2 2331 0
	sth 10,0(9)
.LVL465:
.LBE2492:
.LBE2491:
.LBB2493:
.LBB2494:
	sth 10,0(9)
	blr
.LBE2494:
.LBE2493:
	.cfi_endproc
.LFE140:
	.size	UploadVertexPNCT2_ElemGLubyte, .-UploadVertexPNCT2_ElemGLubyte
	.align 2
	.type	UploadVertexPNCT3_ElemGLubyte, @function
UploadVertexPNCT3_ElemGLubyte:
.LFB141:
	.loc 1 572 0
	.cfi_startproc
.LVL466:
	.loc 1 572 0
	lis 9,.LANCHOR0@ha
	lwz 9,.LANCHOR0@l(9)
	lbzx 10,9,3
.LVL467:
.LBB2495:
.LBB2496:
	.loc 2 2193 0
	lis 9,wgPipe@ha
	lwz 9,wgPipe@l(9)
	sth 10,0(9)
.LVL468:
.LBE2496:
.LBE2495:
.LBB2497:
.LBB2498:
	.loc 2 2224 0
	sth 10,0(9)
.LVL469:
.LBE2498:
.LBE2497:
.LBB2499:
.LBB2500:
	.loc 2 2266 0
	sth 10,0(9)
.LVL470:
.LBE2500:
.LBE2499:
.LBB2501:
.LBB2502:
	.loc 2 2331 0
	sth 10,0(9)
.LVL471:
.LBE2502:
.LBE2501:
.LBB2503:
.LBB2504:
	sth 10,0(9)
.LVL472:
.LBE2504:
.LBE2503:
.LBB2505:
.LBB2506:
	sth 10,0(9)
	blr
.LBE2506:
.LBE2505:
	.cfi_endproc
.LFE141:
	.size	UploadVertexPNCT3_ElemGLubyte, .-UploadVertexPNCT3_ElemGLubyte
	.align 2
	.type	UploadVertexPNCT4_ElemGLubyte, @function
UploadVertexPNCT4_ElemGLubyte:
.LFB142:
	.loc 1 572 0
	.cfi_startproc
.LVL473:
	.loc 1 572 0
	lis 9,.LANCHOR0@ha
	lwz 9,.LANCHOR0@l(9)
	lbzx 10,9,3
.LVL474:
.LBB2507:
.LBB2508:
	.loc 2 2193 0
	lis 9,wgPipe@ha
	lwz 9,wgPipe@l(9)
	sth 10,0(9)
.LVL475:
.LBE2508:
.LBE2507:
.LBB2509:
.LBB2510:
	.loc 2 2224 0
	sth 10,0(9)
.LVL476:
.LBE2510:
.LBE2509:
.LBB2511:
.LBB2512:
	.loc 2 2266 0
	sth 10,0(9)
.LVL477:
.LBE2512:
.LBE2511:
.LBB2513:
.LBB2514:
	.loc 2 2331 0
	sth 10,0(9)
.LVL478:
.LBE2514:
.LBE2513:
.LBB2515:
.LBB2516:
	sth 10,0(9)
.LVL479:
.LBE2516:
.LBE2515:
.LBB2517:
.LBB2518:
	sth 10,0(9)
.LVL480:
.LBE2518:
.LBE2517:
.LBB2519:
.LBB2520:
	sth 10,0(9)
	blr
.LBE2520:
.LBE2519:
	.cfi_endproc
.LFE142:
	.size	UploadVertexPNCT4_ElemGLubyte, .-UploadVertexPNCT4_ElemGLubyte
	.align 2
	.type	UploadVertexPNCT5_ElemGLubyte, @function
UploadVertexPNCT5_ElemGLubyte:
.LFB143:
	.loc 1 572 0
	.cfi_startproc
.LVL481:
	.loc 1 572 0
	lis 9,.LANCHOR0@ha
	lwz 9,.LANCHOR0@l(9)
	lbzx 10,9,3
.LVL482:
.LBB2521:
.LBB2522:
	.loc 2 2193 0
	lis 9,wgPipe@ha
	lwz 9,wgPipe@l(9)
	sth 10,0(9)
.LVL483:
.LBE2522:
.LBE2521:
.LBB2523:
.LBB2524:
	.loc 2 2224 0
	sth 10,0(9)
.LVL484:
.LBE2524:
.LBE2523:
.LBB2525:
.LBB2526:
	.loc 2 2266 0
	sth 10,0(9)
.LVL485:
.LBE2526:
.LBE2525:
.LBB2527:
.LBB2528:
	.loc 2 2331 0
	sth 10,0(9)
.LVL486:
.LBE2528:
.LBE2527:
.LBB2529:
.LBB2530:
	sth 10,0(9)
.LVL487:
.LBE2530:
.LBE2529:
.LBB2531:
.LBB2532:
	sth 10,0(9)
.LVL488:
.LBE2532:
.LBE2531:
.LBB2533:
.LBB2534:
	sth 10,0(9)
.LVL489:
.LBE2534:
.LBE2533:
.LBB2535:
.LBB2536:
	sth 10,0(9)
	blr
.LBE2536:
.LBE2535:
	.cfi_endproc
.LFE143:
	.size	UploadVertexPNCT5_ElemGLubyte, .-UploadVertexPNCT5_ElemGLubyte
	.align 2
	.type	UploadVertexPNCT6_ElemGLubyte, @function
UploadVertexPNCT6_ElemGLubyte:
.LFB144:
	.loc 1 572 0
	.cfi_startproc
.LVL490:
	.loc 1 572 0
	lis 9,.LANCHOR0@ha
	lwz 9,.LANCHOR0@l(9)
	lbzx 10,9,3
.LVL491:
.LBB2537:
.LBB2538:
	.loc 2 2193 0
	lis 9,wgPipe@ha
	lwz 9,wgPipe@l(9)
	sth 10,0(9)
.LVL492:
.LBE2538:
.LBE2537:
.LBB2539:
.LBB2540:
	.loc 2 2224 0
	sth 10,0(9)
.LVL493:
.LBE2540:
.LBE2539:
.LBB2541:
.LBB2542:
	.loc 2 2266 0
	sth 10,0(9)
.LVL494:
.LBE2542:
.LBE2541:
.LBB2543:
.LBB2544:
	.loc 2 2331 0
	sth 10,0(9)
.LVL495:
.LBE2544:
.LBE2543:
.LBB2545:
.LBB2546:
	sth 10,0(9)
.LVL496:
.LBE2546:
.LBE2545:
.LBB2547:
.LBB2548:
	sth 10,0(9)
.LVL497:
.LBE2548:
.LBE2547:
.LBB2549:
.LBB2550:
	sth 10,0(9)
.LVL498:
.LBE2550:
.LBE2549:
.LBB2551:
.LBB2552:
	sth 10,0(9)
.LVL499:
.LBE2552:
.LBE2551:
.LBB2553:
.LBB2554:
	sth 10,0(9)
	blr
.LBE2554:
.LBE2553:
	.cfi_endproc
.LFE144:
	.size	UploadVertexPNCT6_ElemGLubyte, .-UploadVertexPNCT6_ElemGLubyte
	.align 2
	.type	UploadVertexPNCT7_ElemGLubyte, @function
UploadVertexPNCT7_ElemGLubyte:
.LFB145:
	.loc 1 572 0
	.cfi_startproc
.LVL500:
	.loc 1 572 0
	lis 9,.LANCHOR0@ha
	lwz 9,.LANCHOR0@l(9)
	lbzx 10,9,3
.LVL501:
.LBB2555:
.LBB2556:
	.loc 2 2193 0
	lis 9,wgPipe@ha
	lwz 9,wgPipe@l(9)
	sth 10,0(9)
.LVL502:
.LBE2556:
.LBE2555:
.LBB2557:
.LBB2558:
	.loc 2 2224 0
	sth 10,0(9)
.LVL503:
.LBE2558:
.LBE2557:
.LBB2559:
.LBB2560:
	.loc 2 2266 0
	sth 10,0(9)
.LVL504:
.LBE2560:
.LBE2559:
.LBB2561:
.LBB2562:
	.loc 2 2331 0
	sth 10,0(9)
.LVL505:
.LBE2562:
.LBE2561:
.LBB2563:
.LBB2564:
	sth 10,0(9)
.LVL506:
.LBE2564:
.LBE2563:
.LBB2565:
.LBB2566:
	sth 10,0(9)
.LVL507:
.LBE2566:
.LBE2565:
.LBB2567:
.LBB2568:
	sth 10,0(9)
.LVL508:
.LBE2568:
.LBE2567:
.LBB2569:
.LBB2570:
	sth 10,0(9)
.LVL509:
.LBE2570:
.LBE2569:
.LBB2571:
.LBB2572:
	sth 10,0(9)
.LVL510:
.LBE2572:
.LBE2571:
.LBB2573:
.LBB2574:
	sth 10,0(9)
	blr
.LBE2574:
.LBE2573:
	.cfi_endproc
.LFE145:
	.size	UploadVertexPNCT7_ElemGLubyte, .-UploadVertexPNCT7_ElemGLubyte
	.align 2
	.type	UploadVertexPT0_ElemGLushort, @function
UploadVertexPT0_ElemGLushort:
.LFB146:
	.loc 1 573 0
	.cfi_startproc
.LVL511:
	lis 9,.LANCHOR0@ha
	stwu 1,-24(1)
	.cfi_def_cfa_offset 24
	.loc 1 573 0
	lwz 9,.LANCHOR0@l(9)
	slwi 3,3,1
.LVL512:
	lis 8,_tempcolorelement@ha
	lhzx 10,9,3
.LVL513:
.LBB2575:
.LBB2576:
	.loc 2 2193 0
	lis 9,wgPipe@ha
.LVL514:
	lwz 9,wgPipe@l(9)
	sth 10,0(9)
.LVL515:
.LBE2576:
.LBE2575:
	.loc 1 573 0
	la 10,_tempcolorelement@l(8)
.LVL516:
	lfs 13,_tempcolorelement@l(8)
	lis 8,.LC2@ha
	lfs 0,.LC2@l(8)
	addi 8,1,8
	fmuls 13,13,0
	fctiwz 13,13
	stfiwx 13,0,8
	addi 8,1,12
	lfs 13,4(10)
	lwz 6,8(1)
	fmuls 13,13,0
	rlwinm 6,6,0,0xff
	fctiwz 13,13
	stfiwx 13,0,8
	addi 8,1,16
	lfs 13,8(10)
	lwz 7,12(1)
	fmuls 13,13,0
	rlwinm 7,7,0,0xff
	fctiwz 13,13
	stfiwx 13,0,8
	lfs 13,12(10)
	addi 10,1,20
	lwz 8,16(1)
	fmuls 0,13,0
	rlwinm 8,8,0,0xff
	fctiwz 0,0
	stfiwx 0,0,10
	lwz 10,20(1)
.LBB2577:
.LBB2578:
	.loc 2 2229 0
	stb 6,0(9)
.LBE2578:
.LBE2577:
	.loc 1 573 0
	rlwinm 10,10,0,0xff
.LVL517:
.LBB2580:
.LBB2579:
	.loc 2 2230 0
	stb 7,0(9)
	.loc 2 2231 0
	stb 8,0(9)
	.loc 2 2232 0
	stb 10,0(9)
.LBE2579:
.LBE2580:
	.loc 1 573 0
	addi 1,1,24
	.cfi_def_cfa_offset 0
	blr
	.cfi_endproc
.LFE146:
	.size	UploadVertexPT0_ElemGLushort, .-UploadVertexPT0_ElemGLushort
	.align 2
	.type	UploadVertexPT1_ElemGLushort, @function
UploadVertexPT1_ElemGLushort:
.LFB147:
	.loc 1 573 0
	.cfi_startproc
.LVL518:
	lis 9,.LANCHOR0@ha
	stwu 1,-24(1)
	.cfi_def_cfa_offset 24
	.loc 1 573 0
	lwz 9,.LANCHOR0@l(9)
	slwi 3,3,1
.LVL519:
	lis 7,_tempcolorelement@ha
	lhzx 8,9,3
.LVL520:
.LBB2581:
.LBB2582:
	.loc 2 2193 0
	lis 9,wgPipe@ha
.LVL521:
	lwz 9,wgPipe@l(9)
.LBE2582:
.LBE2581:
	.loc 1 573 0
	la 10,_tempcolorelement@l(7)
.LBB2584:
.LBB2583:
	.loc 2 2193 0
	sth 8,0(9)
.LVL522:
.LBE2583:
.LBE2584:
	.loc 1 573 0
	lfs 13,_tempcolorelement@l(7)
	lis 7,.LC2@ha
	lfs 0,.LC2@l(7)
	addi 7,1,8
	fmuls 13,13,0
	fctiwz 13,13
	stfiwx 13,0,7
	addi 7,1,12
	lfs 13,4(10)
	lwz 5,8(1)
	fmuls 13,13,0
	rlwinm 5,5,0,0xff
	fctiwz 13,13
	stfiwx 13,0,7
	addi 7,1,16
	lfs 13,8(10)
	lwz 6,12(1)
	fmuls 13,13,0
	rlwinm 6,6,0,0xff
	fctiwz 13,13
	stfiwx 13,0,7
	lfs 13,12(10)
	addi 10,1,20
	lwz 7,16(1)
	fmuls 0,13,0
	rlwinm 7,7,0,0xff
	fctiwz 0,0
	stfiwx 0,0,10
	lwz 10,20(1)
.LBB2585:
.LBB2586:
	.loc 2 2229 0
	stb 5,0(9)
.LBE2586:
.LBE2585:
	.loc 1 573 0
	rlwinm 10,10,0,0xff
.LVL523:
.LBB2588:
.LBB2587:
	.loc 2 2230 0
	stb 6,0(9)
	.loc 2 2231 0
	stb 7,0(9)
	.loc 2 2232 0
	stb 10,0(9)
.LVL524:
.LBE2587:
.LBE2588:
.LBB2589:
.LBB2590:
	.loc 2 2331 0
	sth 8,0(9)
.LBE2590:
.LBE2589:
	.loc 1 573 0
	addi 1,1,24
	.cfi_def_cfa_offset 0
	blr
	.cfi_endproc
.LFE147:
	.size	UploadVertexPT1_ElemGLushort, .-UploadVertexPT1_ElemGLushort
	.align 2
	.type	UploadVertexPT2_ElemGLushort, @function
UploadVertexPT2_ElemGLushort:
.LFB148:
	.loc 1 573 0
	.cfi_startproc
.LVL525:
	lis 9,.LANCHOR0@ha
	stwu 1,-24(1)
	.cfi_def_cfa_offset 24
	.loc 1 573 0
	lwz 9,.LANCHOR0@l(9)
	slwi 3,3,1
.LVL526:
	lis 7,_tempcolorelement@ha
	lhzx 10,9,3
.LVL527:
.LBB2591:
.LBB2592:
	.loc 2 2193 0
	lis 9,wgPipe@ha
.LVL528:
	lwz 9,wgPipe@l(9)
.LBE2592:
.LBE2591:
	.loc 1 573 0
	la 8,_tempcolorelement@l(7)
.LBB2594:
.LBB2593:
	.loc 2 2193 0
	sth 10,0(9)
.LVL529:
.LBE2593:
.LBE2594:
	.loc 1 573 0
	lfs 13,_tempcolorelement@l(7)
	lis 7,.LC2@ha
	lfs 0,.LC2@l(7)
	addi 7,1,8
	fmuls 13,13,0
	fctiwz 13,13
	stfiwx 13,0,7
	addi 7,1,12
	lfs 13,4(8)
	lwz 5,8(1)
	fmuls 13,13,0
	rlwinm 5,5,0,0xff
	fctiwz 13,13
	stfiwx 13,0,7
	addi 7,1,16
	lfs 13,8(8)
	lwz 6,12(1)
	fmuls 13,13,0
	rlwinm 6,6,0,0xff
	fctiwz 13,13
	stfiwx 13,0,7
	lfs 13,12(8)
	addi 8,1,20
	lwz 7,16(1)
	fmuls 0,13,0
	rlwinm 7,7,0,0xff
	fctiwz 0,0
	stfiwx 0,0,8
	lwz 8,20(1)
.LBB2595:
.LBB2596:
	.loc 2 2229 0
	stb 5,0(9)
.LBE2596:
.LBE2595:
	.loc 1 573 0
	rlwinm 8,8,0,0xff
.LVL530:
.LBB2598:
.LBB2597:
	.loc 2 2230 0
	stb 6,0(9)
	.loc 2 2231 0
	stb 7,0(9)
	.loc 2 2232 0
	stb 8,0(9)
.LVL531:
.LBE2597:
.LBE2598:
.LBB2599:
.LBB2600:
	.loc 2 2331 0
	sth 10,0(9)
.LVL532:
.LBE2600:
.LBE2599:
.LBB2601:
.LBB2602:
	sth 10,0(9)
.LBE2602:
.LBE2601:
	.loc 1 573 0
	addi 1,1,24
	.cfi_def_cfa_offset 0
	blr
	.cfi_endproc
.LFE148:
	.size	UploadVertexPT2_ElemGLushort, .-UploadVertexPT2_ElemGLushort
	.align 2
	.type	UploadVertexPT3_ElemGLushort, @function
UploadVertexPT3_ElemGLushort:
.LFB149:
	.loc 1 573 0
	.cfi_startproc
.LVL533:
	lis 9,.LANCHOR0@ha
	stwu 1,-24(1)
	.cfi_def_cfa_offset 24
	.loc 1 573 0
	lwz 9,.LANCHOR0@l(9)
	slwi 3,3,1
.LVL534:
	lis 7,_tempcolorelement@ha
	lhzx 10,9,3
.LVL535:
.LBB2603:
.LBB2604:
	.loc 2 2193 0
	lis 9,wgPipe@ha
.LVL536:
	lwz 9,wgPipe@l(9)
.LBE2604:
.LBE2603:
	.loc 1 573 0
	la 8,_tempcolorelement@l(7)
.LBB2606:
.LBB2605:
	.loc 2 2193 0
	sth 10,0(9)
.LVL537:
.LBE2605:
.LBE2606:
	.loc 1 573 0
	lfs 13,_tempcolorelement@l(7)
	lis 7,.LC2@ha
	lfs 0,.LC2@l(7)
	addi 7,1,8
	fmuls 13,13,0
	fctiwz 13,13
	stfiwx 13,0,7
	addi 7,1,12
	lfs 13,4(8)
	lwz 5,8(1)
	fmuls 13,13,0
	rlwinm 5,5,0,0xff
	fctiwz 13,13
	stfiwx 13,0,7
	addi 7,1,16
	lfs 13,8(8)
	lwz 6,12(1)
	fmuls 13,13,0
	rlwinm 6,6,0,0xff
	fctiwz 13,13
	stfiwx 13,0,7
	lfs 13,12(8)
	addi 8,1,20
	lwz 7,16(1)
	fmuls 0,13,0
	rlwinm 7,7,0,0xff
	fctiwz 0,0
	stfiwx 0,0,8
	lwz 8,20(1)
.LBB2607:
.LBB2608:
	.loc 2 2229 0
	stb 5,0(9)
.LBE2608:
.LBE2607:
	.loc 1 573 0
	rlwinm 8,8,0,0xff
.LVL538:
.LBB2610:
.LBB2609:
	.loc 2 2230 0
	stb 6,0(9)
	.loc 2 2231 0
	stb 7,0(9)
	.loc 2 2232 0
	stb 8,0(9)
.LVL539:
.LBE2609:
.LBE2610:
.LBB2611:
.LBB2612:
	.loc 2 2331 0
	sth 10,0(9)
.LVL540:
.LBE2612:
.LBE2611:
.LBB2613:
.LBB2614:
	sth 10,0(9)
.LVL541:
.LBE2614:
.LBE2613:
.LBB2615:
.LBB2616:
	sth 10,0(9)
.LBE2616:
.LBE2615:
	.loc 1 573 0
	addi 1,1,24
	.cfi_def_cfa_offset 0
	blr
	.cfi_endproc
.LFE149:
	.size	UploadVertexPT3_ElemGLushort, .-UploadVertexPT3_ElemGLushort
	.align 2
	.type	UploadVertexPT4_ElemGLushort, @function
UploadVertexPT4_ElemGLushort:
.LFB150:
	.loc 1 573 0
	.cfi_startproc
.LVL542:
	lis 9,.LANCHOR0@ha
	stwu 1,-24(1)
	.cfi_def_cfa_offset 24
	.loc 1 573 0
	lwz 9,.LANCHOR0@l(9)
	slwi 3,3,1
.LVL543:
	lis 7,_tempcolorelement@ha
	lhzx 10,9,3
.LVL544:
.LBB2617:
.LBB2618:
	.loc 2 2193 0
	lis 9,wgPipe@ha
.LVL545:
	lwz 9,wgPipe@l(9)
.LBE2618:
.LBE2617:
	.loc 1 573 0
	la 8,_tempcolorelement@l(7)
.LBB2620:
.LBB2619:
	.loc 2 2193 0
	sth 10,0(9)
.LVL546:
.LBE2619:
.LBE2620:
	.loc 1 573 0
	lfs 13,_tempcolorelement@l(7)
	lis 7,.LC2@ha
	lfs 0,.LC2@l(7)
	addi 7,1,8
	fmuls 13,13,0
	fctiwz 13,13
	stfiwx 13,0,7
	addi 7,1,12
	lfs 13,4(8)
	lwz 5,8(1)
	fmuls 13,13,0
	rlwinm 5,5,0,0xff
	fctiwz 13,13
	stfiwx 13,0,7
	addi 7,1,16
	lfs 13,8(8)
	lwz 6,12(1)
	fmuls 13,13,0
	rlwinm 6,6,0,0xff
	fctiwz 13,13
	stfiwx 13,0,7
	lfs 13,12(8)
	addi 8,1,20
	lwz 7,16(1)
	fmuls 0,13,0
	rlwinm 7,7,0,0xff
	fctiwz 0,0
	stfiwx 0,0,8
	lwz 8,20(1)
.LBB2621:
.LBB2622:
	.loc 2 2229 0
	stb 5,0(9)
.LBE2622:
.LBE2621:
	.loc 1 573 0
	rlwinm 8,8,0,0xff
.LVL547:
.LBB2624:
.LBB2623:
	.loc 2 2230 0
	stb 6,0(9)
	.loc 2 2231 0
	stb 7,0(9)
	.loc 2 2232 0
	stb 8,0(9)
.LVL548:
.LBE2623:
.LBE2624:
.LBB2625:
.LBB2626:
	.loc 2 2331 0
	sth 10,0(9)
.LVL549:
.LBE2626:
.LBE2625:
.LBB2627:
.LBB2628:
	sth 10,0(9)
.LVL550:
.LBE2628:
.LBE2627:
.LBB2629:
.LBB2630:
	sth 10,0(9)
.LVL551:
.LBE2630:
.LBE2629:
.LBB2631:
.LBB2632:
	sth 10,0(9)
.LBE2632:
.LBE2631:
	.loc 1 573 0
	addi 1,1,24
	.cfi_def_cfa_offset 0
	blr
	.cfi_endproc
.LFE150:
	.size	UploadVertexPT4_ElemGLushort, .-UploadVertexPT4_ElemGLushort
	.align 2
	.type	UploadVertexPT5_ElemGLushort, @function
UploadVertexPT5_ElemGLushort:
.LFB151:
	.loc 1 573 0
	.cfi_startproc
.LVL552:
	lis 9,.LANCHOR0@ha
	stwu 1,-24(1)
	.cfi_def_cfa_offset 24
	.loc 1 573 0
	lwz 9,.LANCHOR0@l(9)
	slwi 3,3,1
.LVL553:
	lis 7,_tempcolorelement@ha
	lhzx 10,9,3
.LVL554:
.LBB2633:
.LBB2634:
	.loc 2 2193 0
	lis 9,wgPipe@ha
.LVL555:
	lwz 9,wgPipe@l(9)
.LBE2634:
.LBE2633:
	.loc 1 573 0
	la 8,_tempcolorelement@l(7)
.LBB2636:
.LBB2635:
	.loc 2 2193 0
	sth 10,0(9)
.LVL556:
.LBE2635:
.LBE2636:
	.loc 1 573 0
	lfs 13,_tempcolorelement@l(7)
	lis 7,.LC2@ha
	lfs 0,.LC2@l(7)
	addi 7,1,8
	fmuls 13,13,0
	fctiwz 13,13
	stfiwx 13,0,7
	addi 7,1,12
	lfs 13,4(8)
	lwz 5,8(1)
	fmuls 13,13,0
	rlwinm 5,5,0,0xff
	fctiwz 13,13
	stfiwx 13,0,7
	addi 7,1,16
	lfs 13,8(8)
	lwz 6,12(1)
	fmuls 13,13,0
	rlwinm 6,6,0,0xff
	fctiwz 13,13
	stfiwx 13,0,7
	lfs 13,12(8)
	addi 8,1,20
	lwz 7,16(1)
	fmuls 0,13,0
	rlwinm 7,7,0,0xff
	fctiwz 0,0
	stfiwx 0,0,8
	lwz 8,20(1)
.LBB2637:
.LBB2638:
	.loc 2 2229 0
	stb 5,0(9)
.LBE2638:
.LBE2637:
	.loc 1 573 0
	rlwinm 8,8,0,0xff
.LVL557:
.LBB2640:
.LBB2639:
	.loc 2 2230 0
	stb 6,0(9)
	.loc 2 2231 0
	stb 7,0(9)
	.loc 2 2232 0
	stb 8,0(9)
.LVL558:
.LBE2639:
.LBE2640:
.LBB2641:
.LBB2642:
	.loc 2 2331 0
	sth 10,0(9)
.LVL559:
.LBE2642:
.LBE2641:
.LBB2643:
.LBB2644:
	sth 10,0(9)
.LVL560:
.LBE2644:
.LBE2643:
.LBB2645:
.LBB2646:
	sth 10,0(9)
.LVL561:
.LBE2646:
.LBE2645:
.LBB2647:
.LBB2648:
	sth 10,0(9)
.LVL562:
.LBE2648:
.LBE2647:
.LBB2649:
.LBB2650:
	sth 10,0(9)
.LBE2650:
.LBE2649:
	.loc 1 573 0
	addi 1,1,24
	.cfi_def_cfa_offset 0
	blr
	.cfi_endproc
.LFE151:
	.size	UploadVertexPT5_ElemGLushort, .-UploadVertexPT5_ElemGLushort
	.align 2
	.type	UploadVertexPT6_ElemGLushort, @function
UploadVertexPT6_ElemGLushort:
.LFB152:
	.loc 1 573 0
	.cfi_startproc
.LVL563:
	lis 9,.LANCHOR0@ha
	stwu 1,-24(1)
	.cfi_def_cfa_offset 24
	.loc 1 573 0
	lwz 9,.LANCHOR0@l(9)
	slwi 3,3,1
.LVL564:
	lis 7,_tempcolorelement@ha
	lhzx 10,9,3
.LVL565:
.LBB2651:
.LBB2652:
	.loc 2 2193 0
	lis 9,wgPipe@ha
.LVL566:
	lwz 9,wgPipe@l(9)
.LBE2652:
.LBE2651:
	.loc 1 573 0
	la 8,_tempcolorelement@l(7)
.LBB2654:
.LBB2653:
	.loc 2 2193 0
	sth 10,0(9)
.LVL567:
.LBE2653:
.LBE2654:
	.loc 1 573 0
	lfs 13,_tempcolorelement@l(7)
	lis 7,.LC2@ha
	lfs 0,.LC2@l(7)
	addi 7,1,8
	fmuls 13,13,0
	fctiwz 13,13
	stfiwx 13,0,7
	addi 7,1,12
	lfs 13,4(8)
	lwz 5,8(1)
	fmuls 13,13,0
	rlwinm 5,5,0,0xff
	fctiwz 13,13
	stfiwx 13,0,7
	addi 7,1,16
	lfs 13,8(8)
	lwz 6,12(1)
	fmuls 13,13,0
	rlwinm 6,6,0,0xff
	fctiwz 13,13
	stfiwx 13,0,7
	lfs 13,12(8)
	addi 8,1,20
	lwz 7,16(1)
	fmuls 0,13,0
	rlwinm 7,7,0,0xff
	fctiwz 0,0
	stfiwx 0,0,8
	lwz 8,20(1)
.LBB2655:
.LBB2656:
	.loc 2 2229 0
	stb 5,0(9)
.LBE2656:
.LBE2655:
	.loc 1 573 0
	rlwinm 8,8,0,0xff
.LVL568:
.LBB2658:
.LBB2657:
	.loc 2 2230 0
	stb 6,0(9)
	.loc 2 2231 0
	stb 7,0(9)
	.loc 2 2232 0
	stb 8,0(9)
.LVL569:
.LBE2657:
.LBE2658:
.LBB2659:
.LBB2660:
	.loc 2 2331 0
	sth 10,0(9)
.LVL570:
.LBE2660:
.LBE2659:
.LBB2661:
.LBB2662:
	sth 10,0(9)
.LVL571:
.LBE2662:
.LBE2661:
.LBB2663:
.LBB2664:
	sth 10,0(9)
.LVL572:
.LBE2664:
.LBE2663:
.LBB2665:
.LBB2666:
	sth 10,0(9)
.LVL573:
.LBE2666:
.LBE2665:
.LBB2667:
.LBB2668:
	sth 10,0(9)
.LVL574:
.LBE2668:
.LBE2667:
.LBB2669:
.LBB2670:
	sth 10,0(9)
.LBE2670:
.LBE2669:
	.loc 1 573 0
	addi 1,1,24
	.cfi_def_cfa_offset 0
	blr
	.cfi_endproc
.LFE152:
	.size	UploadVertexPT6_ElemGLushort, .-UploadVertexPT6_ElemGLushort
	.align 2
	.type	UploadVertexPT7_ElemGLushort, @function
UploadVertexPT7_ElemGLushort:
.LFB153:
	.loc 1 573 0
	.cfi_startproc
.LVL575:
	lis 9,.LANCHOR0@ha
	stwu 1,-24(1)
	.cfi_def_cfa_offset 24
	.loc 1 573 0
	lwz 9,.LANCHOR0@l(9)
	slwi 3,3,1
.LVL576:
	lis 7,_tempcolorelement@ha
	lhzx 10,9,3
.LVL577:
.LBB2671:
.LBB2672:
	.loc 2 2193 0
	lis 9,wgPipe@ha
.LVL578:
	lwz 9,wgPipe@l(9)
.LBE2672:
.LBE2671:
	.loc 1 573 0
	la 8,_tempcolorelement@l(7)
.LBB2674:
.LBB2673:
	.loc 2 2193 0
	sth 10,0(9)
.LVL579:
.LBE2673:
.LBE2674:
	.loc 1 573 0
	lfs 13,_tempcolorelement@l(7)
	lis 7,.LC2@ha
	lfs 0,.LC2@l(7)
	addi 7,1,8
	fmuls 13,13,0
	fctiwz 13,13
	stfiwx 13,0,7
	addi 7,1,12
	lfs 13,4(8)
	lwz 5,8(1)
	fmuls 13,13,0
	rlwinm 5,5,0,0xff
	fctiwz 13,13
	stfiwx 13,0,7
	addi 7,1,16
	lfs 13,8(8)
	lwz 6,12(1)
	fmuls 13,13,0
	rlwinm 6,6,0,0xff
	fctiwz 13,13
	stfiwx 13,0,7
	lfs 13,12(8)
	addi 8,1,20
	lwz 7,16(1)
	fmuls 0,13,0
	rlwinm 7,7,0,0xff
	fctiwz 0,0
	stfiwx 0,0,8
	lwz 8,20(1)
.LBB2675:
.LBB2676:
	.loc 2 2229 0
	stb 5,0(9)
.LBE2676:
.LBE2675:
	.loc 1 573 0
	rlwinm 8,8,0,0xff
.LVL580:
.LBB2678:
.LBB2677:
	.loc 2 2230 0
	stb 6,0(9)
	.loc 2 2231 0
	stb 7,0(9)
	.loc 2 2232 0
	stb 8,0(9)
.LVL581:
.LBE2677:
.LBE2678:
.LBB2679:
.LBB2680:
	.loc 2 2331 0
	sth 10,0(9)
.LVL582:
.LBE2680:
.LBE2679:
.LBB2681:
.LBB2682:
	sth 10,0(9)
.LVL583:
.LBE2682:
.LBE2681:
.LBB2683:
.LBB2684:
	sth 10,0(9)
.LVL584:
.LBE2684:
.LBE2683:
.LBB2685:
.LBB2686:
	sth 10,0(9)
.LVL585:
.LBE2686:
.LBE2685:
.LBB2687:
.LBB2688:
	sth 10,0(9)
.LVL586:
.LBE2688:
.LBE2687:
.LBB2689:
.LBB2690:
	sth 10,0(9)
.LVL587:
.LBE2690:
.LBE2689:
.LBB2691:
.LBB2692:
	sth 10,0(9)
.LBE2692:
.LBE2691:
	.loc 1 573 0
	addi 1,1,24
	.cfi_def_cfa_offset 0
	blr
	.cfi_endproc
.LFE153:
	.size	UploadVertexPT7_ElemGLushort, .-UploadVertexPT7_ElemGLushort
	.align 2
	.type	UploadVertexPNT0_ElemGLushort, @function
UploadVertexPNT0_ElemGLushort:
.LFB154:
	.loc 1 573 0
	.cfi_startproc
.LVL588:
	lis 9,.LANCHOR0@ha
	stwu 1,-24(1)
	.cfi_def_cfa_offset 24
	.loc 1 573 0
	lwz 9,.LANCHOR0@l(9)
	slwi 3,3,1
.LVL589:
	lis 8,_tempcolorelement@ha
	lhzx 10,9,3
.LVL590:
.LBB2693:
.LBB2694:
	.loc 2 2193 0
	lis 9,wgPipe@ha
.LVL591:
	lwz 9,wgPipe@l(9)
	sth 10,0(9)
.LVL592:
.LBE2694:
.LBE2693:
.LBB2695:
.LBB2696:
	.loc 2 2224 0
	sth 10,0(9)
.LVL593:
.LBE2696:
.LBE2695:
	.loc 1 573 0
	la 10,_tempcolorelement@l(8)
.LVL594:
	lfs 13,_tempcolorelement@l(8)
	lis 8,.LC2@ha
	lfs 0,.LC2@l(8)
	addi 8,1,8
	fmuls 13,13,0
	fctiwz 13,13
	stfiwx 13,0,8
	addi 8,1,12
	lfs 13,4(10)
	lwz 6,8(1)
	fmuls 13,13,0
	rlwinm 6,6,0,0xff
	fctiwz 13,13
	stfiwx 13,0,8
	addi 8,1,16
	lfs 13,8(10)
	lwz 7,12(1)
	fmuls 13,13,0
	rlwinm 7,7,0,0xff
	fctiwz 13,13
	stfiwx 13,0,8
	lfs 13,12(10)
	addi 10,1,20
	lwz 8,16(1)
	fmuls 0,13,0
	rlwinm 8,8,0,0xff
	fctiwz 0,0
	stfiwx 0,0,10
	lwz 10,20(1)
.LBB2697:
.LBB2698:
	.loc 2 2229 0
	stb 6,0(9)
.LBE2698:
.LBE2697:
	.loc 1 573 0
	rlwinm 10,10,0,0xff
.LVL595:
.LBB2700:
.LBB2699:
	.loc 2 2230 0
	stb 7,0(9)
	.loc 2 2231 0
	stb 8,0(9)
	.loc 2 2232 0
	stb 10,0(9)
.LBE2699:
.LBE2700:
	.loc 1 573 0
	addi 1,1,24
	.cfi_def_cfa_offset 0
	blr
	.cfi_endproc
.LFE154:
	.size	UploadVertexPNT0_ElemGLushort, .-UploadVertexPNT0_ElemGLushort
	.align 2
	.type	UploadVertexPNT1_ElemGLushort, @function
UploadVertexPNT1_ElemGLushort:
.LFB155:
	.loc 1 573 0
	.cfi_startproc
.LVL596:
	lis 9,.LANCHOR0@ha
	stwu 1,-24(1)
	.cfi_def_cfa_offset 24
	.loc 1 573 0
	lwz 9,.LANCHOR0@l(9)
	slwi 3,3,1
.LVL597:
	lis 7,_tempcolorelement@ha
	lhzx 10,9,3
.LVL598:
.LBB2701:
.LBB2702:
	.loc 2 2193 0
	lis 9,wgPipe@ha
.LVL599:
	lwz 9,wgPipe@l(9)
.LBE2702:
.LBE2701:
	.loc 1 573 0
	la 8,_tempcolorelement@l(7)
.LBB2704:
.LBB2703:
	.loc 2 2193 0
	sth 10,0(9)
.LVL600:
.LBE2703:
.LBE2704:
.LBB2705:
.LBB2706:
	.loc 2 2224 0
	sth 10,0(9)
.LVL601:
.LBE2706:
.LBE2705:
	.loc 1 573 0
	lfs 13,_tempcolorelement@l(7)
	lis 7,.LC2@ha
	lfs 0,.LC2@l(7)
	addi 7,1,8
	fmuls 13,13,0
	fctiwz 13,13
	stfiwx 13,0,7
	addi 7,1,12
	lfs 13,4(8)
	lwz 5,8(1)
	fmuls 13,13,0
	rlwinm 5,5,0,0xff
	fctiwz 13,13
	stfiwx 13,0,7
	addi 7,1,16
	lfs 13,8(8)
	lwz 6,12(1)
	fmuls 13,13,0
	rlwinm 6,6,0,0xff
	fctiwz 13,13
	stfiwx 13,0,7
	lfs 13,12(8)
	addi 8,1,20
	lwz 7,16(1)
	fmuls 0,13,0
	rlwinm 7,7,0,0xff
	fctiwz 0,0
	stfiwx 0,0,8
	lwz 8,20(1)
.LBB2707:
.LBB2708:
	.loc 2 2229 0
	stb 5,0(9)
.LBE2708:
.LBE2707:
	.loc 1 573 0
	rlwinm 8,8,0,0xff
.LVL602:
.LBB2710:
.LBB2709:
	.loc 2 2230 0
	stb 6,0(9)
	.loc 2 2231 0
	stb 7,0(9)
	.loc 2 2232 0
	stb 8,0(9)
.LVL603:
.LBE2709:
.LBE2710:
.LBB2711:
.LBB2712:
	.loc 2 2331 0
	sth 10,0(9)
.LBE2712:
.LBE2711:
	.loc 1 573 0
	addi 1,1,24
	.cfi_def_cfa_offset 0
	blr
	.cfi_endproc
.LFE155:
	.size	UploadVertexPNT1_ElemGLushort, .-UploadVertexPNT1_ElemGLushort
	.align 2
	.type	UploadVertexPNT2_ElemGLushort, @function
UploadVertexPNT2_ElemGLushort:
.LFB156:
	.loc 1 573 0
	.cfi_startproc
.LVL604:
	lis 9,.LANCHOR0@ha
	stwu 1,-24(1)
	.cfi_def_cfa_offset 24
	.loc 1 573 0
	lwz 9,.LANCHOR0@l(9)
	slwi 3,3,1
.LVL605:
	lis 7,_tempcolorelement@ha
	lhzx 10,9,3
.LVL606:
.LBB2713:
.LBB2714:
	.loc 2 2193 0
	lis 9,wgPipe@ha
.LVL607:
	lwz 9,wgPipe@l(9)
.LBE2714:
.LBE2713:
	.loc 1 573 0
	la 8,_tempcolorelement@l(7)
.LBB2716:
.LBB2715:
	.loc 2 2193 0
	sth 10,0(9)
.LVL608:
.LBE2715:
.LBE2716:
.LBB2717:
.LBB2718:
	.loc 2 2224 0
	sth 10,0(9)
.LVL609:
.LBE2718:
.LBE2717:
	.loc 1 573 0
	lfs 13,_tempcolorelement@l(7)
	lis 7,.LC2@ha
	lfs 0,.LC2@l(7)
	addi 7,1,8
	fmuls 13,13,0
	fctiwz 13,13
	stfiwx 13,0,7
	addi 7,1,12
	lfs 13,4(8)
	lwz 5,8(1)
	fmuls 13,13,0
	rlwinm 5,5,0,0xff
	fctiwz 13,13
	stfiwx 13,0,7
	addi 7,1,16
	lfs 13,8(8)
	lwz 6,12(1)
	fmuls 13,13,0
	rlwinm 6,6,0,0xff
	fctiwz 13,13
	stfiwx 13,0,7
	lfs 13,12(8)
	addi 8,1,20
	lwz 7,16(1)
	fmuls 0,13,0
	rlwinm 7,7,0,0xff
	fctiwz 0,0
	stfiwx 0,0,8
	lwz 8,20(1)
.LBB2719:
.LBB2720:
	.loc 2 2229 0
	stb 5,0(9)
.LBE2720:
.LBE2719:
	.loc 1 573 0
	rlwinm 8,8,0,0xff
.LVL610:
.LBB2722:
.LBB2721:
	.loc 2 2230 0
	stb 6,0(9)
	.loc 2 2231 0
	stb 7,0(9)
	.loc 2 2232 0
	stb 8,0(9)
.LVL611:
.LBE2721:
.LBE2722:
.LBB2723:
.LBB2724:
	.loc 2 2331 0
	sth 10,0(9)
.LVL612:
.LBE2724:
.LBE2723:
.LBB2725:
.LBB2726:
	sth 10,0(9)
.LBE2726:
.LBE2725:
	.loc 1 573 0
	addi 1,1,24
	.cfi_def_cfa_offset 0
	blr
	.cfi_endproc
.LFE156:
	.size	UploadVertexPNT2_ElemGLushort, .-UploadVertexPNT2_ElemGLushort
	.align 2
	.type	UploadVertexPNT3_ElemGLushort, @function
UploadVertexPNT3_ElemGLushort:
.LFB157:
	.loc 1 573 0
	.cfi_startproc
.LVL613:
	lis 9,.LANCHOR0@ha
	stwu 1,-24(1)
	.cfi_def_cfa_offset 24
	.loc 1 573 0
	lwz 9,.LANCHOR0@l(9)
	slwi 3,3,1
.LVL614:
	lis 7,_tempcolorelement@ha
	lhzx 10,9,3
.LVL615:
.LBB2727:
.LBB2728:
	.loc 2 2193 0
	lis 9,wgPipe@ha
.LVL616:
	lwz 9,wgPipe@l(9)
.LBE2728:
.LBE2727:
	.loc 1 573 0
	la 8,_tempcolorelement@l(7)
.LBB2730:
.LBB2729:
	.loc 2 2193 0
	sth 10,0(9)
.LVL617:
.LBE2729:
.LBE2730:
.LBB2731:
.LBB2732:
	.loc 2 2224 0
	sth 10,0(9)
.LVL618:
.LBE2732:
.LBE2731:
	.loc 1 573 0
	lfs 13,_tempcolorelement@l(7)
	lis 7,.LC2@ha
	lfs 0,.LC2@l(7)
	addi 7,1,8
	fmuls 13,13,0
	fctiwz 13,13
	stfiwx 13,0,7
	addi 7,1,12
	lfs 13,4(8)
	lwz 5,8(1)
	fmuls 13,13,0
	rlwinm 5,5,0,0xff
	fctiwz 13,13
	stfiwx 13,0,7
	addi 7,1,16
	lfs 13,8(8)
	lwz 6,12(1)
	fmuls 13,13,0
	rlwinm 6,6,0,0xff
	fctiwz 13,13
	stfiwx 13,0,7
	lfs 13,12(8)
	addi 8,1,20
	lwz 7,16(1)
	fmuls 0,13,0
	rlwinm 7,7,0,0xff
	fctiwz 0,0
	stfiwx 0,0,8
	lwz 8,20(1)
.LBB2733:
.LBB2734:
	.loc 2 2229 0
	stb 5,0(9)
.LBE2734:
.LBE2733:
	.loc 1 573 0
	rlwinm 8,8,0,0xff
.LVL619:
.LBB2736:
.LBB2735:
	.loc 2 2230 0
	stb 6,0(9)
	.loc 2 2231 0
	stb 7,0(9)
	.loc 2 2232 0
	stb 8,0(9)
.LVL620:
.LBE2735:
.LBE2736:
.LBB2737:
.LBB2738:
	.loc 2 2331 0
	sth 10,0(9)
.LVL621:
.LBE2738:
.LBE2737:
.LBB2739:
.LBB2740:
	sth 10,0(9)
.LVL622:
.LBE2740:
.LBE2739:
.LBB2741:
.LBB2742:
	sth 10,0(9)
.LBE2742:
.LBE2741:
	.loc 1 573 0
	addi 1,1,24
	.cfi_def_cfa_offset 0
	blr
	.cfi_endproc
.LFE157:
	.size	UploadVertexPNT3_ElemGLushort, .-UploadVertexPNT3_ElemGLushort
	.align 2
	.type	UploadVertexPNT4_ElemGLushort, @function
UploadVertexPNT4_ElemGLushort:
.LFB158:
	.loc 1 573 0
	.cfi_startproc
.LVL623:
	lis 9,.LANCHOR0@ha
	stwu 1,-24(1)
	.cfi_def_cfa_offset 24
	.loc 1 573 0
	lwz 9,.LANCHOR0@l(9)
	slwi 3,3,1
.LVL624:
	lis 7,_tempcolorelement@ha
	lhzx 10,9,3
.LVL625:
.LBB2743:
.LBB2744:
	.loc 2 2193 0
	lis 9,wgPipe@ha
.LVL626:
	lwz 9,wgPipe@l(9)
.LBE2744:
.LBE2743:
	.loc 1 573 0
	la 8,_tempcolorelement@l(7)
.LBB2746:
.LBB2745:
	.loc 2 2193 0
	sth 10,0(9)
.LVL627:
.LBE2745:
.LBE2746:
.LBB2747:
.LBB2748:
	.loc 2 2224 0
	sth 10,0(9)
.LVL628:
.LBE2748:
.LBE2747:
	.loc 1 573 0
	lfs 13,_tempcolorelement@l(7)
	lis 7,.LC2@ha
	lfs 0,.LC2@l(7)
	addi 7,1,8
	fmuls 13,13,0
	fctiwz 13,13
	stfiwx 13,0,7
	addi 7,1,12
	lfs 13,4(8)
	lwz 5,8(1)
	fmuls 13,13,0
	rlwinm 5,5,0,0xff
	fctiwz 13,13
	stfiwx 13,0,7
	addi 7,1,16
	lfs 13,8(8)
	lwz 6,12(1)
	fmuls 13,13,0
	rlwinm 6,6,0,0xff
	fctiwz 13,13
	stfiwx 13,0,7
	lfs 13,12(8)
	addi 8,1,20
	lwz 7,16(1)
	fmuls 0,13,0
	rlwinm 7,7,0,0xff
	fctiwz 0,0
	stfiwx 0,0,8
	lwz 8,20(1)
.LBB2749:
.LBB2750:
	.loc 2 2229 0
	stb 5,0(9)
.LBE2750:
.LBE2749:
	.loc 1 573 0
	rlwinm 8,8,0,0xff
.LVL629:
.LBB2752:
.LBB2751:
	.loc 2 2230 0
	stb 6,0(9)
	.loc 2 2231 0
	stb 7,0(9)
	.loc 2 2232 0
	stb 8,0(9)
.LVL630:
.LBE2751:
.LBE2752:
.LBB2753:
.LBB2754:
	.loc 2 2331 0
	sth 10,0(9)
.LVL631:
.LBE2754:
.LBE2753:
.LBB2755:
.LBB2756:
	sth 10,0(9)
.LVL632:
.LBE2756:
.LBE2755:
.LBB2757:
.LBB2758:
	sth 10,0(9)
.LVL633:
.LBE2758:
.LBE2757:
.LBB2759:
.LBB2760:
	sth 10,0(9)
.LBE2760:
.LBE2759:
	.loc 1 573 0
	addi 1,1,24
	.cfi_def_cfa_offset 0
	blr
	.cfi_endproc
.LFE158:
	.size	UploadVertexPNT4_ElemGLushort, .-UploadVertexPNT4_ElemGLushort
	.align 2
	.type	UploadVertexPNT5_ElemGLushort, @function
UploadVertexPNT5_ElemGLushort:
.LFB159:
	.loc 1 573 0
	.cfi_startproc
.LVL634:
	lis 9,.LANCHOR0@ha
	stwu 1,-24(1)
	.cfi_def_cfa_offset 24
	.loc 1 573 0
	lwz 9,.LANCHOR0@l(9)
	slwi 3,3,1
.LVL635:
	lis 7,_tempcolorelement@ha
	lhzx 10,9,3
.LVL636:
.LBB2761:
.LBB2762:
	.loc 2 2193 0
	lis 9,wgPipe@ha
.LVL637:
	lwz 9,wgPipe@l(9)
.LBE2762:
.LBE2761:
	.loc 1 573 0
	la 8,_tempcolorelement@l(7)
.LBB2764:
.LBB2763:
	.loc 2 2193 0
	sth 10,0(9)
.LVL638:
.LBE2763:
.LBE2764:
.LBB2765:
.LBB2766:
	.loc 2 2224 0
	sth 10,0(9)
.LVL639:
.LBE2766:
.LBE2765:
	.loc 1 573 0
	lfs 13,_tempcolorelement@l(7)
	lis 7,.LC2@ha
	lfs 0,.LC2@l(7)
	addi 7,1,8
	fmuls 13,13,0
	fctiwz 13,13
	stfiwx 13,0,7
	addi 7,1,12
	lfs 13,4(8)
	lwz 5,8(1)
	fmuls 13,13,0
	rlwinm 5,5,0,0xff
	fctiwz 13,13
	stfiwx 13,0,7
	addi 7,1,16
	lfs 13,8(8)
	lwz 6,12(1)
	fmuls 13,13,0
	rlwinm 6,6,0,0xff
	fctiwz 13,13
	stfiwx 13,0,7
	lfs 13,12(8)
	addi 8,1,20
	lwz 7,16(1)
	fmuls 0,13,0
	rlwinm 7,7,0,0xff
	fctiwz 0,0
	stfiwx 0,0,8
	lwz 8,20(1)
.LBB2767:
.LBB2768:
	.loc 2 2229 0
	stb 5,0(9)
.LBE2768:
.LBE2767:
	.loc 1 573 0
	rlwinm 8,8,0,0xff
.LVL640:
.LBB2770:
.LBB2769:
	.loc 2 2230 0
	stb 6,0(9)
	.loc 2 2231 0
	stb 7,0(9)
	.loc 2 2232 0
	stb 8,0(9)
.LVL641:
.LBE2769:
.LBE2770:
.LBB2771:
.LBB2772:
	.loc 2 2331 0
	sth 10,0(9)
.LVL642:
.LBE2772:
.LBE2771:
.LBB2773:
.LBB2774:
	sth 10,0(9)
.LVL643:
.LBE2774:
.LBE2773:
.LBB2775:
.LBB2776:
	sth 10,0(9)
.LVL644:
.LBE2776:
.LBE2775:
.LBB2777:
.LBB2778:
	sth 10,0(9)
.LVL645:
.LBE2778:
.LBE2777:
.LBB2779:
.LBB2780:
	sth 10,0(9)
.LBE2780:
.LBE2779:
	.loc 1 573 0
	addi 1,1,24
	.cfi_def_cfa_offset 0
	blr
	.cfi_endproc
.LFE159:
	.size	UploadVertexPNT5_ElemGLushort, .-UploadVertexPNT5_ElemGLushort
	.align 2
	.type	UploadVertexPNT6_ElemGLushort, @function
UploadVertexPNT6_ElemGLushort:
.LFB160:
	.loc 1 573 0
	.cfi_startproc
.LVL646:
	lis 9,.LANCHOR0@ha
	stwu 1,-24(1)
	.cfi_def_cfa_offset 24
	.loc 1 573 0
	lwz 9,.LANCHOR0@l(9)
	slwi 3,3,1
.LVL647:
	lis 7,_tempcolorelement@ha
	lhzx 10,9,3
.LVL648:
.LBB2781:
.LBB2782:
	.loc 2 2193 0
	lis 9,wgPipe@ha
.LVL649:
	lwz 9,wgPipe@l(9)
.LBE2782:
.LBE2781:
	.loc 1 573 0
	la 8,_tempcolorelement@l(7)
.LBB2784:
.LBB2783:
	.loc 2 2193 0
	sth 10,0(9)
.LVL650:
.LBE2783:
.LBE2784:
.LBB2785:
.LBB2786:
	.loc 2 2224 0
	sth 10,0(9)
.LVL651:
.LBE2786:
.LBE2785:
	.loc 1 573 0
	lfs 13,_tempcolorelement@l(7)
	lis 7,.LC2@ha
	lfs 0,.LC2@l(7)
	addi 7,1,8
	fmuls 13,13,0
	fctiwz 13,13
	stfiwx 13,0,7
	addi 7,1,12
	lfs 13,4(8)
	lwz 5,8(1)
	fmuls 13,13,0
	rlwinm 5,5,0,0xff
	fctiwz 13,13
	stfiwx 13,0,7
	addi 7,1,16
	lfs 13,8(8)
	lwz 6,12(1)
	fmuls 13,13,0
	rlwinm 6,6,0,0xff
	fctiwz 13,13
	stfiwx 13,0,7
	lfs 13,12(8)
	addi 8,1,20
	lwz 7,16(1)
	fmuls 0,13,0
	rlwinm 7,7,0,0xff
	fctiwz 0,0
	stfiwx 0,0,8
	lwz 8,20(1)
.LBB2787:
.LBB2788:
	.loc 2 2229 0
	stb 5,0(9)
.LBE2788:
.LBE2787:
	.loc 1 573 0
	rlwinm 8,8,0,0xff
.LVL652:
.LBB2790:
.LBB2789:
	.loc 2 2230 0
	stb 6,0(9)
	.loc 2 2231 0
	stb 7,0(9)
	.loc 2 2232 0
	stb 8,0(9)
.LVL653:
.LBE2789:
.LBE2790:
.LBB2791:
.LBB2792:
	.loc 2 2331 0
	sth 10,0(9)
.LVL654:
.LBE2792:
.LBE2791:
.LBB2793:
.LBB2794:
	sth 10,0(9)
.LVL655:
.LBE2794:
.LBE2793:
.LBB2795:
.LBB2796:
	sth 10,0(9)
.LVL656:
.LBE2796:
.LBE2795:
.LBB2797:
.LBB2798:
	sth 10,0(9)
.LVL657:
.LBE2798:
.LBE2797:
.LBB2799:
.LBB2800:
	sth 10,0(9)
.LVL658:
.LBE2800:
.LBE2799:
.LBB2801:
.LBB2802:
	sth 10,0(9)
.LBE2802:
.LBE2801:
	.loc 1 573 0
	addi 1,1,24
	.cfi_def_cfa_offset 0
	blr
	.cfi_endproc
.LFE160:
	.size	UploadVertexPNT6_ElemGLushort, .-UploadVertexPNT6_ElemGLushort
	.align 2
	.type	UploadVertexPNT7_ElemGLushort, @function
UploadVertexPNT7_ElemGLushort:
.LFB161:
	.loc 1 573 0
	.cfi_startproc
.LVL659:
	lis 9,.LANCHOR0@ha
	stwu 1,-24(1)
	.cfi_def_cfa_offset 24
	.loc 1 573 0
	lwz 9,.LANCHOR0@l(9)
	slwi 3,3,1
.LVL660:
	lis 7,_tempcolorelement@ha
	lhzx 10,9,3
.LVL661:
.LBB2803:
.LBB2804:
	.loc 2 2193 0
	lis 9,wgPipe@ha
.LVL662:
	lwz 9,wgPipe@l(9)
.LBE2804:
.LBE2803:
	.loc 1 573 0
	la 8,_tempcolorelement@l(7)
.LBB2806:
.LBB2805:
	.loc 2 2193 0
	sth 10,0(9)
.LVL663:
.LBE2805:
.LBE2806:
.LBB2807:
.LBB2808:
	.loc 2 2224 0
	sth 10,0(9)
.LVL664:
.LBE2808:
.LBE2807:
	.loc 1 573 0
	lfs 13,_tempcolorelement@l(7)
	lis 7,.LC2@ha
	lfs 0,.LC2@l(7)
	addi 7,1,8
	fmuls 13,13,0
	fctiwz 13,13
	stfiwx 13,0,7
	addi 7,1,12
	lfs 13,4(8)
	lwz 5,8(1)
	fmuls 13,13,0
	rlwinm 5,5,0,0xff
	fctiwz 13,13
	stfiwx 13,0,7
	addi 7,1,16
	lfs 13,8(8)
	lwz 6,12(1)
	fmuls 13,13,0
	rlwinm 6,6,0,0xff
	fctiwz 13,13
	stfiwx 13,0,7
	lfs 13,12(8)
	addi 8,1,20
	lwz 7,16(1)
	fmuls 0,13,0
	rlwinm 7,7,0,0xff
	fctiwz 0,0
	stfiwx 0,0,8
	lwz 8,20(1)
.LBB2809:
.LBB2810:
	.loc 2 2229 0
	stb 5,0(9)
.LBE2810:
.LBE2809:
	.loc 1 573 0
	rlwinm 8,8,0,0xff
.LVL665:
.LBB2812:
.LBB2811:
	.loc 2 2230 0
	stb 6,0(9)
	.loc 2 2231 0
	stb 7,0(9)
	.loc 2 2232 0
	stb 8,0(9)
.LVL666:
.LBE2811:
.LBE2812:
.LBB2813:
.LBB2814:
	.loc 2 2331 0
	sth 10,0(9)
.LVL667:
.LBE2814:
.LBE2813:
.LBB2815:
.LBB2816:
	sth 10,0(9)
.LVL668:
.LBE2816:
.LBE2815:
.LBB2817:
.LBB2818:
	sth 10,0(9)
.LVL669:
.LBE2818:
.LBE2817:
.LBB2819:
.LBB2820:
	sth 10,0(9)
.LVL670:
.LBE2820:
.LBE2819:
.LBB2821:
.LBB2822:
	sth 10,0(9)
.LVL671:
.LBE2822:
.LBE2821:
.LBB2823:
.LBB2824:
	sth 10,0(9)
.LVL672:
.LBE2824:
.LBE2823:
.LBB2825:
.LBB2826:
	sth 10,0(9)
.LBE2826:
.LBE2825:
	.loc 1 573 0
	addi 1,1,24
	.cfi_def_cfa_offset 0
	blr
	.cfi_endproc
.LFE161:
	.size	UploadVertexPNT7_ElemGLushort, .-UploadVertexPNT7_ElemGLushort
	.align 2
	.type	UploadVertexPCT0_ElemGLushort, @function
UploadVertexPCT0_ElemGLushort:
.LFB162:
	.loc 1 573 0
	.cfi_startproc
.LVL673:
	.loc 1 573 0
	lis 9,.LANCHOR0@ha
	slwi 3,3,1
.LVL674:
	lwz 9,.LANCHOR0@l(9)
	lhzx 10,9,3
.LVL675:
.LBB2827:
.LBB2828:
	.loc 2 2193 0
	lis 9,wgPipe@ha
.LVL676:
	lwz 9,wgPipe@l(9)
	sth 10,0(9)
.LVL677:
.LBE2828:
.LBE2827:
.LBB2829:
.LBB2830:
	.loc 2 2266 0
	sth 10,0(9)
	blr
.LBE2830:
.LBE2829:
	.cfi_endproc
.LFE162:
	.size	UploadVertexPCT0_ElemGLushort, .-UploadVertexPCT0_ElemGLushort
	.align 2
	.type	UploadVertexPCT1_ElemGLushort, @function
UploadVertexPCT1_ElemGLushort:
.LFB163:
	.loc 1 573 0
	.cfi_startproc
.LVL678:
	.loc 1 573 0
	lis 9,.LANCHOR0@ha
	slwi 3,3,1
.LVL679:
	lwz 9,.LANCHOR0@l(9)
	lhzx 10,9,3
.LVL680:
.LBB2831:
.LBB2832:
	.loc 2 2193 0
	lis 9,wgPipe@ha
.LVL681:
	lwz 9,wgPipe@l(9)
	sth 10,0(9)
.LVL682:
.LBE2832:
.LBE2831:
.LBB2833:
.LBB2834:
	.loc 2 2266 0
	sth 10,0(9)
.LVL683:
.LBE2834:
.LBE2833:
.LBB2835:
.LBB2836:
	.loc 2 2331 0
	sth 10,0(9)
	blr
.LBE2836:
.LBE2835:
	.cfi_endproc
.LFE163:
	.size	UploadVertexPCT1_ElemGLushort, .-UploadVertexPCT1_ElemGLushort
	.align 2
	.type	UploadVertexPCT2_ElemGLushort, @function
UploadVertexPCT2_ElemGLushort:
.LFB164:
	.loc 1 573 0
	.cfi_startproc
.LVL684:
	.loc 1 573 0
	lis 9,.LANCHOR0@ha
	slwi 3,3,1
.LVL685:
	lwz 9,.LANCHOR0@l(9)
	lhzx 10,9,3
.LVL686:
.LBB2837:
.LBB2838:
	.loc 2 2193 0
	lis 9,wgPipe@ha
.LVL687:
	lwz 9,wgPipe@l(9)
	sth 10,0(9)
.LVL688:
.LBE2838:
.LBE2837:
.LBB2839:
.LBB2840:
	.loc 2 2266 0
	sth 10,0(9)
.LVL689:
.LBE2840:
.LBE2839:
.LBB2841:
.LBB2842:
	.loc 2 2331 0
	sth 10,0(9)
.LVL690:
.LBE2842:
.LBE2841:
.LBB2843:
.LBB2844:
	sth 10,0(9)
	blr
.LBE2844:
.LBE2843:
	.cfi_endproc
.LFE164:
	.size	UploadVertexPCT2_ElemGLushort, .-UploadVertexPCT2_ElemGLushort
	.align 2
	.type	UploadVertexPCT3_ElemGLushort, @function
UploadVertexPCT3_ElemGLushort:
.LFB165:
	.loc 1 573 0
	.cfi_startproc
.LVL691:
	.loc 1 573 0
	lis 9,.LANCHOR0@ha
	slwi 3,3,1
.LVL692:
	lwz 9,.LANCHOR0@l(9)
	lhzx 10,9,3
.LVL693:
.LBB2845:
.LBB2846:
	.loc 2 2193 0
	lis 9,wgPipe@ha
.LVL694:
	lwz 9,wgPipe@l(9)
	sth 10,0(9)
.LVL695:
.LBE2846:
.LBE2845:
.LBB2847:
.LBB2848:
	.loc 2 2266 0
	sth 10,0(9)
.LVL696:
.LBE2848:
.LBE2847:
.LBB2849:
.LBB2850:
	.loc 2 2331 0
	sth 10,0(9)
.LVL697:
.LBE2850:
.LBE2849:
.LBB2851:
.LBB2852:
	sth 10,0(9)
.LVL698:
.LBE2852:
.LBE2851:
.LBB2853:
.LBB2854:
	sth 10,0(9)
	blr
.LBE2854:
.LBE2853:
	.cfi_endproc
.LFE165:
	.size	UploadVertexPCT3_ElemGLushort, .-UploadVertexPCT3_ElemGLushort
	.align 2
	.type	UploadVertexPCT4_ElemGLushort, @function
UploadVertexPCT4_ElemGLushort:
.LFB166:
	.loc 1 573 0
	.cfi_startproc
.LVL699:
	.loc 1 573 0
	lis 9,.LANCHOR0@ha
	slwi 3,3,1
.LVL700:
	lwz 9,.LANCHOR0@l(9)
	lhzx 10,9,3
.LVL701:
.LBB2855:
.LBB2856:
	.loc 2 2193 0
	lis 9,wgPipe@ha
.LVL702:
	lwz 9,wgPipe@l(9)
	sth 10,0(9)
.LVL703:
.LBE2856:
.LBE2855:
.LBB2857:
.LBB2858:
	.loc 2 2266 0
	sth 10,0(9)
.LVL704:
.LBE2858:
.LBE2857:
.LBB2859:
.LBB2860:
	.loc 2 2331 0
	sth 10,0(9)
.LVL705:
.LBE2860:
.LBE2859:
.LBB2861:
.LBB2862:
	sth 10,0(9)
.LVL706:
.LBE2862:
.LBE2861:
.LBB2863:
.LBB2864:
	sth 10,0(9)
.LVL707:
.LBE2864:
.LBE2863:
.LBB2865:
.LBB2866:
	sth 10,0(9)
	blr
.LBE2866:
.LBE2865:
	.cfi_endproc
.LFE166:
	.size	UploadVertexPCT4_ElemGLushort, .-UploadVertexPCT4_ElemGLushort
	.align 2
	.type	UploadVertexPCT5_ElemGLushort, @function
UploadVertexPCT5_ElemGLushort:
.LFB167:
	.loc 1 573 0
	.cfi_startproc
.LVL708:
	.loc 1 573 0
	lis 9,.LANCHOR0@ha
	slwi 3,3,1
.LVL709:
	lwz 9,.LANCHOR0@l(9)
	lhzx 10,9,3
.LVL710:
.LBB2867:
.LBB2868:
	.loc 2 2193 0
	lis 9,wgPipe@ha
.LVL711:
	lwz 9,wgPipe@l(9)
	sth 10,0(9)
.LVL712:
.LBE2868:
.LBE2867:
.LBB2869:
.LBB2870:
	.loc 2 2266 0
	sth 10,0(9)
.LVL713:
.LBE2870:
.LBE2869:
.LBB2871:
.LBB2872:
	.loc 2 2331 0
	sth 10,0(9)
.LVL714:
.LBE2872:
.LBE2871:
.LBB2873:
.LBB2874:
	sth 10,0(9)
.LVL715:
.LBE2874:
.LBE2873:
.LBB2875:
.LBB2876:
	sth 10,0(9)
.LVL716:
.LBE2876:
.LBE2875:
.LBB2877:
.LBB2878:
	sth 10,0(9)
.LVL717:
.LBE2878:
.LBE2877:
.LBB2879:
.LBB2880:
	sth 10,0(9)
	blr
.LBE2880:
.LBE2879:
	.cfi_endproc
.LFE167:
	.size	UploadVertexPCT5_ElemGLushort, .-UploadVertexPCT5_ElemGLushort
	.align 2
	.type	UploadVertexPCT6_ElemGLushort, @function
UploadVertexPCT6_ElemGLushort:
.LFB168:
	.loc 1 573 0
	.cfi_startproc
.LVL718:
	.loc 1 573 0
	lis 9,.LANCHOR0@ha
	slwi 3,3,1
.LVL719:
	lwz 9,.LANCHOR0@l(9)
	lhzx 10,9,3
.LVL720:
.LBB2881:
.LBB2882:
	.loc 2 2193 0
	lis 9,wgPipe@ha
.LVL721:
	lwz 9,wgPipe@l(9)
	sth 10,0(9)
.LVL722:
.LBE2882:
.LBE2881:
.LBB2883:
.LBB2884:
	.loc 2 2266 0
	sth 10,0(9)
.LVL723:
.LBE2884:
.LBE2883:
.LBB2885:
.LBB2886:
	.loc 2 2331 0
	sth 10,0(9)
.LVL724:
.LBE2886:
.LBE2885:
.LBB2887:
.LBB2888:
	sth 10,0(9)
.LVL725:
.LBE2888:
.LBE2887:
.LBB2889:
.LBB2890:
	sth 10,0(9)
.LVL726:
.LBE2890:
.LBE2889:
.LBB2891:
.LBB2892:
	sth 10,0(9)
.LVL727:
.LBE2892:
.LBE2891:
.LBB2893:
.LBB2894:
	sth 10,0(9)
.LVL728:
.LBE2894:
.LBE2893:
.LBB2895:
.LBB2896:
	sth 10,0(9)
	blr
.LBE2896:
.LBE2895:
	.cfi_endproc
.LFE168:
	.size	UploadVertexPCT6_ElemGLushort, .-UploadVertexPCT6_ElemGLushort
	.align 2
	.type	UploadVertexPCT7_ElemGLushort, @function
UploadVertexPCT7_ElemGLushort:
.LFB169:
	.loc 1 573 0
	.cfi_startproc
.LVL729:
	.loc 1 573 0
	lis 9,.LANCHOR0@ha
	slwi 3,3,1
.LVL730:
	lwz 9,.LANCHOR0@l(9)
	lhzx 10,9,3
.LVL731:
.LBB2897:
.LBB2898:
	.loc 2 2193 0
	lis 9,wgPipe@ha
.LVL732:
	lwz 9,wgPipe@l(9)
	sth 10,0(9)
.LVL733:
.LBE2898:
.LBE2897:
.LBB2899:
.LBB2900:
	.loc 2 2266 0
	sth 10,0(9)
.LVL734:
.LBE2900:
.LBE2899:
.LBB2901:
.LBB2902:
	.loc 2 2331 0
	sth 10,0(9)
.LVL735:
.LBE2902:
.LBE2901:
.LBB2903:
.LBB2904:
	sth 10,0(9)
.LVL736:
.LBE2904:
.LBE2903:
.LBB2905:
.LBB2906:
	sth 10,0(9)
.LVL737:
.LBE2906:
.LBE2905:
.LBB2907:
.LBB2908:
	sth 10,0(9)
.LVL738:
.LBE2908:
.LBE2907:
.LBB2909:
.LBB2910:
	sth 10,0(9)
.LVL739:
.LBE2910:
.LBE2909:
.LBB2911:
.LBB2912:
	sth 10,0(9)
.LVL740:
.LBE2912:
.LBE2911:
.LBB2913:
.LBB2914:
	sth 10,0(9)
	blr
.LBE2914:
.LBE2913:
	.cfi_endproc
.LFE169:
	.size	UploadVertexPCT7_ElemGLushort, .-UploadVertexPCT7_ElemGLushort
	.align 2
	.type	UploadVertexPNCT0_ElemGLushort, @function
UploadVertexPNCT0_ElemGLushort:
.LFB170:
	.loc 1 573 0
	.cfi_startproc
.LVL741:
	.loc 1 573 0
	lis 9,.LANCHOR0@ha
	slwi 3,3,1
.LVL742:
	lwz 9,.LANCHOR0@l(9)
	lhzx 10,9,3
.LVL743:
.LBB2915:
.LBB2916:
	.loc 2 2193 0
	lis 9,wgPipe@ha
.LVL744:
	lwz 9,wgPipe@l(9)
	sth 10,0(9)
.LVL745:
.LBE2916:
.LBE2915:
.LBB2917:
.LBB2918:
	.loc 2 2224 0
	sth 10,0(9)
.LVL746:
.LBE2918:
.LBE2917:
.LBB2919:
.LBB2920:
	.loc 2 2266 0
	sth 10,0(9)
	blr
.LBE2920:
.LBE2919:
	.cfi_endproc
.LFE170:
	.size	UploadVertexPNCT0_ElemGLushort, .-UploadVertexPNCT0_ElemGLushort
	.align 2
	.type	UploadVertexPNCT1_ElemGLushort, @function
UploadVertexPNCT1_ElemGLushort:
.LFB171:
	.loc 1 573 0
	.cfi_startproc
.LVL747:
	.loc 1 573 0
	lis 9,.LANCHOR0@ha
	slwi 3,3,1
.LVL748:
	lwz 9,.LANCHOR0@l(9)
	lhzx 10,9,3
.LVL749:
.LBB2921:
.LBB2922:
	.loc 2 2193 0
	lis 9,wgPipe@ha
.LVL750:
	lwz 9,wgPipe@l(9)
	sth 10,0(9)
.LVL751:
.LBE2922:
.LBE2921:
.LBB2923:
.LBB2924:
	.loc 2 2224 0
	sth 10,0(9)
.LVL752:
.LBE2924:
.LBE2923:
.LBB2925:
.LBB2926:
	.loc 2 2266 0
	sth 10,0(9)
.LVL753:
.LBE2926:
.LBE2925:
.LBB2927:
.LBB2928:
	.loc 2 2331 0
	sth 10,0(9)
	blr
.LBE2928:
.LBE2927:
	.cfi_endproc
.LFE171:
	.size	UploadVertexPNCT1_ElemGLushort, .-UploadVertexPNCT1_ElemGLushort
	.align 2
	.type	UploadVertexPNCT2_ElemGLushort, @function
UploadVertexPNCT2_ElemGLushort:
.LFB172:
	.loc 1 573 0
	.cfi_startproc
.LVL754:
	.loc 1 573 0
	lis 9,.LANCHOR0@ha
	slwi 3,3,1
.LVL755:
	lwz 9,.LANCHOR0@l(9)
	lhzx 10,9,3
.LVL756:
.LBB2929:
.LBB2930:
	.loc 2 2193 0
	lis 9,wgPipe@ha
.LVL757:
	lwz 9,wgPipe@l(9)
	sth 10,0(9)
.LVL758:
.LBE2930:
.LBE2929:
.LBB2931:
.LBB2932:
	.loc 2 2224 0
	sth 10,0(9)
.LVL759:
.LBE2932:
.LBE2931:
.LBB2933:
.LBB2934:
	.loc 2 2266 0
	sth 10,0(9)
.LVL760:
.LBE2934:
.LBE2933:
.LBB2935:
.LBB2936:
	.loc 2 2331 0
	sth 10,0(9)
.LVL761:
.LBE2936:
.LBE2935:
.LBB2937:
.LBB2938:
	sth 10,0(9)
	blr
.LBE2938:
.LBE2937:
	.cfi_endproc
.LFE172:
	.size	UploadVertexPNCT2_ElemGLushort, .-UploadVertexPNCT2_ElemGLushort
	.align 2
	.type	UploadVertexPNCT3_ElemGLushort, @function
UploadVertexPNCT3_ElemGLushort:
.LFB173:
	.loc 1 573 0
	.cfi_startproc
.LVL762:
	.loc 1 573 0
	lis 9,.LANCHOR0@ha
	slwi 3,3,1
.LVL763:
	lwz 9,.LANCHOR0@l(9)
	lhzx 10,9,3
.LVL764:
.LBB2939:
.LBB2940:
	.loc 2 2193 0
	lis 9,wgPipe@ha
.LVL765:
	lwz 9,wgPipe@l(9)
	sth 10,0(9)
.LVL766:
.LBE2940:
.LBE2939:
.LBB2941:
.LBB2942:
	.loc 2 2224 0
	sth 10,0(9)
.LVL767:
.LBE2942:
.LBE2941:
.LBB2943:
.LBB2944:
	.loc 2 2266 0
	sth 10,0(9)
.LVL768:
.LBE2944:
.LBE2943:
.LBB2945:
.LBB2946:
	.loc 2 2331 0
	sth 10,0(9)
.LVL769:
.LBE2946:
.LBE2945:
.LBB2947:
.LBB2948:
	sth 10,0(9)
.LVL770:
.LBE2948:
.LBE2947:
.LBB2949:
.LBB2950:
	sth 10,0(9)
	blr
.LBE2950:
.LBE2949:
	.cfi_endproc
.LFE173:
	.size	UploadVertexPNCT3_ElemGLushort, .-UploadVertexPNCT3_ElemGLushort
	.align 2
	.type	UploadVertexPNCT4_ElemGLushort, @function
UploadVertexPNCT4_ElemGLushort:
.LFB174:
	.loc 1 573 0
	.cfi_startproc
.LVL771:
	.loc 1 573 0
	lis 9,.LANCHOR0@ha
	slwi 3,3,1
.LVL772:
	lwz 9,.LANCHOR0@l(9)
	lhzx 10,9,3
.LVL773:
.LBB2951:
.LBB2952:
	.loc 2 2193 0
	lis 9,wgPipe@ha
.LVL774:
	lwz 9,wgPipe@l(9)
	sth 10,0(9)
.LVL775:
.LBE2952:
.LBE2951:
.LBB2953:
.LBB2954:
	.loc 2 2224 0
	sth 10,0(9)
.LVL776:
.LBE2954:
.LBE2953:
.LBB2955:
.LBB2956:
	.loc 2 2266 0
	sth 10,0(9)
.LVL777:
.LBE2956:
.LBE2955:
.LBB2957:
.LBB2958:
	.loc 2 2331 0
	sth 10,0(9)
.LVL778:
.LBE2958:
.LBE2957:
.LBB2959:
.LBB2960:
	sth 10,0(9)
.LVL779:
.LBE2960:
.LBE2959:
.LBB2961:
.LBB2962:
	sth 10,0(9)
.LVL780:
.LBE2962:
.LBE2961:
.LBB2963:
.LBB2964:
	sth 10,0(9)
	blr
.LBE2964:
.LBE2963:
	.cfi_endproc
.LFE174:
	.size	UploadVertexPNCT4_ElemGLushort, .-UploadVertexPNCT4_ElemGLushort
	.align 2
	.type	UploadVertexPNCT5_ElemGLushort, @function
UploadVertexPNCT5_ElemGLushort:
.LFB175:
	.loc 1 573 0
	.cfi_startproc
.LVL781:
	.loc 1 573 0
	lis 9,.LANCHOR0@ha
	slwi 3,3,1
.LVL782:
	lwz 9,.LANCHOR0@l(9)
	lhzx 10,9,3
.LVL783:
.LBB2965:
.LBB2966:
	.loc 2 2193 0
	lis 9,wgPipe@ha
.LVL784:
	lwz 9,wgPipe@l(9)
	sth 10,0(9)
.LVL785:
.LBE2966:
.LBE2965:
.LBB2967:
.LBB2968:
	.loc 2 2224 0
	sth 10,0(9)
.LVL786:
.LBE2968:
.LBE2967:
.LBB2969:
.LBB2970:
	.loc 2 2266 0
	sth 10,0(9)
.LVL787:
.LBE2970:
.LBE2969:
.LBB2971:
.LBB2972:
	.loc 2 2331 0
	sth 10,0(9)
.LVL788:
.LBE2972:
.LBE2971:
.LBB2973:
.LBB2974:
	sth 10,0(9)
.LVL789:
.LBE2974:
.LBE2973:
.LBB2975:
.LBB2976:
	sth 10,0(9)
.LVL790:
.LBE2976:
.LBE2975:
.LBB2977:
.LBB2978:
	sth 10,0(9)
.LVL791:
.LBE2978:
.LBE2977:
.LBB2979:
.LBB2980:
	sth 10,0(9)
	blr
.LBE2980:
.LBE2979:
	.cfi_endproc
.LFE175:
	.size	UploadVertexPNCT5_ElemGLushort, .-UploadVertexPNCT5_ElemGLushort
	.align 2
	.type	UploadVertexPNCT6_ElemGLushort, @function
UploadVertexPNCT6_ElemGLushort:
.LFB176:
	.loc 1 573 0
	.cfi_startproc
.LVL792:
	.loc 1 573 0
	lis 9,.LANCHOR0@ha
	slwi 3,3,1
.LVL793:
	lwz 9,.LANCHOR0@l(9)
	lhzx 10,9,3
.LVL794:
.LBB2981:
.LBB2982:
	.loc 2 2193 0
	lis 9,wgPipe@ha
.LVL795:
	lwz 9,wgPipe@l(9)
	sth 10,0(9)
.LVL796:
.LBE2982:
.LBE2981:
.LBB2983:
.LBB2984:
	.loc 2 2224 0
	sth 10,0(9)
.LVL797:
.LBE2984:
.LBE2983:
.LBB2985:
.LBB2986:
	.loc 2 2266 0
	sth 10,0(9)
.LVL798:
.LBE2986:
.LBE2985:
.LBB2987:
.LBB2988:
	.loc 2 2331 0
	sth 10,0(9)
.LVL799:
.LBE2988:
.LBE2987:
.LBB2989:
.LBB2990:
	sth 10,0(9)
.LVL800:
.LBE2990:
.LBE2989:
.LBB2991:
.LBB2992:
	sth 10,0(9)
.LVL801:
.LBE2992:
.LBE2991:
.LBB2993:
.LBB2994:
	sth 10,0(9)
.LVL802:
.LBE2994:
.LBE2993:
.LBB2995:
.LBB2996:
	sth 10,0(9)
.LVL803:
.LBE2996:
.LBE2995:
.LBB2997:
.LBB2998:
	sth 10,0(9)
	blr
.LBE2998:
.LBE2997:
	.cfi_endproc
.LFE176:
	.size	UploadVertexPNCT6_ElemGLushort, .-UploadVertexPNCT6_ElemGLushort
	.align 2
	.type	UploadVertexPNCT7_ElemGLushort, @function
UploadVertexPNCT7_ElemGLushort:
.LFB177:
	.loc 1 573 0
	.cfi_startproc
.LVL804:
	.loc 1 573 0
	lis 9,.LANCHOR0@ha
	slwi 3,3,1
.LVL805:
	lwz 9,.LANCHOR0@l(9)
	lhzx 10,9,3
.LVL806:
.LBB2999:
.LBB3000:
	.loc 2 2193 0
	lis 9,wgPipe@ha
.LVL807:
	lwz 9,wgPipe@l(9)
	sth 10,0(9)
.LVL808:
.LBE3000:
.LBE2999:
.LBB3001:
.LBB3002:
	.loc 2 2224 0
	sth 10,0(9)
.LVL809:
.LBE3002:
.LBE3001:
.LBB3003:
.LBB3004:
	.loc 2 2266 0
	sth 10,0(9)
.LVL810:
.LBE3004:
.LBE3003:
.LBB3005:
.LBB3006:
	.loc 2 2331 0
	sth 10,0(9)
.LVL811:
.LBE3006:
.LBE3005:
.LBB3007:
.LBB3008:
	sth 10,0(9)
.LVL812:
.LBE3008:
.LBE3007:
.LBB3009:
.LBB3010:
	sth 10,0(9)
.LVL813:
.LBE3010:
.LBE3009:
.LBB3011:
.LBB3012:
	sth 10,0(9)
.LVL814:
.LBE3012:
.LBE3011:
.LBB3013:
.LBB3014:
	sth 10,0(9)
.LVL815:
.LBE3014:
.LBE3013:
.LBB3015:
.LBB3016:
	sth 10,0(9)
.LVL816:
.LBE3016:
.LBE3015:
.LBB3017:
.LBB3018:
	sth 10,0(9)
	blr
.LBE3018:
.LBE3017:
	.cfi_endproc
.LFE177:
	.size	UploadVertexPNCT7_ElemGLushort, .-UploadVertexPNCT7_ElemGLushort
	.align 2
	.type	UploadVertexPT0_ElemGLuint, @function
UploadVertexPT0_ElemGLuint:
.LFB178:
	.loc 1 574 0
	.cfi_startproc
.LVL817:
	lis 9,.LANCHOR0@ha
	stwu 1,-24(1)
	.cfi_def_cfa_offset 24
.LVL818:
	.loc 1 574 0
	lwz 9,.LANCHOR0@l(9)
	slwi 3,3,2
.LVL819:
	lis 8,_tempcolorelement@ha
	lwzx 10,9,3
.LBB3019:
.LBB3020:
	.loc 2 2193 0
	lis 9,wgPipe@ha
	lwz 9,wgPipe@l(9)
.LBE3020:
.LBE3019:
	.loc 1 574 0
	rlwinm 10,10,0,0xffff
.LVL820:
.LBB3022:
.LBB3021:
	.loc 2 2193 0
	sth 10,0(9)
.LVL821:
.LBE3021:
.LBE3022:
	.loc 1 574 0
	la 10,_tempcolorelement@l(8)
.LVL822:
	lfs 13,_tempcolorelement@l(8)
	lis 8,.LC2@ha
	lfs 0,.LC2@l(8)
	addi 8,1,8
	fmuls 13,13,0
	fctiwz 13,13
	stfiwx 13,0,8
	addi 8,1,12
	lfs 13,4(10)
	lwz 6,8(1)
	fmuls 13,13,0
	rlwinm 6,6,0,0xff
	fctiwz 13,13
	stfiwx 13,0,8
	addi 8,1,16
	lfs 13,8(10)
	lwz 7,12(1)
	fmuls 13,13,0
	rlwinm 7,7,0,0xff
	fctiwz 13,13
	stfiwx 13,0,8
	lfs 13,12(10)
	addi 10,1,20
	lwz 8,16(1)
	fmuls 0,13,0
	rlwinm 8,8,0,0xff
	fctiwz 0,0
	stfiwx 0,0,10
	lwz 10,20(1)
.LBB3023:
.LBB3024:
	.loc 2 2229 0
	stb 6,0(9)
.LBE3024:
.LBE3023:
	.loc 1 574 0
	rlwinm 10,10,0,0xff
.LVL823:
.LBB3026:
.LBB3025:
	.loc 2 2230 0
	stb 7,0(9)
	.loc 2 2231 0
	stb 8,0(9)
	.loc 2 2232 0
	stb 10,0(9)
.LBE3025:
.LBE3026:
	.loc 1 574 0
	addi 1,1,24
	.cfi_def_cfa_offset 0
	blr
	.cfi_endproc
.LFE178:
	.size	UploadVertexPT0_ElemGLuint, .-UploadVertexPT0_ElemGLuint
	.align 2
	.type	UploadVertexPT1_ElemGLuint, @function
UploadVertexPT1_ElemGLuint:
.LFB179:
	.loc 1 574 0
	.cfi_startproc
.LVL824:
	lis 9,.LANCHOR0@ha
	stwu 1,-24(1)
	.cfi_def_cfa_offset 24
.LVL825:
	.loc 1 574 0
	lwz 9,.LANCHOR0@l(9)
	slwi 3,3,2
.LVL826:
	lis 7,_tempcolorelement@ha
	lwzx 8,9,3
.LBB3027:
.LBB3028:
	.loc 2 2193 0
	lis 9,wgPipe@ha
	lwz 9,wgPipe@l(9)
.LBE3028:
.LBE3027:
	.loc 1 574 0
	la 10,_tempcolorelement@l(7)
	rlwinm 8,8,0,0xffff
.LVL827:
.LBB3030:
.LBB3029:
	.loc 2 2193 0
	sth 8,0(9)
.LVL828:
.LBE3029:
.LBE3030:
	.loc 1 574 0
	lfs 13,_tempcolorelement@l(7)
	lis 7,.LC2@ha
	lfs 0,.LC2@l(7)
	addi 7,1,8
	fmuls 13,13,0
	fctiwz 13,13
	stfiwx 13,0,7
	addi 7,1,12
	lfs 13,4(10)
	lwz 5,8(1)
	fmuls 13,13,0
	rlwinm 5,5,0,0xff
	fctiwz 13,13
	stfiwx 13,0,7
	addi 7,1,16
	lfs 13,8(10)
	lwz 6,12(1)
	fmuls 13,13,0
	rlwinm 6,6,0,0xff
	fctiwz 13,13
	stfiwx 13,0,7
	lfs 13,12(10)
	addi 10,1,20
	lwz 7,16(1)
	fmuls 0,13,0
	rlwinm 7,7,0,0xff
	fctiwz 0,0
	stfiwx 0,0,10
	lwz 10,20(1)
.LBB3031:
.LBB3032:
	.loc 2 2229 0
	stb 5,0(9)
.LBE3032:
.LBE3031:
	.loc 1 574 0
	rlwinm 10,10,0,0xff
.LVL829:
.LBB3034:
.LBB3033:
	.loc 2 2230 0
	stb 6,0(9)
	.loc 2 2231 0
	stb 7,0(9)
	.loc 2 2232 0
	stb 10,0(9)
.LVL830:
.LBE3033:
.LBE3034:
.LBB3035:
.LBB3036:
	.loc 2 2331 0
	sth 8,0(9)
.LBE3036:
.LBE3035:
	.loc 1 574 0
	addi 1,1,24
	.cfi_def_cfa_offset 0
	blr
	.cfi_endproc
.LFE179:
	.size	UploadVertexPT1_ElemGLuint, .-UploadVertexPT1_ElemGLuint
	.align 2
	.type	UploadVertexPT2_ElemGLuint, @function
UploadVertexPT2_ElemGLuint:
.LFB180:
	.loc 1 574 0
	.cfi_startproc
.LVL831:
	lis 9,.LANCHOR0@ha
	stwu 1,-24(1)
	.cfi_def_cfa_offset 24
.LVL832:
	.loc 1 574 0
	lwz 9,.LANCHOR0@l(9)
	slwi 3,3,2
.LVL833:
	lis 7,_tempcolorelement@ha
	lwzx 10,9,3
.LBB3037:
.LBB3038:
	.loc 2 2193 0
	lis 9,wgPipe@ha
	lwz 9,wgPipe@l(9)
.LBE3038:
.LBE3037:
	.loc 1 574 0
	la 8,_tempcolorelement@l(7)
	rlwinm 10,10,0,0xffff
.LVL834:
.LBB3040:
.LBB3039:
	.loc 2 2193 0
	sth 10,0(9)
.LVL835:
.LBE3039:
.LBE3040:
	.loc 1 574 0
	lfs 13,_tempcolorelement@l(7)
	lis 7,.LC2@ha
	lfs 0,.LC2@l(7)
	addi 7,1,8
	fmuls 13,13,0
	fctiwz 13,13
	stfiwx 13,0,7
	addi 7,1,12
	lfs 13,4(8)
	lwz 5,8(1)
	fmuls 13,13,0
	rlwinm 5,5,0,0xff
	fctiwz 13,13
	stfiwx 13,0,7
	addi 7,1,16
	lfs 13,8(8)
	lwz 6,12(1)
	fmuls 13,13,0
	rlwinm 6,6,0,0xff
	fctiwz 13,13
	stfiwx 13,0,7
	lfs 13,12(8)
	addi 8,1,20
	lwz 7,16(1)
	fmuls 0,13,0
	rlwinm 7,7,0,0xff
	fctiwz 0,0
	stfiwx 0,0,8
	lwz 8,20(1)
.LBB3041:
.LBB3042:
	.loc 2 2229 0
	stb 5,0(9)
.LBE3042:
.LBE3041:
	.loc 1 574 0
	rlwinm 8,8,0,0xff
.LVL836:
.LBB3044:
.LBB3043:
	.loc 2 2230 0
	stb 6,0(9)
	.loc 2 2231 0
	stb 7,0(9)
	.loc 2 2232 0
	stb 8,0(9)
.LVL837:
.LBE3043:
.LBE3044:
.LBB3045:
.LBB3046:
	.loc 2 2331 0
	sth 10,0(9)
.LVL838:
.LBE3046:
.LBE3045:
.LBB3047:
.LBB3048:
	sth 10,0(9)
.LBE3048:
.LBE3047:
	.loc 1 574 0
	addi 1,1,24
	.cfi_def_cfa_offset 0
	blr
	.cfi_endproc
.LFE180:
	.size	UploadVertexPT2_ElemGLuint, .-UploadVertexPT2_ElemGLuint
	.align 2
	.type	UploadVertexPT3_ElemGLuint, @function
UploadVertexPT3_ElemGLuint:
.LFB181:
	.loc 1 574 0
	.cfi_startproc
.LVL839:
	lis 9,.LANCHOR0@ha
	stwu 1,-24(1)
	.cfi_def_cfa_offset 24
.LVL840:
	.loc 1 574 0
	lwz 9,.LANCHOR0@l(9)
	slwi 3,3,2
.LVL841:
	lis 7,_tempcolorelement@ha
	lwzx 10,9,3
.LBB3049:
.LBB3050:
	.loc 2 2193 0
	lis 9,wgPipe@ha
	lwz 9,wgPipe@l(9)
.LBE3050:
.LBE3049:
	.loc 1 574 0
	la 8,_tempcolorelement@l(7)
	rlwinm 10,10,0,0xffff
.LVL842:
.LBB3052:
.LBB3051:
	.loc 2 2193 0
	sth 10,0(9)
.LVL843:
.LBE3051:
.LBE3052:
	.loc 1 574 0
	lfs 13,_tempcolorelement@l(7)
	lis 7,.LC2@ha
	lfs 0,.LC2@l(7)
	addi 7,1,8
	fmuls 13,13,0
	fctiwz 13,13
	stfiwx 13,0,7
	addi 7,1,12
	lfs 13,4(8)
	lwz 5,8(1)
	fmuls 13,13,0
	rlwinm 5,5,0,0xff
	fctiwz 13,13
	stfiwx 13,0,7
	addi 7,1,16
	lfs 13,8(8)
	lwz 6,12(1)
	fmuls 13,13,0
	rlwinm 6,6,0,0xff
	fctiwz 13,13
	stfiwx 13,0,7
	lfs 13,12(8)
	addi 8,1,20
	lwz 7,16(1)
	fmuls 0,13,0
	rlwinm 7,7,0,0xff
	fctiwz 0,0
	stfiwx 0,0,8
	lwz 8,20(1)
.LBB3053:
.LBB3054:
	.loc 2 2229 0
	stb 5,0(9)
.LBE3054:
.LBE3053:
	.loc 1 574 0
	rlwinm 8,8,0,0xff
.LVL844:
.LBB3056:
.LBB3055:
	.loc 2 2230 0
	stb 6,0(9)
	.loc 2 2231 0
	stb 7,0(9)
	.loc 2 2232 0
	stb 8,0(9)
.LVL845:
.LBE3055:
.LBE3056:
.LBB3057:
.LBB3058:
	.loc 2 2331 0
	sth 10,0(9)
.LVL846:
.LBE3058:
.LBE3057:
.LBB3059:
.LBB3060:
	sth 10,0(9)
.LVL847:
.LBE3060:
.LBE3059:
.LBB3061:
.LBB3062:
	sth 10,0(9)
.LBE3062:
.LBE3061:
	.loc 1 574 0
	addi 1,1,24
	.cfi_def_cfa_offset 0
	blr
	.cfi_endproc
.LFE181:
	.size	UploadVertexPT3_ElemGLuint, .-UploadVertexPT3_ElemGLuint
	.align 2
	.type	UploadVertexPT4_ElemGLuint, @function
UploadVertexPT4_ElemGLuint:
.LFB182:
	.loc 1 574 0
	.cfi_startproc
.LVL848:
	lis 9,.LANCHOR0@ha
	stwu 1,-24(1)
	.cfi_def_cfa_offset 24
.LVL849:
	.loc 1 574 0
	lwz 9,.LANCHOR0@l(9)
	slwi 3,3,2
.LVL850:
	lis 7,_tempcolorelement@ha
	lwzx 10,9,3
.LBB3063:
.LBB3064:
	.loc 2 2193 0
	lis 9,wgPipe@ha
	lwz 9,wgPipe@l(9)
.LBE3064:
.LBE3063:
	.loc 1 574 0
	la 8,_tempcolorelement@l(7)
	rlwinm 10,10,0,0xffff
.LVL851:
.LBB3066:
.LBB3065:
	.loc 2 2193 0
	sth 10,0(9)
.LVL852:
.LBE3065:
.LBE3066:
	.loc 1 574 0
	lfs 13,_tempcolorelement@l(7)
	lis 7,.LC2@ha
	lfs 0,.LC2@l(7)
	addi 7,1,8
	fmuls 13,13,0
	fctiwz 13,13
	stfiwx 13,0,7
	addi 7,1,12
	lfs 13,4(8)
	lwz 5,8(1)
	fmuls 13,13,0
	rlwinm 5,5,0,0xff
	fctiwz 13,13
	stfiwx 13,0,7
	addi 7,1,16
	lfs 13,8(8)
	lwz 6,12(1)
	fmuls 13,13,0
	rlwinm 6,6,0,0xff
	fctiwz 13,13
	stfiwx 13,0,7
	lfs 13,12(8)
	addi 8,1,20
	lwz 7,16(1)
	fmuls 0,13,0
	rlwinm 7,7,0,0xff
	fctiwz 0,0
	stfiwx 0,0,8
	lwz 8,20(1)
.LBB3067:
.LBB3068:
	.loc 2 2229 0
	stb 5,0(9)
.LBE3068:
.LBE3067:
	.loc 1 574 0
	rlwinm 8,8,0,0xff
.LVL853:
.LBB3070:
.LBB3069:
	.loc 2 2230 0
	stb 6,0(9)
	.loc 2 2231 0
	stb 7,0(9)
	.loc 2 2232 0
	stb 8,0(9)
.LVL854:
.LBE3069:
.LBE3070:
.LBB3071:
.LBB3072:
	.loc 2 2331 0
	sth 10,0(9)
.LVL855:
.LBE3072:
.LBE3071:
.LBB3073:
.LBB3074:
	sth 10,0(9)
.LVL856:
.LBE3074:
.LBE3073:
.LBB3075:
.LBB3076:
	sth 10,0(9)
.LVL857:
.LBE3076:
.LBE3075:
.LBB3077:
.LBB3078:
	sth 10,0(9)
.LBE3078:
.LBE3077:
	.loc 1 574 0
	addi 1,1,24
	.cfi_def_cfa_offset 0
	blr
	.cfi_endproc
.LFE182:
	.size	UploadVertexPT4_ElemGLuint, .-UploadVertexPT4_ElemGLuint
	.align 2
	.type	UploadVertexPT5_ElemGLuint, @function
UploadVertexPT5_ElemGLuint:
.LFB183:
	.loc 1 574 0
	.cfi_startproc
.LVL858:
	lis 9,.LANCHOR0@ha
	stwu 1,-24(1)
	.cfi_def_cfa_offset 24
.LVL859:
	.loc 1 574 0
	lwz 9,.LANCHOR0@l(9)
	slwi 3,3,2
.LVL860:
	lis 7,_tempcolorelement@ha
	lwzx 10,9,3
.LBB3079:
.LBB3080:
	.loc 2 2193 0
	lis 9,wgPipe@ha
	lwz 9,wgPipe@l(9)
.LBE3080:
.LBE3079:
	.loc 1 574 0
	la 8,_tempcolorelement@l(7)
	rlwinm 10,10,0,0xffff
.LVL861:
.LBB3082:
.LBB3081:
	.loc 2 2193 0
	sth 10,0(9)
.LVL862:
.LBE3081:
.LBE3082:
	.loc 1 574 0
	lfs 13,_tempcolorelement@l(7)
	lis 7,.LC2@ha
	lfs 0,.LC2@l(7)
	addi 7,1,8
	fmuls 13,13,0
	fctiwz 13,13
	stfiwx 13,0,7
	addi 7,1,12
	lfs 13,4(8)
	lwz 5,8(1)
	fmuls 13,13,0
	rlwinm 5,5,0,0xff
	fctiwz 13,13
	stfiwx 13,0,7
	addi 7,1,16
	lfs 13,8(8)
	lwz 6,12(1)
	fmuls 13,13,0
	rlwinm 6,6,0,0xff
	fctiwz 13,13
	stfiwx 13,0,7
	lfs 13,12(8)
	addi 8,1,20
	lwz 7,16(1)
	fmuls 0,13,0
	rlwinm 7,7,0,0xff
	fctiwz 0,0
	stfiwx 0,0,8
	lwz 8,20(1)
.LBB3083:
.LBB3084:
	.loc 2 2229 0
	stb 5,0(9)
.LBE3084:
.LBE3083:
	.loc 1 574 0
	rlwinm 8,8,0,0xff
.LVL863:
.LBB3086:
.LBB3085:
	.loc 2 2230 0
	stb 6,0(9)
	.loc 2 2231 0
	stb 7,0(9)
	.loc 2 2232 0
	stb 8,0(9)
.LVL864:
.LBE3085:
.LBE3086:
.LBB3087:
.LBB3088:
	.loc 2 2331 0
	sth 10,0(9)
.LVL865:
.LBE3088:
.LBE3087:
.LBB3089:
.LBB3090:
	sth 10,0(9)
.LVL866:
.LBE3090:
.LBE3089:
.LBB3091:
.LBB3092:
	sth 10,0(9)
.LVL867:
.LBE3092:
.LBE3091:
.LBB3093:
.LBB3094:
	sth 10,0(9)
.LVL868:
.LBE3094:
.LBE3093:
.LBB3095:
.LBB3096:
	sth 10,0(9)
.LBE3096:
.LBE3095:
	.loc 1 574 0
	addi 1,1,24
	.cfi_def_cfa_offset 0
	blr
	.cfi_endproc
.LFE183:
	.size	UploadVertexPT5_ElemGLuint, .-UploadVertexPT5_ElemGLuint
	.align 2
	.type	UploadVertexPT6_ElemGLuint, @function
UploadVertexPT6_ElemGLuint:
.LFB184:
	.loc 1 574 0
	.cfi_startproc
.LVL869:
	lis 9,.LANCHOR0@ha
	stwu 1,-24(1)
	.cfi_def_cfa_offset 24
.LVL870:
	.loc 1 574 0
	lwz 9,.LANCHOR0@l(9)
	slwi 3,3,2
.LVL871:
	lis 7,_tempcolorelement@ha
	lwzx 10,9,3
.LBB3097:
.LBB3098:
	.loc 2 2193 0
	lis 9,wgPipe@ha
	lwz 9,wgPipe@l(9)
.LBE3098:
.LBE3097:
	.loc 1 574 0
	la 8,_tempcolorelement@l(7)
	rlwinm 10,10,0,0xffff
.LVL872:
.LBB3100:
.LBB3099:
	.loc 2 2193 0
	sth 10,0(9)
.LVL873:
.LBE3099:
.LBE3100:
	.loc 1 574 0
	lfs 13,_tempcolorelement@l(7)
	lis 7,.LC2@ha
	lfs 0,.LC2@l(7)
	addi 7,1,8
	fmuls 13,13,0
	fctiwz 13,13
	stfiwx 13,0,7
	addi 7,1,12
	lfs 13,4(8)
	lwz 5,8(1)
	fmuls 13,13,0
	rlwinm 5,5,0,0xff
	fctiwz 13,13
	stfiwx 13,0,7
	addi 7,1,16
	lfs 13,8(8)
	lwz 6,12(1)
	fmuls 13,13,0
	rlwinm 6,6,0,0xff
	fctiwz 13,13
	stfiwx 13,0,7
	lfs 13,12(8)
	addi 8,1,20
	lwz 7,16(1)
	fmuls 0,13,0
	rlwinm 7,7,0,0xff
	fctiwz 0,0
	stfiwx 0,0,8
	lwz 8,20(1)
.LBB3101:
.LBB3102:
	.loc 2 2229 0
	stb 5,0(9)
.LBE3102:
.LBE3101:
	.loc 1 574 0
	rlwinm 8,8,0,0xff
.LVL874:
.LBB3104:
.LBB3103:
	.loc 2 2230 0
	stb 6,0(9)
	.loc 2 2231 0
	stb 7,0(9)
	.loc 2 2232 0
	stb 8,0(9)
.LVL875:
.LBE3103:
.LBE3104:
.LBB3105:
.LBB3106:
	.loc 2 2331 0
	sth 10,0(9)
.LVL876:
.LBE3106:
.LBE3105:
.LBB3107:
.LBB3108:
	sth 10,0(9)
.LVL877:
.LBE3108:
.LBE3107:
.LBB3109:
.LBB3110:
	sth 10,0(9)
.LVL878:
.LBE3110:
.LBE3109:
.LBB3111:
.LBB3112:
	sth 10,0(9)
.LVL879:
.LBE3112:
.LBE3111:
.LBB3113:
.LBB3114:
	sth 10,0(9)
.LVL880:
.LBE3114:
.LBE3113:
.LBB3115:
.LBB3116:
	sth 10,0(9)
.LBE3116:
.LBE3115:
	.loc 1 574 0
	addi 1,1,24
	.cfi_def_cfa_offset 0
	blr
	.cfi_endproc
.LFE184:
	.size	UploadVertexPT6_ElemGLuint, .-UploadVertexPT6_ElemGLuint
	.align 2
	.type	UploadVertexPT7_ElemGLuint, @function
UploadVertexPT7_ElemGLuint:
.LFB185:
	.loc 1 574 0
	.cfi_startproc
.LVL881:
	lis 9,.LANCHOR0@ha
	stwu 1,-24(1)
	.cfi_def_cfa_offset 24
.LVL882:
	.loc 1 574 0
	lwz 9,.LANCHOR0@l(9)
	slwi 3,3,2
.LVL883:
	lis 7,_tempcolorelement@ha
	lwzx 10,9,3
.LBB3117:
.LBB3118:
	.loc 2 2193 0
	lis 9,wgPipe@ha
	lwz 9,wgPipe@l(9)
.LBE3118:
.LBE3117:
	.loc 1 574 0
	la 8,_tempcolorelement@l(7)
	rlwinm 10,10,0,0xffff
.LVL884:
.LBB3120:
.LBB3119:
	.loc 2 2193 0
	sth 10,0(9)
.LVL885:
.LBE3119:
.LBE3120:
	.loc 1 574 0
	lfs 13,_tempcolorelement@l(7)
	lis 7,.LC2@ha
	lfs 0,.LC2@l(7)
	addi 7,1,8
	fmuls 13,13,0
	fctiwz 13,13
	stfiwx 13,0,7
	addi 7,1,12
	lfs 13,4(8)
	lwz 5,8(1)
	fmuls 13,13,0
	rlwinm 5,5,0,0xff
	fctiwz 13,13
	stfiwx 13,0,7
	addi 7,1,16
	lfs 13,8(8)
	lwz 6,12(1)
	fmuls 13,13,0
	rlwinm 6,6,0,0xff
	fctiwz 13,13
	stfiwx 13,0,7
	lfs 13,12(8)
	addi 8,1,20
	lwz 7,16(1)
	fmuls 0,13,0
	rlwinm 7,7,0,0xff
	fctiwz 0,0
	stfiwx 0,0,8
	lwz 8,20(1)
.LBB3121:
.LBB3122:
	.loc 2 2229 0
	stb 5,0(9)
.LBE3122:
.LBE3121:
	.loc 1 574 0
	rlwinm 8,8,0,0xff
.LVL886:
.LBB3124:
.LBB3123:
	.loc 2 2230 0
	stb 6,0(9)
	.loc 2 2231 0
	stb 7,0(9)
	.loc 2 2232 0
	stb 8,0(9)
.LVL887:
.LBE3123:
.LBE3124:
.LBB3125:
.LBB3126:
	.loc 2 2331 0
	sth 10,0(9)
.LVL888:
.LBE3126:
.LBE3125:
.LBB3127:
.LBB3128:
	sth 10,0(9)
.LVL889:
.LBE3128:
.LBE3127:
.LBB3129:
.LBB3130:
	sth 10,0(9)
.LVL890:
.LBE3130:
.LBE3129:
.LBB3131:
.LBB3132:
	sth 10,0(9)
.LVL891:
.LBE3132:
.LBE3131:
.LBB3133:
.LBB3134:
	sth 10,0(9)
.LVL892:
.LBE3134:
.LBE3133:
.LBB3135:
.LBB3136:
	sth 10,0(9)
.LVL893:
.LBE3136:
.LBE3135:
.LBB3137:
.LBB3138:
	sth 10,0(9)
.LBE3138:
.LBE3137:
	.loc 1 574 0
	addi 1,1,24
	.cfi_def_cfa_offset 0
	blr
	.cfi_endproc
.LFE185:
	.size	UploadVertexPT7_ElemGLuint, .-UploadVertexPT7_ElemGLuint
	.align 2
	.type	UploadVertexPNT0_ElemGLuint, @function
UploadVertexPNT0_ElemGLuint:
.LFB186:
	.loc 1 574 0
	.cfi_startproc
.LVL894:
	lis 9,.LANCHOR0@ha
	stwu 1,-24(1)
	.cfi_def_cfa_offset 24
.LVL895:
	.loc 1 574 0
	lwz 9,.LANCHOR0@l(9)
	slwi 3,3,2
.LVL896:
	lis 8,_tempcolorelement@ha
	lwzx 10,9,3
.LBB3139:
.LBB3140:
	.loc 2 2193 0
	lis 9,wgPipe@ha
	lwz 9,wgPipe@l(9)
.LBE3140:
.LBE3139:
	.loc 1 574 0
	rlwinm 10,10,0,0xffff
.LVL897:
.LBB3142:
.LBB3141:
	.loc 2 2193 0
	sth 10,0(9)
.LVL898:
.LBE3141:
.LBE3142:
.LBB3143:
.LBB3144:
	.loc 2 2224 0
	sth 10,0(9)
.LVL899:
.LBE3144:
.LBE3143:
	.loc 1 574 0
	la 10,_tempcolorelement@l(8)
.LVL900:
	lfs 13,_tempcolorelement@l(8)
	lis 8,.LC2@ha
	lfs 0,.LC2@l(8)
	addi 8,1,8
	fmuls 13,13,0
	fctiwz 13,13
	stfiwx 13,0,8
	addi 8,1,12
	lfs 13,4(10)
	lwz 6,8(1)
	fmuls 13,13,0
	rlwinm 6,6,0,0xff
	fctiwz 13,13
	stfiwx 13,0,8
	addi 8,1,16
	lfs 13,8(10)
	lwz 7,12(1)
	fmuls 13,13,0
	rlwinm 7,7,0,0xff
	fctiwz 13,13
	stfiwx 13,0,8
	lfs 13,12(10)
	addi 10,1,20
	lwz 8,16(1)
	fmuls 0,13,0
	rlwinm 8,8,0,0xff
	fctiwz 0,0
	stfiwx 0,0,10
	lwz 10,20(1)
.LBB3145:
.LBB3146:
	.loc 2 2229 0
	stb 6,0(9)
.LBE3146:
.LBE3145:
	.loc 1 574 0
	rlwinm 10,10,0,0xff
.LVL901:
.LBB3148:
.LBB3147:
	.loc 2 2230 0
	stb 7,0(9)
	.loc 2 2231 0
	stb 8,0(9)
	.loc 2 2232 0
	stb 10,0(9)
.LBE3147:
.LBE3148:
	.loc 1 574 0
	addi 1,1,24
	.cfi_def_cfa_offset 0
	blr
	.cfi_endproc
.LFE186:
	.size	UploadVertexPNT0_ElemGLuint, .-UploadVertexPNT0_ElemGLuint
	.align 2
	.type	UploadVertexPNT1_ElemGLuint, @function
UploadVertexPNT1_ElemGLuint:
.LFB187:
	.loc 1 574 0
	.cfi_startproc
.LVL902:
	lis 9,.LANCHOR0@ha
	stwu 1,-24(1)
	.cfi_def_cfa_offset 24
.LVL903:
	.loc 1 574 0
	lwz 9,.LANCHOR0@l(9)
	slwi 3,3,2
.LVL904:
	lis 7,_tempcolorelement@ha
	lwzx 10,9,3
.LBB3149:
.LBB3150:
	.loc 2 2193 0
	lis 9,wgPipe@ha
	lwz 9,wgPipe@l(9)
.LBE3150:
.LBE3149:
	.loc 1 574 0
	la 8,_tempcolorelement@l(7)
	rlwinm 10,10,0,0xffff
.LVL905:
.LBB3152:
.LBB3151:
	.loc 2 2193 0
	sth 10,0(9)
.LVL906:
.LBE3151:
.LBE3152:
.LBB3153:
.LBB3154:
	.loc 2 2224 0
	sth 10,0(9)
.LVL907:
.LBE3154:
.LBE3153:
	.loc 1 574 0
	lfs 13,_tempcolorelement@l(7)
	lis 7,.LC2@ha
	lfs 0,.LC2@l(7)
	addi 7,1,8
	fmuls 13,13,0
	fctiwz 13,13
	stfiwx 13,0,7
	addi 7,1,12
	lfs 13,4(8)
	lwz 5,8(1)
	fmuls 13,13,0
	rlwinm 5,5,0,0xff
	fctiwz 13,13
	stfiwx 13,0,7
	addi 7,1,16
	lfs 13,8(8)
	lwz 6,12(1)
	fmuls 13,13,0
	rlwinm 6,6,0,0xff
	fctiwz 13,13
	stfiwx 13,0,7
	lfs 13,12(8)
	addi 8,1,20
	lwz 7,16(1)
	fmuls 0,13,0
	rlwinm 7,7,0,0xff
	fctiwz 0,0
	stfiwx 0,0,8
	lwz 8,20(1)
.LBB3155:
.LBB3156:
	.loc 2 2229 0
	stb 5,0(9)
.LBE3156:
.LBE3155:
	.loc 1 574 0
	rlwinm 8,8,0,0xff
.LVL908:
.LBB3158:
.LBB3157:
	.loc 2 2230 0
	stb 6,0(9)
	.loc 2 2231 0
	stb 7,0(9)
	.loc 2 2232 0
	stb 8,0(9)
.LVL909:
.LBE3157:
.LBE3158:
.LBB3159:
.LBB3160:
	.loc 2 2331 0
	sth 10,0(9)
.LBE3160:
.LBE3159:
	.loc 1 574 0
	addi 1,1,24
	.cfi_def_cfa_offset 0
	blr
	.cfi_endproc
.LFE187:
	.size	UploadVertexPNT1_ElemGLuint, .-UploadVertexPNT1_ElemGLuint
	.align 2
	.type	UploadVertexPNT2_ElemGLuint, @function
UploadVertexPNT2_ElemGLuint:
.LFB188:
	.loc 1 574 0
	.cfi_startproc
.LVL910:
	lis 9,.LANCHOR0@ha
	stwu 1,-24(1)
	.cfi_def_cfa_offset 24
.LVL911:
	.loc 1 574 0
	lwz 9,.LANCHOR0@l(9)
	slwi 3,3,2
.LVL912:
	lis 7,_tempcolorelement@ha
	lwzx 10,9,3
.LBB3161:
.LBB3162:
	.loc 2 2193 0
	lis 9,wgPipe@ha
	lwz 9,wgPipe@l(9)
.LBE3162:
.LBE3161:
	.loc 1 574 0
	la 8,_tempcolorelement@l(7)
	rlwinm 10,10,0,0xffff
.LVL913:
.LBB3164:
.LBB3163:
	.loc 2 2193 0
	sth 10,0(9)
.LVL914:
.LBE3163:
.LBE3164:
.LBB3165:
.LBB3166:
	.loc 2 2224 0
	sth 10,0(9)
.LVL915:
.LBE3166:
.LBE3165:
	.loc 1 574 0
	lfs 13,_tempcolorelement@l(7)
	lis 7,.LC2@ha
	lfs 0,.LC2@l(7)
	addi 7,1,8
	fmuls 13,13,0
	fctiwz 13,13
	stfiwx 13,0,7
	addi 7,1,12
	lfs 13,4(8)
	lwz 5,8(1)
	fmuls 13,13,0
	rlwinm 5,5,0,0xff
	fctiwz 13,13
	stfiwx 13,0,7
	addi 7,1,16
	lfs 13,8(8)
	lwz 6,12(1)
	fmuls 13,13,0
	rlwinm 6,6,0,0xff
	fctiwz 13,13
	stfiwx 13,0,7
	lfs 13,12(8)
	addi 8,1,20
	lwz 7,16(1)
	fmuls 0,13,0
	rlwinm 7,7,0,0xff
	fctiwz 0,0
	stfiwx 0,0,8
	lwz 8,20(1)
.LBB3167:
.LBB3168:
	.loc 2 2229 0
	stb 5,0(9)
.LBE3168:
.LBE3167:
	.loc 1 574 0
	rlwinm 8,8,0,0xff
.LVL916:
.LBB3170:
.LBB3169:
	.loc 2 2230 0
	stb 6,0(9)
	.loc 2 2231 0
	stb 7,0(9)
	.loc 2 2232 0
	stb 8,0(9)
.LVL917:
.LBE3169:
.LBE3170:
.LBB3171:
.LBB3172:
	.loc 2 2331 0
	sth 10,0(9)
.LVL918:
.LBE3172:
.LBE3171:
.LBB3173:
.LBB3174:
	sth 10,0(9)
.LBE3174:
.LBE3173:
	.loc 1 574 0
	addi 1,1,24
	.cfi_def_cfa_offset 0
	blr
	.cfi_endproc
.LFE188:
	.size	UploadVertexPNT2_ElemGLuint, .-UploadVertexPNT2_ElemGLuint
	.align 2
	.type	UploadVertexPNT3_ElemGLuint, @function
UploadVertexPNT3_ElemGLuint:
.LFB189:
	.loc 1 574 0
	.cfi_startproc
.LVL919:
	lis 9,.LANCHOR0@ha
	stwu 1,-24(1)
	.cfi_def_cfa_offset 24
.LVL920:
	.loc 1 574 0
	lwz 9,.LANCHOR0@l(9)
	slwi 3,3,2
.LVL921:
	lis 7,_tempcolorelement@ha
	lwzx 10,9,3
.LBB3175:
.LBB3176:
	.loc 2 2193 0
	lis 9,wgPipe@ha
	lwz 9,wgPipe@l(9)
.LBE3176:
.LBE3175:
	.loc 1 574 0
	la 8,_tempcolorelement@l(7)
	rlwinm 10,10,0,0xffff
.LVL922:
.LBB3178:
.LBB3177:
	.loc 2 2193 0
	sth 10,0(9)
.LVL923:
.LBE3177:
.LBE3178:
.LBB3179:
.LBB3180:
	.loc 2 2224 0
	sth 10,0(9)
.LVL924:
.LBE3180:
.LBE3179:
	.loc 1 574 0
	lfs 13,_tempcolorelement@l(7)
	lis 7,.LC2@ha
	lfs 0,.LC2@l(7)
	addi 7,1,8
	fmuls 13,13,0
	fctiwz 13,13
	stfiwx 13,0,7
	addi 7,1,12
	lfs 13,4(8)
	lwz 5,8(1)
	fmuls 13,13,0
	rlwinm 5,5,0,0xff
	fctiwz 13,13
	stfiwx 13,0,7
	addi 7,1,16
	lfs 13,8(8)
	lwz 6,12(1)
	fmuls 13,13,0
	rlwinm 6,6,0,0xff
	fctiwz 13,13
	stfiwx 13,0,7
	lfs 13,12(8)
	addi 8,1,20
	lwz 7,16(1)
	fmuls 0,13,0
	rlwinm 7,7,0,0xff
	fctiwz 0,0
	stfiwx 0,0,8
	lwz 8,20(1)
.LBB3181:
.LBB3182:
	.loc 2 2229 0
	stb 5,0(9)
.LBE3182:
.LBE3181:
	.loc 1 574 0
	rlwinm 8,8,0,0xff
.LVL925:
.LBB3184:
.LBB3183:
	.loc 2 2230 0
	stb 6,0(9)
	.loc 2 2231 0
	stb 7,0(9)
	.loc 2 2232 0
	stb 8,0(9)
.LVL926:
.LBE3183:
.LBE3184:
.LBB3185:
.LBB3186:
	.loc 2 2331 0
	sth 10,0(9)
.LVL927:
.LBE3186:
.LBE3185:
.LBB3187:
.LBB3188:
	sth 10,0(9)
.LVL928:
.LBE3188:
.LBE3187:
.LBB3189:
.LBB3190:
	sth 10,0(9)
.LBE3190:
.LBE3189:
	.loc 1 574 0
	addi 1,1,24
	.cfi_def_cfa_offset 0
	blr
	.cfi_endproc
.LFE189:
	.size	UploadVertexPNT3_ElemGLuint, .-UploadVertexPNT3_ElemGLuint
	.align 2
	.type	UploadVertexPNT4_ElemGLuint, @function
UploadVertexPNT4_ElemGLuint:
.LFB190:
	.loc 1 574 0
	.cfi_startproc
.LVL929:
	lis 9,.LANCHOR0@ha
	stwu 1,-24(1)
	.cfi_def_cfa_offset 24
.LVL930:
	.loc 1 574 0
	lwz 9,.LANCHOR0@l(9)
	slwi 3,3,2
.LVL931:
	lis 7,_tempcolorelement@ha
	lwzx 10,9,3
.LBB3191:
.LBB3192:
	.loc 2 2193 0
	lis 9,wgPipe@ha
	lwz 9,wgPipe@l(9)
.LBE3192:
.LBE3191:
	.loc 1 574 0
	la 8,_tempcolorelement@l(7)
	rlwinm 10,10,0,0xffff
.LVL932:
.LBB3194:
.LBB3193:
	.loc 2 2193 0
	sth 10,0(9)
.LVL933:
.LBE3193:
.LBE3194:
.LBB3195:
.LBB3196:
	.loc 2 2224 0
	sth 10,0(9)
.LVL934:
.LBE3196:
.LBE3195:
	.loc 1 574 0
	lfs 13,_tempcolorelement@l(7)
	lis 7,.LC2@ha
	lfs 0,.LC2@l(7)
	addi 7,1,8
	fmuls 13,13,0
	fctiwz 13,13
	stfiwx 13,0,7
	addi 7,1,12
	lfs 13,4(8)
	lwz 5,8(1)
	fmuls 13,13,0
	rlwinm 5,5,0,0xff
	fctiwz 13,13
	stfiwx 13,0,7
	addi 7,1,16
	lfs 13,8(8)
	lwz 6,12(1)
	fmuls 13,13,0
	rlwinm 6,6,0,0xff
	fctiwz 13,13
	stfiwx 13,0,7
	lfs 13,12(8)
	addi 8,1,20
	lwz 7,16(1)
	fmuls 0,13,0
	rlwinm 7,7,0,0xff
	fctiwz 0,0
	stfiwx 0,0,8
	lwz 8,20(1)
.LBB3197:
.LBB3198:
	.loc 2 2229 0
	stb 5,0(9)
.LBE3198:
.LBE3197:
	.loc 1 574 0
	rlwinm 8,8,0,0xff
.LVL935:
.LBB3200:
.LBB3199:
	.loc 2 2230 0
	stb 6,0(9)
	.loc 2 2231 0
	stb 7,0(9)
	.loc 2 2232 0
	stb 8,0(9)
.LVL936:
.LBE3199:
.LBE3200:
.LBB3201:
.LBB3202:
	.loc 2 2331 0
	sth 10,0(9)
.LVL937:
.LBE3202:
.LBE3201:
.LBB3203:
.LBB3204:
	sth 10,0(9)
.LVL938:
.LBE3204:
.LBE3203:
.LBB3205:
.LBB3206:
	sth 10,0(9)
.LVL939:
.LBE3206:
.LBE3205:
.LBB3207:
.LBB3208:
	sth 10,0(9)
.LBE3208:
.LBE3207:
	.loc 1 574 0
	addi 1,1,24
	.cfi_def_cfa_offset 0
	blr
	.cfi_endproc
.LFE190:
	.size	UploadVertexPNT4_ElemGLuint, .-UploadVertexPNT4_ElemGLuint
	.align 2
	.type	UploadVertexPNT5_ElemGLuint, @function
UploadVertexPNT5_ElemGLuint:
.LFB191:
	.loc 1 574 0
	.cfi_startproc
.LVL940:
	lis 9,.LANCHOR0@ha
	stwu 1,-24(1)
	.cfi_def_cfa_offset 24
.LVL941:
	.loc 1 574 0
	lwz 9,.LANCHOR0@l(9)
	slwi 3,3,2
.LVL942:
	lis 7,_tempcolorelement@ha
	lwzx 10,9,3
.LBB3209:
.LBB3210:
	.loc 2 2193 0
	lis 9,wgPipe@ha
	lwz 9,wgPipe@l(9)
.LBE3210:
.LBE3209:
	.loc 1 574 0
	la 8,_tempcolorelement@l(7)
	rlwinm 10,10,0,0xffff
.LVL943:
.LBB3212:
.LBB3211:
	.loc 2 2193 0
	sth 10,0(9)
.LVL944:
.LBE3211:
.LBE3212:
.LBB3213:
.LBB3214:
	.loc 2 2224 0
	sth 10,0(9)
.LVL945:
.LBE3214:
.LBE3213:
	.loc 1 574 0
	lfs 13,_tempcolorelement@l(7)
	lis 7,.LC2@ha
	lfs 0,.LC2@l(7)
	addi 7,1,8
	fmuls 13,13,0
	fctiwz 13,13
	stfiwx 13,0,7
	addi 7,1,12
	lfs 13,4(8)
	lwz 5,8(1)
	fmuls 13,13,0
	rlwinm 5,5,0,0xff
	fctiwz 13,13
	stfiwx 13,0,7
	addi 7,1,16
	lfs 13,8(8)
	lwz 6,12(1)
	fmuls 13,13,0
	rlwinm 6,6,0,0xff
	fctiwz 13,13
	stfiwx 13,0,7
	lfs 13,12(8)
	addi 8,1,20
	lwz 7,16(1)
	fmuls 0,13,0
	rlwinm 7,7,0,0xff
	fctiwz 0,0
	stfiwx 0,0,8
	lwz 8,20(1)
.LBB3215:
.LBB3216:
	.loc 2 2229 0
	stb 5,0(9)
.LBE3216:
.LBE3215:
	.loc 1 574 0
	rlwinm 8,8,0,0xff
.LVL946:
.LBB3218:
.LBB3217:
	.loc 2 2230 0
	stb 6,0(9)
	.loc 2 2231 0
	stb 7,0(9)
	.loc 2 2232 0
	stb 8,0(9)
.LVL947:
.LBE3217:
.LBE3218:
.LBB3219:
.LBB3220:
	.loc 2 2331 0
	sth 10,0(9)
.LVL948:
.LBE3220:
.LBE3219:
.LBB3221:
.LBB3222:
	sth 10,0(9)
.LVL949:
.LBE3222:
.LBE3221:
.LBB3223:
.LBB3224:
	sth 10,0(9)
.LVL950:
.LBE3224:
.LBE3223:
.LBB3225:
.LBB3226:
	sth 10,0(9)
.LVL951:
.LBE3226:
.LBE3225:
.LBB3227:
.LBB3228:
	sth 10,0(9)
.LBE3228:
.LBE3227:
	.loc 1 574 0
	addi 1,1,24
	.cfi_def_cfa_offset 0
	blr
	.cfi_endproc
.LFE191:
	.size	UploadVertexPNT5_ElemGLuint, .-UploadVertexPNT5_ElemGLuint
	.align 2
	.type	UploadVertexPNT6_ElemGLuint, @function
UploadVertexPNT6_ElemGLuint:
.LFB192:
	.loc 1 574 0
	.cfi_startproc
.LVL952:
	lis 9,.LANCHOR0@ha
	stwu 1,-24(1)
	.cfi_def_cfa_offset 24
.LVL953:
	.loc 1 574 0
	lwz 9,.LANCHOR0@l(9)
	slwi 3,3,2
.LVL954:
	lis 7,_tempcolorelement@ha
	lwzx 10,9,3
.LBB3229:
.LBB3230:
	.loc 2 2193 0
	lis 9,wgPipe@ha
	lwz 9,wgPipe@l(9)
.LBE3230:
.LBE3229:
	.loc 1 574 0
	la 8,_tempcolorelement@l(7)
	rlwinm 10,10,0,0xffff
.LVL955:
.LBB3232:
.LBB3231:
	.loc 2 2193 0
	sth 10,0(9)
.LVL956:
.LBE3231:
.LBE3232:
.LBB3233:
.LBB3234:
	.loc 2 2224 0
	sth 10,0(9)
.LVL957:
.LBE3234:
.LBE3233:
	.loc 1 574 0
	lfs 13,_tempcolorelement@l(7)
	lis 7,.LC2@ha
	lfs 0,.LC2@l(7)
	addi 7,1,8
	fmuls 13,13,0
	fctiwz 13,13
	stfiwx 13,0,7
	addi 7,1,12
	lfs 13,4(8)
	lwz 5,8(1)
	fmuls 13,13,0
	rlwinm 5,5,0,0xff
	fctiwz 13,13
	stfiwx 13,0,7
	addi 7,1,16
	lfs 13,8(8)
	lwz 6,12(1)
	fmuls 13,13,0
	rlwinm 6,6,0,0xff
	fctiwz 13,13
	stfiwx 13,0,7
	lfs 13,12(8)
	addi 8,1,20
	lwz 7,16(1)
	fmuls 0,13,0
	rlwinm 7,7,0,0xff
	fctiwz 0,0
	stfiwx 0,0,8
	lwz 8,20(1)
.LBB3235:
.LBB3236:
	.loc 2 2229 0
	stb 5,0(9)
.LBE3236:
.LBE3235:
	.loc 1 574 0
	rlwinm 8,8,0,0xff
.LVL958:
.LBB3238:
.LBB3237:
	.loc 2 2230 0
	stb 6,0(9)
	.loc 2 2231 0
	stb 7,0(9)
	.loc 2 2232 0
	stb 8,0(9)
.LVL959:
.LBE3237:
.LBE3238:
.LBB3239:
.LBB3240:
	.loc 2 2331 0
	sth 10,0(9)
.LVL960:
.LBE3240:
.LBE3239:
.LBB3241:
.LBB3242:
	sth 10,0(9)
.LVL961:
.LBE3242:
.LBE3241:
.LBB3243:
.LBB3244:
	sth 10,0(9)
.LVL962:
.LBE3244:
.LBE3243:
.LBB3245:
.LBB3246:
	sth 10,0(9)
.LVL963:
.LBE3246:
.LBE3245:
.LBB3247:
.LBB3248:
	sth 10,0(9)
.LVL964:
.LBE3248:
.LBE3247:
.LBB3249:
.LBB3250:
	sth 10,0(9)
.LBE3250:
.LBE3249:
	.loc 1 574 0
	addi 1,1,24
	.cfi_def_cfa_offset 0
	blr
	.cfi_endproc
.LFE192:
	.size	UploadVertexPNT6_ElemGLuint, .-UploadVertexPNT6_ElemGLuint
	.align 2
	.type	UploadVertexPNT7_ElemGLuint, @function
UploadVertexPNT7_ElemGLuint:
.LFB193:
	.loc 1 574 0
	.cfi_startproc
.LVL965:
	lis 9,.LANCHOR0@ha
	stwu 1,-24(1)
	.cfi_def_cfa_offset 24
.LVL966:
	.loc 1 574 0
	lwz 9,.LANCHOR0@l(9)
	slwi 3,3,2
.LVL967:
	lis 7,_tempcolorelement@ha
	lwzx 10,9,3
.LBB3251:
.LBB3252:
	.loc 2 2193 0
	lis 9,wgPipe@ha
	lwz 9,wgPipe@l(9)
.LBE3252:
.LBE3251:
	.loc 1 574 0
	la 8,_tempcolorelement@l(7)
	rlwinm 10,10,0,0xffff
.LVL968:
.LBB3254:
.LBB3253:
	.loc 2 2193 0
	sth 10,0(9)
.LVL969:
.LBE3253:
.LBE3254:
.LBB3255:
.LBB3256:
	.loc 2 2224 0
	sth 10,0(9)
.LVL970:
.LBE3256:
.LBE3255:
	.loc 1 574 0
	lfs 13,_tempcolorelement@l(7)
	lis 7,.LC2@ha
	lfs 0,.LC2@l(7)
	addi 7,1,8
	fmuls 13,13,0
	fctiwz 13,13
	stfiwx 13,0,7
	addi 7,1,12
	lfs 13,4(8)
	lwz 5,8(1)
	fmuls 13,13,0
	rlwinm 5,5,0,0xff
	fctiwz 13,13
	stfiwx 13,0,7
	addi 7,1,16
	lfs 13,8(8)
	lwz 6,12(1)
	fmuls 13,13,0
	rlwinm 6,6,0,0xff
	fctiwz 13,13
	stfiwx 13,0,7
	lfs 13,12(8)
	addi 8,1,20
	lwz 7,16(1)
	fmuls 0,13,0
	rlwinm 7,7,0,0xff
	fctiwz 0,0
	stfiwx 0,0,8
	lwz 8,20(1)
.LBB3257:
.LBB3258:
	.loc 2 2229 0
	stb 5,0(9)
.LBE3258:
.LBE3257:
	.loc 1 574 0
	rlwinm 8,8,0,0xff
.LVL971:
.LBB3260:
.LBB3259:
	.loc 2 2230 0
	stb 6,0(9)
	.loc 2 2231 0
	stb 7,0(9)
	.loc 2 2232 0
	stb 8,0(9)
.LVL972:
.LBE3259:
.LBE3260:
.LBB3261:
.LBB3262:
	.loc 2 2331 0
	sth 10,0(9)
.LVL973:
.LBE3262:
.LBE3261:
.LBB3263:
.LBB3264:
	sth 10,0(9)
.LVL974:
.LBE3264:
.LBE3263:
.LBB3265:
.LBB3266:
	sth 10,0(9)
.LVL975:
.LBE3266:
.LBE3265:
.LBB3267:
.LBB3268:
	sth 10,0(9)
.LVL976:
.LBE3268:
.LBE3267:
.LBB3269:
.LBB3270:
	sth 10,0(9)
.LVL977:
.LBE3270:
.LBE3269:
.LBB3271:
.LBB3272:
	sth 10,0(9)
.LVL978:
.LBE3272:
.LBE3271:
.LBB3273:
.LBB3274:
	sth 10,0(9)
.LBE3274:
.LBE3273:
	.loc 1 574 0
	addi 1,1,24
	.cfi_def_cfa_offset 0
	blr
	.cfi_endproc
.LFE193:
	.size	UploadVertexPNT7_ElemGLuint, .-UploadVertexPNT7_ElemGLuint
	.align 2
	.type	UploadVertexPCT0_ElemGLuint, @function
UploadVertexPCT0_ElemGLuint:
.LFB194:
	.loc 1 574 0
	.cfi_startproc
.LVL979:
	.loc 1 574 0
	lis 9,.LANCHOR0@ha
	slwi 3,3,2
.LVL980:
	lwz 9,.LANCHOR0@l(9)
	lwzx 10,9,3
.LBB3275:
.LBB3276:
	.loc 2 2193 0
	lis 9,wgPipe@ha
	lwz 9,wgPipe@l(9)
.LBE3276:
.LBE3275:
	.loc 1 574 0
	rlwinm 10,10,0,0xffff
.LVL981:
.LBB3278:
.LBB3277:
	.loc 2 2193 0
	sth 10,0(9)
.LVL982:
.LBE3277:
.LBE3278:
.LBB3279:
.LBB3280:
	.loc 2 2266 0
	sth 10,0(9)
	blr
.LBE3280:
.LBE3279:
	.cfi_endproc
.LFE194:
	.size	UploadVertexPCT0_ElemGLuint, .-UploadVertexPCT0_ElemGLuint
	.align 2
	.type	UploadVertexPCT1_ElemGLuint, @function
UploadVertexPCT1_ElemGLuint:
.LFB195:
	.loc 1 574 0
	.cfi_startproc
.LVL983:
	.loc 1 574 0
	lis 9,.LANCHOR0@ha
	slwi 3,3,2
.LVL984:
	lwz 9,.LANCHOR0@l(9)
	lwzx 10,9,3
.LBB3281:
.LBB3282:
	.loc 2 2193 0
	lis 9,wgPipe@ha
	lwz 9,wgPipe@l(9)
.LBE3282:
.LBE3281:
	.loc 1 574 0
	rlwinm 10,10,0,0xffff
.LVL985:
.LBB3284:
.LBB3283:
	.loc 2 2193 0
	sth 10,0(9)
.LVL986:
.LBE3283:
.LBE3284:
.LBB3285:
.LBB3286:
	.loc 2 2266 0
	sth 10,0(9)
.LVL987:
.LBE3286:
.LBE3285:
.LBB3287:
.LBB3288:
	.loc 2 2331 0
	sth 10,0(9)
	blr
.LBE3288:
.LBE3287:
	.cfi_endproc
.LFE195:
	.size	UploadVertexPCT1_ElemGLuint, .-UploadVertexPCT1_ElemGLuint
	.align 2
	.type	UploadVertexPCT2_ElemGLuint, @function
UploadVertexPCT2_ElemGLuint:
.LFB196:
	.loc 1 574 0
	.cfi_startproc
.LVL988:
	.loc 1 574 0
	lis 9,.LANCHOR0@ha
	slwi 3,3,2
.LVL989:
	lwz 9,.LANCHOR0@l(9)
	lwzx 10,9,3
.LBB3289:
.LBB3290:
	.loc 2 2193 0
	lis 9,wgPipe@ha
	lwz 9,wgPipe@l(9)
.LBE3290:
.LBE3289:
	.loc 1 574 0
	rlwinm 10,10,0,0xffff
.LVL990:
.LBB3292:
.LBB3291:
	.loc 2 2193 0
	sth 10,0(9)
.LVL991:
.LBE3291:
.LBE3292:
.LBB3293:
.LBB3294:
	.loc 2 2266 0
	sth 10,0(9)
.LVL992:
.LBE3294:
.LBE3293:
.LBB3295:
.LBB3296:
	.loc 2 2331 0
	sth 10,0(9)
.LVL993:
.LBE3296:
.LBE3295:
.LBB3297:
.LBB3298:
	sth 10,0(9)
	blr
.LBE3298:
.LBE3297:
	.cfi_endproc
.LFE196:
	.size	UploadVertexPCT2_ElemGLuint, .-UploadVertexPCT2_ElemGLuint
	.align 2
	.type	UploadVertexPCT3_ElemGLuint, @function
UploadVertexPCT3_ElemGLuint:
.LFB197:
	.loc 1 574 0
	.cfi_startproc
.LVL994:
	.loc 1 574 0
	lis 9,.LANCHOR0@ha
	slwi 3,3,2
.LVL995:
	lwz 9,.LANCHOR0@l(9)
	lwzx 10,9,3
.LBB3299:
.LBB3300:
	.loc 2 2193 0
	lis 9,wgPipe@ha
	lwz 9,wgPipe@l(9)
.LBE3300:
.LBE3299:
	.loc 1 574 0
	rlwinm 10,10,0,0xffff
.LVL996:
.LBB3302:
.LBB3301:
	.loc 2 2193 0
	sth 10,0(9)
.LVL997:
.LBE3301:
.LBE3302:
.LBB3303:
.LBB3304:
	.loc 2 2266 0
	sth 10,0(9)
.LVL998:
.LBE3304:
.LBE3303:
.LBB3305:
.LBB3306:
	.loc 2 2331 0
	sth 10,0(9)
.LVL999:
.LBE3306:
.LBE3305:
.LBB3307:
.LBB3308:
	sth 10,0(9)
.LVL1000:
.LBE3308:
.LBE3307:
.LBB3309:
.LBB3310:
	sth 10,0(9)
	blr
.LBE3310:
.LBE3309:
	.cfi_endproc
.LFE197:
	.size	UploadVertexPCT3_ElemGLuint, .-UploadVertexPCT3_ElemGLuint
	.align 2
	.type	UploadVertexPCT4_ElemGLuint, @function
UploadVertexPCT4_ElemGLuint:
.LFB198:
	.loc 1 574 0
	.cfi_startproc
.LVL1001:
	.loc 1 574 0
	lis 9,.LANCHOR0@ha
	slwi 3,3,2
.LVL1002:
	lwz 9,.LANCHOR0@l(9)
	lwzx 10,9,3
.LBB3311:
.LBB3312:
	.loc 2 2193 0
	lis 9,wgPipe@ha
	lwz 9,wgPipe@l(9)
.LBE3312:
.LBE3311:
	.loc 1 574 0
	rlwinm 10,10,0,0xffff
.LVL1003:
.LBB3314:
.LBB3313:
	.loc 2 2193 0
	sth 10,0(9)
.LVL1004:
.LBE3313:
.LBE3314:
.LBB3315:
.LBB3316:
	.loc 2 2266 0
	sth 10,0(9)
.LVL1005:
.LBE3316:
.LBE3315:
.LBB3317:
.LBB3318:
	.loc 2 2331 0
	sth 10,0(9)
.LVL1006:
.LBE3318:
.LBE3317:
.LBB3319:
.LBB3320:
	sth 10,0(9)
.LVL1007:
.LBE3320:
.LBE3319:
.LBB3321:
.LBB3322:
	sth 10,0(9)
.LVL1008:
.LBE3322:
.LBE3321:
.LBB3323:
.LBB3324:
	sth 10,0(9)
	blr
.LBE3324:
.LBE3323:
	.cfi_endproc
.LFE198:
	.size	UploadVertexPCT4_ElemGLuint, .-UploadVertexPCT4_ElemGLuint
	.align 2
	.type	UploadVertexPCT5_ElemGLuint, @function
UploadVertexPCT5_ElemGLuint:
.LFB199:
	.loc 1 574 0
	.cfi_startproc
.LVL1009:
	.loc 1 574 0
	lis 9,.LANCHOR0@ha
	slwi 3,3,2
.LVL1010:
	lwz 9,.LANCHOR0@l(9)
	lwzx 10,9,3
.LBB3325:
.LBB3326:
	.loc 2 2193 0
	lis 9,wgPipe@ha
	lwz 9,wgPipe@l(9)
.LBE3326:
.LBE3325:
	.loc 1 574 0
	rlwinm 10,10,0,0xffff
.LVL1011:
.LBB3328:
.LBB3327:
	.loc 2 2193 0
	sth 10,0(9)
.LVL1012:
.LBE3327:
.LBE3328:
.LBB3329:
.LBB3330:
	.loc 2 2266 0
	sth 10,0(9)
.LVL1013:
.LBE3330:
.LBE3329:
.LBB3331:
.LBB3332:
	.loc 2 2331 0
	sth 10,0(9)
.LVL1014:
.LBE3332:
.LBE3331:
.LBB3333:
.LBB3334:
	sth 10,0(9)
.LVL1015:
.LBE3334:
.LBE3333:
.LBB3335:
.LBB3336:
	sth 10,0(9)
.LVL1016:
.LBE3336:
.LBE3335:
.LBB3337:
.LBB3338:
	sth 10,0(9)
.LVL1017:
.LBE3338:
.LBE3337:
.LBB3339:
.LBB3340:
	sth 10,0(9)
	blr
.LBE3340:
.LBE3339:
	.cfi_endproc
.LFE199:
	.size	UploadVertexPCT5_ElemGLuint, .-UploadVertexPCT5_ElemGLuint
	.align 2
	.type	UploadVertexPCT6_ElemGLuint, @function
UploadVertexPCT6_ElemGLuint:
.LFB200:
	.loc 1 574 0
	.cfi_startproc
.LVL1018:
	.loc 1 574 0
	lis 9,.LANCHOR0@ha
	slwi 3,3,2
.LVL1019:
	lwz 9,.LANCHOR0@l(9)
	lwzx 10,9,3
.LBB3341:
.LBB3342:
	.loc 2 2193 0
	lis 9,wgPipe@ha
	lwz 9,wgPipe@l(9)
.LBE3342:
.LBE3341:
	.loc 1 574 0
	rlwinm 10,10,0,0xffff
.LVL1020:
.LBB3344:
.LBB3343:
	.loc 2 2193 0
	sth 10,0(9)
.LVL1021:
.LBE3343:
.LBE3344:
.LBB3345:
.LBB3346:
	.loc 2 2266 0
	sth 10,0(9)
.LVL1022:
.LBE3346:
.LBE3345:
.LBB3347:
.LBB3348:
	.loc 2 2331 0
	sth 10,0(9)
.LVL1023:
.LBE3348:
.LBE3347:
.LBB3349:
.LBB3350:
	sth 10,0(9)
.LVL1024:
.LBE3350:
.LBE3349:
.LBB3351:
.LBB3352:
	sth 10,0(9)
.LVL1025:
.LBE3352:
.LBE3351:
.LBB3353:
.LBB3354:
	sth 10,0(9)
.LVL1026:
.LBE3354:
.LBE3353:
.LBB3355:
.LBB3356:
	sth 10,0(9)
.LVL1027:
.LBE3356:
.LBE3355:
.LBB3357:
.LBB3358:
	sth 10,0(9)
	blr
.LBE3358:
.LBE3357:
	.cfi_endproc
.LFE200:
	.size	UploadVertexPCT6_ElemGLuint, .-UploadVertexPCT6_ElemGLuint
	.align 2
	.type	UploadVertexPCT7_ElemGLuint, @function
UploadVertexPCT7_ElemGLuint:
.LFB201:
	.loc 1 574 0
	.cfi_startproc
.LVL1028:
	.loc 1 574 0
	lis 9,.LANCHOR0@ha
	slwi 3,3,2
.LVL1029:
	lwz 9,.LANCHOR0@l(9)
	lwzx 10,9,3
.LBB3359:
.LBB3360:
	.loc 2 2193 0
	lis 9,wgPipe@ha
	lwz 9,wgPipe@l(9)
.LBE3360:
.LBE3359:
	.loc 1 574 0
	rlwinm 10,10,0,0xffff
.LVL1030:
.LBB3362:
.LBB3361:
	.loc 2 2193 0
	sth 10,0(9)
.LVL1031:
.LBE3361:
.LBE3362:
.LBB3363:
.LBB3364:
	.loc 2 2266 0
	sth 10,0(9)
.LVL1032:
.LBE3364:
.LBE3363:
.LBB3365:
.LBB3366:
	.loc 2 2331 0
	sth 10,0(9)
.LVL1033:
.LBE3366:
.LBE3365:
.LBB3367:
.LBB3368:
	sth 10,0(9)
.LVL1034:
.LBE3368:
.LBE3367:
.LBB3369:
.LBB3370:
	sth 10,0(9)
.LVL1035:
.LBE3370:
.LBE3369:
.LBB3371:
.LBB3372:
	sth 10,0(9)
.LVL1036:
.LBE3372:
.LBE3371:
.LBB3373:
.LBB3374:
	sth 10,0(9)
.LVL1037:
.LBE3374:
.LBE3373:
.LBB3375:
.LBB3376:
	sth 10,0(9)
.LVL1038:
.LBE3376:
.LBE3375:
.LBB3377:
.LBB3378:
	sth 10,0(9)
	blr
.LBE3378:
.LBE3377:
	.cfi_endproc
.LFE201:
	.size	UploadVertexPCT7_ElemGLuint, .-UploadVertexPCT7_ElemGLuint
	.align 2
	.type	UploadVertexPNCT0_ElemGLuint, @function
UploadVertexPNCT0_ElemGLuint:
.LFB202:
	.loc 1 574 0
	.cfi_startproc
.LVL1039:
	.loc 1 574 0
	lis 9,.LANCHOR0@ha
	slwi 3,3,2
.LVL1040:
	lwz 9,.LANCHOR0@l(9)
	lwzx 10,9,3
.LBB3379:
.LBB3380:
	.loc 2 2193 0
	lis 9,wgPipe@ha
	lwz 9,wgPipe@l(9)
.LBE3380:
.LBE3379:
	.loc 1 574 0
	rlwinm 10,10,0,0xffff
.LVL1041:
.LBB3382:
.LBB3381:
	.loc 2 2193 0
	sth 10,0(9)
.LVL1042:
.LBE3381:
.LBE3382:
.LBB3383:
.LBB3384:
	.loc 2 2224 0
	sth 10,0(9)
.LVL1043:
.LBE3384:
.LBE3383:
.LBB3385:
.LBB3386:
	.loc 2 2266 0
	sth 10,0(9)
	blr
.LBE3386:
.LBE3385:
	.cfi_endproc
.LFE202:
	.size	UploadVertexPNCT0_ElemGLuint, .-UploadVertexPNCT0_ElemGLuint
	.align 2
	.type	UploadVertexPNCT1_ElemGLuint, @function
UploadVertexPNCT1_ElemGLuint:
.LFB203:
	.loc 1 574 0
	.cfi_startproc
.LVL1044:
	.loc 1 574 0
	lis 9,.LANCHOR0@ha
	slwi 3,3,2
.LVL1045:
	lwz 9,.LANCHOR0@l(9)
	lwzx 10,9,3
.LBB3387:
.LBB3388:
	.loc 2 2193 0
	lis 9,wgPipe@ha
	lwz 9,wgPipe@l(9)
.LBE3388:
.LBE3387:
	.loc 1 574 0
	rlwinm 10,10,0,0xffff
.LVL1046:
.LBB3390:
.LBB3389:
	.loc 2 2193 0
	sth 10,0(9)
.LVL1047:
.LBE3389:
.LBE3390:
.LBB3391:
.LBB3392:
	.loc 2 2224 0
	sth 10,0(9)
.LVL1048:
.LBE3392:
.LBE3391:
.LBB3393:
.LBB3394:
	.loc 2 2266 0
	sth 10,0(9)
.LVL1049:
.LBE3394:
.LBE3393:
.LBB3395:
.LBB3396:
	.loc 2 2331 0
	sth 10,0(9)
	blr
.LBE3396:
.LBE3395:
	.cfi_endproc
.LFE203:
	.size	UploadVertexPNCT1_ElemGLuint, .-UploadVertexPNCT1_ElemGLuint
	.align 2
	.type	UploadVertexPNCT2_ElemGLuint, @function
UploadVertexPNCT2_ElemGLuint:
.LFB204:
	.loc 1 574 0
	.cfi_startproc
.LVL1050:
	.loc 1 574 0
	lis 9,.LANCHOR0@ha
	slwi 3,3,2
.LVL1051:
	lwz 9,.LANCHOR0@l(9)
	lwzx 10,9,3
.LBB3397:
.LBB3398:
	.loc 2 2193 0
	lis 9,wgPipe@ha
	lwz 9,wgPipe@l(9)
.LBE3398:
.LBE3397:
	.loc 1 574 0
	rlwinm 10,10,0,0xffff
.LVL1052:
.LBB3400:
.LBB3399:
	.loc 2 2193 0
	sth 10,0(9)
.LVL1053:
.LBE3399:
.LBE3400:
.LBB3401:
.LBB3402:
	.loc 2 2224 0
	sth 10,0(9)
.LVL1054:
.LBE3402:
.LBE3401:
.LBB3403:
.LBB3404:
	.loc 2 2266 0
	sth 10,0(9)
.LVL1055:
.LBE3404:
.LBE3403:
.LBB3405:
.LBB3406:
	.loc 2 2331 0
	sth 10,0(9)
.LVL1056:
.LBE3406:
.LBE3405:
.LBB3407:
.LBB3408:
	sth 10,0(9)
	blr
.LBE3408:
.LBE3407:
	.cfi_endproc
.LFE204:
	.size	UploadVertexPNCT2_ElemGLuint, .-UploadVertexPNCT2_ElemGLuint
	.align 2
	.type	UploadVertexPNCT3_ElemGLuint, @function
UploadVertexPNCT3_ElemGLuint:
.LFB205:
	.loc 1 574 0
	.cfi_startproc
.LVL1057:
	.loc 1 574 0
	lis 9,.LANCHOR0@ha
	slwi 3,3,2
.LVL1058:
	lwz 9,.LANCHOR0@l(9)
	lwzx 10,9,3
.LBB3409:
.LBB3410:
	.loc 2 2193 0
	lis 9,wgPipe@ha
	lwz 9,wgPipe@l(9)
.LBE3410:
.LBE3409:
	.loc 1 574 0
	rlwinm 10,10,0,0xffff
.LVL1059:
.LBB3412:
.LBB3411:
	.loc 2 2193 0
	sth 10,0(9)
.LVL1060:
.LBE3411:
.LBE3412:
.LBB3413:
.LBB3414:
	.loc 2 2224 0
	sth 10,0(9)
.LVL1061:
.LBE3414:
.LBE3413:
.LBB3415:
.LBB3416:
	.loc 2 2266 0
	sth 10,0(9)
.LVL1062:
.LBE3416:
.LBE3415:
.LBB3417:
.LBB3418:
	.loc 2 2331 0
	sth 10,0(9)
.LVL1063:
.LBE3418:
.LBE3417:
.LBB3419:
.LBB3420:
	sth 10,0(9)
.LVL1064:
.LBE3420:
.LBE3419:
.LBB3421:
.LBB3422:
	sth 10,0(9)
	blr
.LBE3422:
.LBE3421:
	.cfi_endproc
.LFE205:
	.size	UploadVertexPNCT3_ElemGLuint, .-UploadVertexPNCT3_ElemGLuint
	.align 2
	.type	UploadVertexPNCT4_ElemGLuint, @function
UploadVertexPNCT4_ElemGLuint:
.LFB206:
	.loc 1 574 0
	.cfi_startproc
.LVL1065:
	.loc 1 574 0
	lis 9,.LANCHOR0@ha
	slwi 3,3,2
.LVL1066:
	lwz 9,.LANCHOR0@l(9)
	lwzx 10,9,3
.LBB3423:
.LBB3424:
	.loc 2 2193 0
	lis 9,wgPipe@ha
	lwz 9,wgPipe@l(9)
.LBE3424:
.LBE3423:
	.loc 1 574 0
	rlwinm 10,10,0,0xffff
.LVL1067:
.LBB3426:
.LBB3425:
	.loc 2 2193 0
	sth 10,0(9)
.LVL1068:
.LBE3425:
.LBE3426:
.LBB3427:
.LBB3428:
	.loc 2 2224 0
	sth 10,0(9)
.LVL1069:
.LBE3428:
.LBE3427:
.LBB3429:
.LBB3430:
	.loc 2 2266 0
	sth 10,0(9)
.LVL1070:
.LBE3430:
.LBE3429:
.LBB3431:
.LBB3432:
	.loc 2 2331 0
	sth 10,0(9)
.LVL1071:
.LBE3432:
.LBE3431:
.LBB3433:
.LBB3434:
	sth 10,0(9)
.LVL1072:
.LBE3434:
.LBE3433:
.LBB3435:
.LBB3436:
	sth 10,0(9)
.LVL1073:
.LBE3436:
.LBE3435:
.LBB3437:
.LBB3438:
	sth 10,0(9)
	blr
.LBE3438:
.LBE3437:
	.cfi_endproc
.LFE206:
	.size	UploadVertexPNCT4_ElemGLuint, .-UploadVertexPNCT4_ElemGLuint
	.align 2
	.type	UploadVertexPNCT5_ElemGLuint, @function
UploadVertexPNCT5_ElemGLuint:
.LFB207:
	.loc 1 574 0
	.cfi_startproc
.LVL1074:
	.loc 1 574 0
	lis 9,.LANCHOR0@ha
	slwi 3,3,2
.LVL1075:
	lwz 9,.LANCHOR0@l(9)
	lwzx 10,9,3
.LBB3439:
.LBB3440:
	.loc 2 2193 0
	lis 9,wgPipe@ha
	lwz 9,wgPipe@l(9)
.LBE3440:
.LBE3439:
	.loc 1 574 0
	rlwinm 10,10,0,0xffff
.LVL1076:
.LBB3442:
.LBB3441:
	.loc 2 2193 0
	sth 10,0(9)
.LVL1077:
.LBE3441:
.LBE3442:
.LBB3443:
.LBB3444:
	.loc 2 2224 0
	sth 10,0(9)
.LVL1078:
.LBE3444:
.LBE3443:
.LBB3445:
.LBB3446:
	.loc 2 2266 0
	sth 10,0(9)
.LVL1079:
.LBE3446:
.LBE3445:
.LBB3447:
.LBB3448:
	.loc 2 2331 0
	sth 10,0(9)
.LVL1080:
.LBE3448:
.LBE3447:
.LBB3449:
.LBB3450:
	sth 10,0(9)
.LVL1081:
.LBE3450:
.LBE3449:
.LBB3451:
.LBB3452:
	sth 10,0(9)
.LVL1082:
.LBE3452:
.LBE3451:
.LBB3453:
.LBB3454:
	sth 10,0(9)
.LVL1083:
.LBE3454:
.LBE3453:
.LBB3455:
.LBB3456:
	sth 10,0(9)
	blr
.LBE3456:
.LBE3455:
	.cfi_endproc
.LFE207:
	.size	UploadVertexPNCT5_ElemGLuint, .-UploadVertexPNCT5_ElemGLuint
	.align 2
	.type	UploadVertexPNCT6_ElemGLuint, @function
UploadVertexPNCT6_ElemGLuint:
.LFB208:
	.loc 1 574 0
	.cfi_startproc
.LVL1084:
	.loc 1 574 0
	lis 9,.LANCHOR0@ha
	slwi 3,3,2
.LVL1085:
	lwz 9,.LANCHOR0@l(9)
	lwzx 10,9,3
.LBB3457:
.LBB3458:
	.loc 2 2193 0
	lis 9,wgPipe@ha
	lwz 9,wgPipe@l(9)
.LBE3458:
.LBE3457:
	.loc 1 574 0
	rlwinm 10,10,0,0xffff
.LVL1086:
.LBB3460:
.LBB3459:
	.loc 2 2193 0
	sth 10,0(9)
.LVL1087:
.LBE3459:
.LBE3460:
.LBB3461:
.LBB3462:
	.loc 2 2224 0
	sth 10,0(9)
.LVL1088:
.LBE3462:
.LBE3461:
.LBB3463:
.LBB3464:
	.loc 2 2266 0
	sth 10,0(9)
.LVL1089:
.LBE3464:
.LBE3463:
.LBB3465:
.LBB3466:
	.loc 2 2331 0
	sth 10,0(9)
.LVL1090:
.LBE3466:
.LBE3465:
.LBB3467:
.LBB3468:
	sth 10,0(9)
.LVL1091:
.LBE3468:
.LBE3467:
.LBB3469:
.LBB3470:
	sth 10,0(9)
.LVL1092:
.LBE3470:
.LBE3469:
.LBB3471:
.LBB3472:
	sth 10,0(9)
.LVL1093:
.LBE3472:
.LBE3471:
.LBB3473:
.LBB3474:
	sth 10,0(9)
.LVL1094:
.LBE3474:
.LBE3473:
.LBB3475:
.LBB3476:
	sth 10,0(9)
	blr
.LBE3476:
.LBE3475:
	.cfi_endproc
.LFE208:
	.size	UploadVertexPNCT6_ElemGLuint, .-UploadVertexPNCT6_ElemGLuint
	.align 2
	.type	UploadVertexPNCT7_ElemGLuint, @function
UploadVertexPNCT7_ElemGLuint:
.LFB209:
	.loc 1 574 0
	.cfi_startproc
.LVL1095:
	.loc 1 574 0
	lis 9,.LANCHOR0@ha
	slwi 3,3,2
.LVL1096:
	lwz 9,.LANCHOR0@l(9)
	lwzx 10,9,3
.LBB3477:
.LBB3478:
	.loc 2 2193 0
	lis 9,wgPipe@ha
	lwz 9,wgPipe@l(9)
.LBE3478:
.LBE3477:
	.loc 1 574 0
	rlwinm 10,10,0,0xffff
.LVL1097:
.LBB3480:
.LBB3479:
	.loc 2 2193 0
	sth 10,0(9)
.LVL1098:
.LBE3479:
.LBE3480:
.LBB3481:
.LBB3482:
	.loc 2 2224 0
	sth 10,0(9)
.LVL1099:
.LBE3482:
.LBE3481:
.LBB3483:
.LBB3484:
	.loc 2 2266 0
	sth 10,0(9)
.LVL1100:
.LBE3484:
.LBE3483:
.LBB3485:
.LBB3486:
	.loc 2 2331 0
	sth 10,0(9)
.LVL1101:
.LBE3486:
.LBE3485:
.LBB3487:
.LBB3488:
	sth 10,0(9)
.LVL1102:
.LBE3488:
.LBE3487:
.LBB3489:
.LBB3490:
	sth 10,0(9)
.LVL1103:
.LBE3490:
.LBE3489:
.LBB3491:
.LBB3492:
	sth 10,0(9)
.LVL1104:
.LBE3492:
.LBE3491:
.LBB3493:
.LBB3494:
	sth 10,0(9)
.LVL1105:
.LBE3494:
.LBE3493:
.LBB3495:
.LBB3496:
	sth 10,0(9)
.LVL1106:
.LBE3496:
.LBE3495:
.LBB3497:
.LBB3498:
	sth 10,0(9)
	blr
.LBE3498:
.LBE3497:
	.cfi_endproc
.LFE209:
	.size	UploadVertexPNCT7_ElemGLuint, .-UploadVertexPNCT7_ElemGLuint
	.section	".text"
	.align 2
	.type	GX_TestInitSpecularDir, @function
GX_TestInitSpecularDir:
.LFB211:
	.loc 1 635 0
	.cfi_startproc
.LVL1107:
	stwu 1,-48(1)
	.cfi_def_cfa_offset 48
	mflr 0
	.loc 1 641 0
	lis 9,.LC3@ha
	.loc 1 635 0
	addi 11,1,48
	stw 0,52(1)
	.cfi_offset 65, 4
	bl _savefpr_28
	.cfi_offset 60, -32
	.cfi_offset 61, -24
	.cfi_offset 62, -16
	.cfi_offset 63, -8
	.loc 1 640 0
	fneg 30,2
	.loc 1 641 0
	lfs 28,.LC3@l(9)
	.loc 1 639 0
	fneg 31,1
.LVL1108:
	.loc 1 635 0
	stw 31,12(1)
	.cfi_offset 31, -36
	.loc 1 641 0
	fsubs 29,28,3
.LVL1109:
	.loc 1 635 0
	mr 31,3
	.loc 1 642 0
	fmuls 1,30,30
.LVL1110:
	fmadds 1,31,31,1
	fmadds 1,29,29,1
	bl sqrtf
.LVL1111:
	.loc 1 656 0
	addi 11,1,48
	.loc 1 642 0
	fdivs 1,28,1
.LVL1112:
	.loc 1 643 0
	fmuls 31,31,1
.LVL1113:
	.loc 1 644 0
	fmuls 30,30,1
.LVL1114:
	.loc 1 645 0
	fmuls 29,29,1
.LVL1115:
	.loc 1 653 0
	stfs 31,52(31)
	.loc 1 654 0
	stfs 30,56(31)
	.loc 1 655 0
	stfs 29,60(31)
	.loc 1 656 0
	lwz 31,12(1)
.LVL1116:
	b _restfpr_28_x
	.cfi_restore 63
	.cfi_restore 62
	.cfi_restore 61
	.cfi_restore 60
	.cfi_restore 65
	.cfi_restore 31
	.cfi_endproc
.LFE211:
	.size	GX_TestInitSpecularDir, .-GX_TestInitSpecularDir
	.align 2
	.type	getFloat, @function
getFloat:
.LFB71:
	.loc 1 121 0
	.cfi_startproc
.LVL1117:
	.loc 1 122 0
	addi 4,4,-5120
.LVL1118:
	.loc 1 121 0
	stwu 1,-56(1)
	.cfi_def_cfa_offset 56
	.loc 1 122 0
	cmplwi 7,4,10
	bgt- 7,.L207
	lis 9,.L210@ha
	slwi 4,4,2
.LVL1119:
	la 9,.L210@l(9)
	lwzx 10,9,4
	add 9,10,9
	mtctr 9
	bctr
	.section	.rodata
	.align 2
	.align 2
.L210:
	.long .L209-.L210
	.long .L211-.L210
	.long .L212-.L210
	.long .L213-.L210
	.long .L214-.L210
	.long .L215-.L210
	.long .L216-.L210
	.long .L207-.L210
	.long .L207-.L210
	.long .L207-.L210
	.long .L217-.L210
	.section	".text"
.L211:
.LVL1120:
.LBB3516:
	.loc 1 128 0
	lwz 9,0(3)
	addi 10,9,1
	stw 10,0(3)
	lbz 9,0(9)
	stw 9,12(1)
	lis 9,0x4330
	stw 9,8(1)
	lis 9,.LC5@ha
	lfs 0,.LC5@l(9)
	lfd 13,8(1)
	b .L221
.LVL1121:
.L209:
.LBE3516:
.LBB3517:
.LBB3518:
.LBB3519:
	.loc 1 135 0
	lwz 9,0(3)
	addi 10,9,1
	stw 10,0(3)
	lbz 9,0(9)
	extsb 9,9
	xoris 9,9,0x8000
	stw 9,20(1)
	lis 9,0x4330
	stw 9,16(1)
	lis 9,.LC1@ha
	lfs 0,.LC1@l(9)
	lfd 13,16(1)
	b .L221
.LVL1122:
.L213:
.LBE3519:
.LBE3518:
.LBE3517:
.LBB3520:
	.loc 1 142 0
	lwz 9,0(3)
	addi 10,9,2
	stw 10,0(3)
	lhz 9,0(9)
	stw 9,28(1)
	lis 9,0x4330
	stw 9,24(1)
	lis 9,.LC5@ha
	lfs 0,.LC5@l(9)
	lfd 13,24(1)
	b .L221
.LVL1123:
.L212:
.LBE3520:
.LBB3521:
	.loc 1 149 0
	lwz 9,0(3)
	addi 10,9,2
	stw 10,0(3)
	lha 9,0(9)
	xoris 9,9,0x8000
	stw 9,36(1)
	lis 9,0x4330
	stw 9,32(1)
	lis 9,.LC1@ha
	lfs 0,.LC1@l(9)
	lfd 13,32(1)
	b .L221
.LVL1124:
.L215:
.LBE3521:
.LBB3522:
	.loc 1 156 0
	lwz 9,0(3)
	addi 10,9,4
	stw 10,0(3)
	lwz 9,0(9)
	stw 9,44(1)
	lis 9,0x4330
	stw 9,40(1)
	lis 9,.LC5@ha
	lfs 0,.LC5@l(9)
	lfd 13,40(1)
	b .L221
.LVL1125:
.L214:
.LBE3522:
.LBB3523:
	.loc 1 163 0
	lwz 9,0(3)
	addi 10,9,4
	stw 10,0(3)
	lwz 9,0(9)
	xoris 9,9,0x8000
	stw 9,52(1)
	lis 9,0x4330
	stw 9,48(1)
	lis 9,.LC1@ha
	lfs 0,.LC1@l(9)
	lfd 13,48(1)
.LVL1126:
.L221:
	fsub 0,13,0
	b .L219
.L216:
.LVL1127:
.LBE3523:
.LBB3524:
	.loc 1 170 0
	lwz 9,0(3)
	addi 10,9,4
	stw 10,0(3)
	lfs 0,0(9)
	b .L220
.LVL1128:
.L217:
.LBE3524:
.LBB3525:
	.loc 1 177 0
	lwz 9,0(3)
	addi 10,9,8
	stw 10,0(3)
	lfd 0,0(9)
.LVL1129:
.L219:
	frsp 0,0
.L220:
	stfs 0,0(5)
.L207:
.LBE3525:
	.loc 1 181 0
	addi 1,1,56
	.cfi_def_cfa_offset 0
	blr
	.cfi_endproc
.LFE71:
	.size	getFloat, .-getFloat
	.align 2
	.type	getVector, @function
getVector:
.LFB73:
	.loc 1 189 0
	.cfi_startproc
.LVL1130:
	mflr 0
	stwu 1,-40(1)
	.cfi_def_cfa_offset 40
	.cfi_register 65, 0
.LVL1131:
	stmw 29,28(1)
	.cfi_offset 29, -12
	.cfi_offset 30, -8
	.cfi_offset 31, -4
	.loc 1 190 0
	mr 30,1
	.loc 1 189 0
	stw 0,44(1)
	.cfi_offset 65, 4
	.loc 1 189 0
	mr 31,3
	mr 29,5
.LBB3526:
.LBB3527:
	.loc 1 185 0
	lbz 9,8(3)
	mullw 4,9,4
.LVL1132:
.LBB3528:
.LBB3529:
	.loc 1 94 0
	lwz 9,4(3)
	add 9,9,4
.LBE3529:
.LBE3528:
.LBE3527:
.LBE3526:
	.loc 1 192 0
	lwz 4,16(31)
	.loc 1 190 0
	stwu 9,8(30)
	.loc 1 192 0
	mr 3,30
.LVL1133:
	bl getFloat
.LVL1134:
	.loc 1 193 0
	lwz 4,16(31)
	mr 3,30
	addi 5,29,4
	bl getFloat
.LVL1135:
	.loc 1 194 0
	lwz 4,16(31)
	mr 3,30
	addi 5,29,8
	bl getFloat
.LVL1136:
	.loc 1 195 0
	addi 11,1,40
	b _restgpr_29_x
	.cfi_restore 31
	.cfi_restore 30
	.cfi_restore 29
	.cfi_restore 65
	.cfi_endproc
.LFE73:
	.size	getVector, .-getVector
	.align 2
	.type	getVertex, @function
getVertex:
.LFB74:
	.loc 1 199 0
	.cfi_startproc
.LVL1137:
	.loc 1 200 0
	lis 10,vert@ha
	.loc 1 199 0
	mflr 0
	.loc 1 200 0
	la 9,vert@l(10)
	lbz 10,vert@l(10)
	.loc 1 199 0
	stwu 1,-16(1)
	.cfi_def_cfa_offset 16
	.cfi_register 65, 0
	.loc 1 200 0
	cmpwi 7,10,0
	.loc 1 199 0
	stw 0,20(1)
	stw 31,12(1)
	.cfi_offset 65, 4
	.cfi_offset 31, -4
	.loc 1 200 0
	beq- 7,.L227
	.loc 1 202 0
	lwz 10,16(9)
	mr 4,3
	mr 3,9
.LVL1138:
	cmpwi 7,10,5126
	bne- 7,.L226
	.loc 1 202 0 is_stmt 0 discriminator 1
	lwz 10,12(9)
	cmpwi 7,10,3
	bne+ 7,.L226
.LVL1139:
.LBB3536:
.LBB3537:
.LBB3538:
	.loc 1 185 0 is_stmt 1
	lbz 3,8(9)
	mullw 4,3,4
.LVL1140:
.LBB3539:
.LBB3540:
	.loc 1 94 0
	lwz 3,4(9)
	add 3,3,4
	b .L225
.LVL1141:
.L226:
.LBE3540:
.LBE3539:
.LBE3538:
.LBE3537:
.LBE3536:
	.loc 1 208 0
	lis 31,.LANCHOR0@ha
	la 31,.LANCHOR0@l(31)
	addi 31,31,4
	mr 5,31
	bl getVector
.LVL1142:
	.loc 1 209 0
	mr 3,31
	b .L225
.LVL1143:
.L227:
	.loc 1 214 0
	li 3,0
.LVL1144:
.L225:
	.loc 1 216 0
	addi 11,1,16
	b _restgpr_31_x
	.cfi_restore 31
	.cfi_restore 65
	.cfi_endproc
.LFE74:
	.size	getVertex, .-getVertex
	.align 2
	.type	getNormal, @function
getNormal:
.LFB75:
	.loc 1 219 0
	.cfi_startproc
	.loc 1 220 0
	lis 10,norm@ha
	la 9,norm@l(10)
	lbz 10,norm@l(10)
	cmpwi 7,10,0
	beq- 7,.L232
	.loc 1 222 0
	lwz 10,16(9)
	mr 4,3
	cmpwi 7,10,5126
	bne+ 7,.L231
.LBB3547:
.LBB3548:
.LBB3549:
	.loc 1 185 0
	lbz 3,8(9)
	mullw 4,3,4
.LBB3550:
.LBB3551:
	.loc 1 94 0
	lwz 3,4(9)
	add 3,3,4
.LBE3551:
.LBE3550:
.LBE3549:
.LBE3548:
.LBE3547:
	.loc 1 236 0
	blr
.L231:
	.loc 1 219 0
	stwu 1,-16(1)
	.cfi_def_cfa_offset 16
	mflr 0
	.loc 1 228 0
	mr 3,9
	.loc 1 219 0
	stw 31,12(1)
	.cfi_register 65, 0
	.cfi_offset 31, -4
	.loc 1 228 0
	lis 31,.LANCHOR0@ha
	la 31,.LANCHOR0@l(31)
	.loc 1 219 0
	stw 0,20(1)
	.cfi_offset 65, 4
	.loc 1 228 0
	addi 31,31,16
	mr 5,31
	bl getVector
	.loc 1 236 0
	addi 11,1,16
	.loc 1 229 0
	mr 3,31
	.loc 1 236 0
	b _restgpr_31_x
	.cfi_restore 31
	.cfi_restore 65
.L232:
	.cfi_def_cfa_offset 0
	.loc 1 234 0
	li 3,0
	blr
	.cfi_endproc
.LFE75:
	.size	getNormal, .-getNormal
	.align 2
	.type	getColor, @function
getColor:
.LFB77:
	.loc 1 255 0
	.cfi_startproc
	.loc 1 256 0
	lis 10,color@ha
	la 9,color@l(10)
	lbz 10,color@l(10)
	cmpwi 7,10,0
	beq- 7,.L241
	.loc 1 255 0
	mflr 0
	stwu 1,-48(1)
	.cfi_def_cfa_offset 48
	.cfi_register 65, 0
	stmw 28,24(1)
	.cfi_offset 28, -24
	.cfi_offset 29, -20
	.cfi_offset 30, -16
	.cfi_offset 31, -12
	mr 30,9
	stw 0,52(1)
	stfd 31,40(1)
	.cfi_offset 65, 4
	.cfi_offset 63, -8
	.loc 1 258 0
	lwz 4,16(9)
	cmplwi 7,4,5126
	bne- 7,.L237
	.loc 1 258 0 is_stmt 0 discriminator 1
	lwz 10,12(9)
	cmpwi 7,10,4
	bne+ 7,.L237
.LBB3570:
.LBB3571:
.LBB3572:
	.loc 1 185 0 is_stmt 1
	lbz 10,8(9)
.LBB3573:
.LBB3574:
	.loc 1 94 0
	lwz 9,4(9)
.LBE3574:
.LBE3573:
	.loc 1 185 0
	mullw 3,10,3
.LBB3576:
.LBB3575:
	.loc 1 94 0
	add 3,9,3
	b .L236
.L237:
	addi 9,4,-5120
	cmplwi 7,9,10
	bgt- 7,.L242
	lis 10,.LANCHOR1@ha
	slwi 9,9,2
	la 10,.LANCHOR1@l(10)
	lfsx 31,10,9
	b .L238
.L242:
.LBE3575:
.LBE3576:
.LBE3572:
.LBE3571:
.LBE3570:
	.loc 1 255 0
	lis 9,.LC2@ha
	lfs 31,.LC2@l(9)
.L238:
.LBB3577:
.LBB3578:
.LBB3579:
	.loc 1 185 0
	lbz 9,8(30)
.LBE3579:
.LBE3578:
	.loc 1 266 0
	mr 29,1
	.loc 1 267 0
	lis 31,.LANCHOR0@ha
.LBB3586:
.LBB3584:
	.loc 1 185 0
	mullw 3,9,3
.LBB3580:
.LBB3581:
	.loc 1 94 0
	lwz 9,4(30)
.LBE3581:
.LBE3580:
.LBE3584:
.LBE3586:
	.loc 1 267 0
	la 31,.LANCHOR0@l(31)
	addi 28,31,28
	mr 5,28
.LBB3587:
.LBB3585:
.LBB3583:
.LBB3582:
	.loc 1 94 0
	add 9,9,3
.LBE3582:
.LBE3583:
.LBE3585:
.LBE3587:
	.loc 1 266 0
	stwu 9,8(29)
	.loc 1 267 0
	mr 3,29
	bl getFloat
	.loc 1 268 0
	lwz 4,16(30)
	mr 3,29
	addi 5,31,32
	bl getFloat
	.loc 1 269 0
	lwz 4,16(30)
	mr 3,29
	addi 5,31,36
	bl getFloat
	.loc 1 270 0
	lwz 9,12(30)
	cmpwi 7,9,4
	bne+ 7,.L239
	.loc 1 272 0
	lwz 4,16(30)
	mr 3,29
	addi 5,31,40
	bl getFloat
	b .L240
.L239:
	.loc 1 276 0
	lis 9,.LC3@ha
	lfs 0,.LC3@l(9)
	stfs 0,40(31)
.L240:
	.loc 1 279 0
	lfs 0,28(31)
	.loc 1 284 0
	mr 3,28
	.loc 1 279 0
	fdivs 0,0,31
	stfs 0,28(31)
	.loc 1 280 0
	lfs 0,32(31)
	fdivs 0,0,31
	stfs 0,32(31)
	.loc 1 281 0
	lfs 0,36(31)
	fdivs 0,0,31
	stfs 0,36(31)
	.loc 1 282 0
	lfs 0,40(31)
	fdivs 31,0,31
	stfs 31,40(31)
	b .L236
.L241:
	.cfi_def_cfa_offset 0
	.cfi_restore 28
	.cfi_restore 29
	.cfi_restore 30
	.cfi_restore 31
	.cfi_restore 63
	.cfi_restore 65
.LBE3577:
	.loc 1 289 0
	lis 3,_tempcolorelement@ha
	la 3,_tempcolorelement@l(3)
	blr
.L236:
	.cfi_def_cfa_offset 48
	.cfi_offset 28, -24
	.cfi_offset 29, -20
	.cfi_offset 30, -16
	.cfi_offset 31, -12
	.cfi_offset 63, -8
	.cfi_offset 65, 4
	.loc 1 291 0
	lmw 28,24(1)
	addi 11,1,48
	b _restfpr_31_x
	.cfi_restore 63
	.cfi_restore 65
	.cfi_restore 31
	.cfi_restore 30
	.cfi_restore 29
	.cfi_restore 28
	.cfi_endproc
.LFE77:
	.size	getColor, .-getColor
	.align 2
	.type	getTexCoord, @function
getTexCoord:
.LFB78:
	.loc 1 294 0
	.cfi_startproc
.LVL1145:
	mflr 0
	stwu 1,-40(1)
	.cfi_def_cfa_offset 40
	.cfi_register 65, 0
	.loc 1 295 0
	mulli 10,4,20
	.loc 1 294 0
	stmw 28,24(1)
	.cfi_offset 28, -16
	.cfi_offset 29, -12
	.cfi_offset 30, -8
	.cfi_offset 31, -4
	.loc 1 295 0
	lis 31,tex@ha
	.loc 1 294 0
	stw 0,44(1)
	.cfi_offset 65, 4
	.loc 1 295 0
	la 31,tex@l(31)
	add 9,31,10
	lbzx 8,31,10
	cmpwi 7,8,0
	beq- 7,.L249
	.loc 1 297 0
	lwz 4,16(9)
.LVL1146:
	cmplwi 7,4,5126
	bne- 7,.L247
	.loc 1 297 0 is_stmt 0 discriminator 1
	lwz 8,12(9)
	cmpwi 7,8,2
	bne+ 7,.L247
.LVL1147:
.LBB3604:
.LBB3605:
.LBB3606:
.LBB3607:
	.loc 1 185 0 is_stmt 1
	lbz 10,8(9)
.LBB3608:
.LBB3609:
	.loc 1 94 0
	lwz 9,4(9)
.LVL1148:
.LBE3609:
.LBE3608:
	.loc 1 185 0
	mullw 3,10,3
.LVL1149:
.LBB3611:
.LBB3610:
	.loc 1 94 0
	add 3,9,3
.LVL1150:
	b .L246
.LVL1151:
.L247:
.LBE3610:
.LBE3611:
.LBE3607:
.LBE3606:
.LBE3605:
.LBE3604:
.LBB3612:
	.loc 1 303 0
	add 31,31,10
.LVL1152:
	mr 30,1
.LBB3613:
.LBB3614:
	.loc 1 185 0
	lbz 9,8(31)
.LBE3614:
.LBE3613:
	.loc 1 305 0
	lis 29,.LANCHOR0@ha
	la 29,.LANCHOR0@l(29)
.LBB3621:
.LBB3619:
	.loc 1 185 0
	mullw 3,9,3
.LVL1153:
.LBB3615:
.LBB3616:
	.loc 1 94 0
	lwz 9,4(31)
.LBE3616:
.LBE3615:
.LBE3619:
.LBE3621:
	.loc 1 305 0
	addi 28,29,44
	mr 5,28
.LBB3622:
.LBB3620:
.LBB3618:
.LBB3617:
	.loc 1 94 0
	add 9,9,3
.LBE3617:
.LBE3618:
.LBE3620:
.LBE3622:
	.loc 1 303 0
	stwu 9,8(30)
	.loc 1 305 0
	mr 3,30
.LVL1154:
	bl getFloat
.LVL1155:
	.loc 1 306 0
	lwz 9,12(31)
	cmpwi 7,9,2
	ble+ 7,.L248
	.loc 1 308 0
	lwz 4,16(31)
	mr 3,30
	addi 5,29,48
	bl getFloat
.LVL1156:
.L248:
	.loc 1 311 0
	mr 3,28
	b .L246
.LVL1157:
.L249:
.LBE3612:
	.loc 1 316 0
	li 3,0
.LVL1158:
.L246:
	.loc 1 318 0
	addi 11,1,40
	b _restgpr_28_x
	.cfi_restore 31
	.cfi_restore 30
	.cfi_restore 29
	.cfi_restore 28
	.cfi_restore 65
	.cfi_endproc
.LFE78:
	.size	getTexCoord, .-getTexCoord
	.align 2
	.type	getIndex, @function
getIndex:
.LFB80:
	.loc 1 355 0
	.cfi_startproc
.LVL1159:
	mflr 0
	stwu 1,-16(1)
	.cfi_def_cfa_offset 16
	.cfi_register 65, 0
	.loc 1 356 0
	lis 9,.LANCHOR0@ha
	.loc 1 355 0
	mr 5,3
	stw 31,12(1)
	.cfi_offset 31, -4
	.loc 1 356 0
	la 31,.LANCHOR0@l(9)
	.loc 1 355 0
	stw 0,20(1)
	.cfi_offset 65, 4
	.loc 1 356 0
	lwz 10,52(31)
	cmplwi 7,10,1
	beq- 7,.L253
	cmplwi 7,10,2
	bne- 7,.L252
.LVL1160:
.LBB3625:
.LBB3626:
	.loc 1 364 0
	lwz 3,60(31)
.LVL1161:
	lwz 4,.LANCHOR0@l(9)
	bl getElement
.LVL1162:
	lwz 5,56(31)
	subf 3,5,3
	b .L252
.LVL1163:
.L253:
.LBE3626:
.LBE3625:
	.loc 1 362 0
	lwz 3,56(31)
.LVL1164:
	subf 3,3,5
.LVL1165:
.L252:
	.loc 1 366 0
	addi 11,1,16
	b _restgpr_31_x
	.cfi_restore 31
	.cfi_restore 65
	.cfi_endproc
.LFE80:
	.size	getIndex, .-getIndex
	.align 2
	.type	UploadVertex, @function
UploadVertex:
.LFB81:
	.loc 1 373 0
	.cfi_startproc
.LVL1166:
	.loc 1 375 0
	lis 9,.LANCHOR2@ha
	.loc 1 373 0
	mflr 0
	.loc 1 375 0
	lbz 10,.LANCHOR2@l(9)
	.loc 1 373 0
	stwu 1,-48(1)
	.cfi_def_cfa_offset 48
	.cfi_register 65, 0
	.loc 1 375 0
	cmpwi 7,10,3
	.loc 1 373 0
	stmw 26,24(1)
	.cfi_offset 26, -24
	.cfi_offset 27, -20
	.cfi_offset 28, -16
	.cfi_offset 29, -12
	.cfi_offset 30, -8
	.cfi_offset 31, -4
	mr 31,3
	stw 0,52(1)
	.cfi_offset 65, 4
	mr 30,9
	.loc 1 375 0
	bne+ 7,.L259
	.loc 1 377 0
	lis 9,vert@ha
	lbz 9,vert@l(9)
	cmpwi 7,9,0
	beq- 7,.L261
	.loc 1 378 0
	bl getIndex
.LVL1167:
	lis 9,.LANCHOR0+56@ha
	lwz 9,.LANCHOR0+56@l(9)
	add 3,3,9
.LBB3627:
.LBB3628:
	.loc 2 2193 0
	lis 9,wgPipe@ha
	lwz 9,wgPipe@l(9)
.LBE3628:
.LBE3627:
	.loc 1 378 0
	rlwinm 3,3,0,0xffff
.LVL1168:
.LBB3630:
.LBB3629:
	.loc 2 2193 0
	sth 3,0(9)
	b .L261
.LVL1169:
.L259:
.LBE3629:
.LBE3630:
.LBB3631:
	.loc 1 383 0
	lis 10,.LANCHOR0@ha
	la 9,.LANCHOR0@l(10)
	lwz 8,52(9)
	cmplwi 7,8,1
	beq- 7,.L262
	blt- 7,.L263
	cmplwi 7,8,2
	bne- 7,.L261
	.loc 1 392 0
	lwz 3,60(9)
.LVL1170:
	mr 5,31
	lwz 4,.LANCHOR0@l(10)
	bl getElement
.LVL1171:
	b .L309
.LVL1172:
.L263:
	.loc 1 386 0
	mulli 3,3,12
.LVL1173:
	lis 9,_vertexelements@ha
	la 9,_vertexelements@l(9)
	add 3,3,9
.LVL1174:
	.loc 1 387 0
	b .L265
.LVL1175:
.L262:
	.loc 1 389 0
	lwz 3,56(9)
.LVL1176:
	add 3,31,3
.L309:
	.loc 1 392 0
	bl getVertex
.LVL1177:
.L265:
	.loc 1 395 0
	cmpwi 7,3,0
	beq- 7,.L261
.LBB3632:
.LBB3633:
	.loc 2 2123 0
	lis 9,wgPipe@ha
.LBE3633:
.LBE3632:
	.loc 1 396 0
	lfs 12,0(3)
	lfs 13,4(3)
	lfs 0,8(3)
.LVL1178:
.LBB3635:
.LBB3634:
	.loc 2 2123 0
	lwz 9,wgPipe@l(9)
	stfs 12,0(9)
	.loc 2 2124 0
	stfs 13,0(9)
	.loc 2 2125 0
	stfs 0,0(9)
.LVL1179:
.L261:
.LBE3634:
.LBE3635:
.LBE3631:
	.loc 1 399 0
	la 9,.LANCHOR2@l(30)
	lbz 10,1(9)
	mr 30,9
	cmpwi 7,10,3
	bne+ 7,.L267
	.loc 1 401 0
	lis 9,norm@ha
	lbz 9,norm@l(9)
	cmpwi 7,9,0
	beq- 7,.L269
	.loc 1 403 0
	mr 3,31
	bl getIndex
.LVL1180:
	lis 9,.LANCHOR0+56@ha
	lwz 9,.LANCHOR0+56@l(9)
	add 3,3,9
.LBB3636:
.LBB3637:
	.loc 2 2224 0
	lis 9,wgPipe@ha
	lwz 9,wgPipe@l(9)
.LBE3637:
.LBE3636:
	.loc 1 403 0
	rlwinm 3,3,0,0xffff
.LVL1181:
.LBB3639:
.LBB3638:
	.loc 2 2224 0
	sth 3,0(9)
	b .L269
.LVL1182:
.L267:
.LBE3638:
.LBE3639:
.LBB3640:
	.loc 1 409 0
	lis 10,.LANCHOR0@ha
	la 9,.LANCHOR0@l(10)
	lwz 8,52(9)
	cmplwi 7,8,1
	beq- 7,.L270
	blt- 7,.L271
	cmplwi 7,8,2
	bne- 7,.L269
	.loc 1 418 0
	lwz 3,60(9)
	mr 5,31
	lwz 4,.LANCHOR0@l(10)
	bl getElement
.LVL1183:
	b .L310
.L271:
	.loc 1 412 0
	mulli 3,31,12
	lis 9,_normalelements@ha
	la 9,_normalelements@l(9)
	add 3,3,9
.LVL1184:
	.loc 1 413 0
	b .L273
.LVL1185:
.L270:
	.loc 1 415 0
	lwz 3,56(9)
	add 3,31,3
.L310:
	.loc 1 418 0
	bl getNormal
.LVL1186:
.L273:
	.loc 1 421 0
	cmpwi 7,3,0
	beq- 7,.L269
.LBB3641:
.LBB3642:
	.loc 2 2198 0
	lis 9,wgPipe@ha
.LBE3642:
.LBE3641:
	.loc 1 422 0
	lfs 12,0(3)
	lfs 13,4(3)
	lfs 0,8(3)
.LVL1187:
.LBB3644:
.LBB3643:
	.loc 2 2198 0
	lwz 9,wgPipe@l(9)
	stfs 12,0(9)
	.loc 2 2199 0
	stfs 13,0(9)
	.loc 2 2200 0
	stfs 0,0(9)
.LVL1188:
.L269:
.LBE3643:
.LBE3644:
.LBE3640:
	.loc 1 425 0
	lbz 9,2(30)
	cmpwi 7,9,3
	bne+ 7,.L275
	.loc 1 427 0
	lis 9,color@ha
	lbz 9,color@l(9)
	cmpwi 7,9,0
	beq- 7,.L277
	.loc 1 429 0
	mr 3,31
	bl getIndex
.LVL1189:
	lis 9,.LANCHOR0+56@ha
	lwz 9,.LANCHOR0+56@l(9)
	add 3,3,9
.LBB3645:
.LBB3646:
	.loc 2 2266 0
	lis 9,wgPipe@ha
	lwz 9,wgPipe@l(9)
.LBE3646:
.LBE3645:
	.loc 1 429 0
	rlwinm 3,3,0,0xffff
.LVL1190:
.LBB3648:
.LBB3647:
	.loc 2 2266 0
	sth 3,0(9)
.LVL1191:
.L277:
	lis 9,_texcoordelements@ha
.LBE3647:
.LBE3648:
.LBB3649:
	.loc 1 472 0 discriminator 1
	slwi 27,31,3
.LBE3649:
	.loc 1 459 0 discriminator 1
	lis 29,.LANCHOR0@ha
	la 9,_texcoordelements@l(9)
.LBB3654:
	.loc 1 472 0 discriminator 1
	li 30,0
.LBE3654:
	.loc 1 459 0 discriminator 1
	la 29,.LANCHOR0@l(29)
.LBB3655:
.LBB3650:
.LBB3651:
	.loc 2 2271 0 discriminator 1
	lis 28,wgPipe@ha
	add 27,27,9
.LBE3651:
.LBE3650:
.LBE3655:
	.loc 1 461 0 discriminator 1
	lis 26,tex@ha
	b .L278
.LVL1192:
.L275:
.LBB3656:
	.loc 1 435 0
	lis 10,.LANCHOR0@ha
	la 9,.LANCHOR0@l(10)
	lwz 8,52(9)
	cmplwi 7,8,1
	beq- 7,.L279
	blt- 7,.L280
	cmplwi 7,8,2
	bne- 7,.L277
	.loc 1 444 0
	lwz 3,60(9)
	mr 5,31
	lwz 4,.LANCHOR0@l(10)
	bl getElement
.LVL1193:
	b .L311
.L280:
	.loc 1 438 0
	lis 9,_colorelements@ha
	slwi 3,31,4
	la 9,_colorelements@l(9)
	add 3,3,9
.LVL1194:
	.loc 1 439 0
	b .L282
.LVL1195:
.L279:
	.loc 1 441 0
	lwz 3,56(9)
	add 3,31,3
.L311:
	.loc 1 444 0
	bl getColor
.LVL1196:
.L282:
	.loc 1 448 0
	cmpwi 7,3,0
	beq- 7,.L277
	.loc 1 449 0
	lis 9,.LC2@ha
	lfs 13,0(3)
	lfs 0,.LC2@l(9)
	addi 9,1,8
	fmuls 13,13,0
	fctiwz 13,13
	stfiwx 13,0,9
	addi 9,1,12
	lfs 13,4(3)
	lwz 6,8(1)
	fmuls 13,13,0
	rlwinm 6,6,0,0xff
	fctiwz 13,13
	stfiwx 13,0,9
	addi 9,1,16
	lfs 13,8(3)
	lwz 7,12(1)
	fmuls 13,13,0
	rlwinm 7,7,0,0xff
	fctiwz 13,13
	stfiwx 13,0,9
	addi 9,1,20
	lfs 13,12(3)
	lwz 8,16(1)
	fmuls 0,13,0
	rlwinm 8,8,0,0xff
	fctiwz 0,0
	stfiwx 0,0,9
.LBB3657:
.LBB3658:
	.loc 2 2229 0
	lis 9,wgPipe@ha
	lwz 9,wgPipe@l(9)
.LBE3658:
.LBE3657:
	.loc 1 449 0
	lwz 10,20(1)
.LBB3661:
.LBB3659:
	.loc 2 2229 0
	stb 6,0(9)
.LBE3659:
.LBE3661:
	.loc 1 449 0
	rlwinm 10,10,0,0xff
.LVL1197:
.LBB3662:
.LBB3660:
	.loc 2 2230 0
	stb 7,0(9)
	.loc 2 2231 0
	stb 8,0(9)
	.loc 2 2232 0
	stb 10,0(9)
	b .L277
.LVL1198:
.L278:
.LBE3660:
.LBE3662:
.LBE3656:
	.loc 1 456 0
	mr 3,30
	bl _glGetEnableTex
.LVL1199:
	cmpwi 7,3,0
	beq- 7,.L285
	.loc 1 459 0
	addi 9,29,64
	lbzx 9,9,30
	cmpwi 7,9,3
	bne+ 7,.L286
	mulli 9,30,20
	.loc 1 461 0
	la 10,tex@l(26)
	lbzx 9,10,9
	cmpwi 7,9,0
	beq- 7,.L285
	.loc 1 463 0
	mr 3,31
	bl getIndex
.LVL1200:
	lwz 9,56(29)
	add 3,3,9
.LBB3663:
.LBB3664:
	.loc 2 2331 0
	lwz 9,wgPipe@l(28)
.LBE3664:
.LBE3663:
	.loc 1 463 0
	rlwinm 3,3,0,0xffff
.LVL1201:
.LBB3666:
.LBB3665:
	.loc 2 2331 0
	sth 3,0(9)
	b .L285
.LVL1202:
.L286:
.LBE3665:
.LBE3666:
.LBB3667:
	.loc 1 469 0
	lwz 9,52(29)
	cmplwi 7,9,1
	beq- 7,.L288
	blt- 7,.L289
	cmplwi 7,9,2
	bne- 7,.L285
	.loc 1 478 0
	lwz 3,60(29)
	mr 5,31
	lwz 4,0(29)
	bl getElement
.LVL1203:
	b .L312
.L289:
	mulli 3,30,8000
	add 3,27,3
.LVL1204:
	.loc 1 473 0
	b .L291
.LVL1205:
.L288:
	.loc 1 475 0
	lwz 3,56(29)
	add 3,31,3
.L312:
	.loc 1 478 0
	rlwinm 4,30,0,0xff
	bl getTexCoord
.LVL1206:
.L291:
	.loc 1 481 0
	cmpwi 7,3,0
	beq- 7,.L285
	.loc 1 482 0
	lfs 13,0(3)
	lfs 0,4(3)
.LVL1207:
.LBB3653:
.LBB3652:
	.loc 2 2271 0
	lwz 9,wgPipe@l(28)
	stfs 13,0(9)
	.loc 2 2272 0
	stfs 0,0(9)
.LVL1208:
.L285:
.LBE3652:
.LBE3653:
.LBE3667:
	.loc 1 454 0
	cmpwi 7,30,7
	addi 30,30,1
.LVL1209:
	bne+ 7,.L278
	.loc 1 485 0
	addi 11,1,48
	b _restgpr_26_x
	.cfi_restore 31
	.cfi_restore 30
	.cfi_restore 29
	.cfi_restore 28
	.cfi_restore 27
	.cfi_restore 26
	.cfi_restore 65
	.cfi_endproc
.LFE81:
	.size	UploadVertex, .-UploadVertex
	.align 2
	.type	_glSetClientState, @function
_glSetClientState:
.LFB217:
	.loc 1 1339 0
	.cfi_startproc
.LVL1210:
	.loc 1 1340 0
	lis 9,cur_state@ha
	lwz 9,cur_state@l(9)
	andi. 10,9,1
	beq+ 0,.L314
	.loc 1 1340 0 is_stmt 0 discriminator 1
	lis 4,.LC6@ha
.LVL1211:
	li 3,1282
.LVL1212:
	la 4,.LC6@l(4)
	li 5,1340
	b .L322
.LVL1213:
.L314:
	.loc 1 1341 0 is_stmt 1
	xoris 9,3,0xffff
	cmpwi 7,9,-32651
	beq 7,.L316
	cmplwi 7,3,32885
	li 9,0
	bgt+ 7,.L317
	ori 9,9,32884
	cmpw 7,3,9
	bne- 7,.L315
	.loc 1 1346 0
	lis 9,vert@ha
	stb 4,vert@l(9)
	blr
.L317:
	.loc 1 1341 0
	ori 9,9,32886
	cmpw 7,3,9
	beq- 7,.L319
	xoris 9,3,0xffff
	cmpwi 7,9,-32648
	bne 7,.L315
	.loc 1 1345 0
	lis 9,cur_tex_client@ha
	lis 10,tex@ha
	lwz 9,cur_tex_client@l(9)
	la 10,tex@l(10)
	mulli 9,9,20
	stbx 4,10,9
	blr
.L319:
	.loc 1 1343 0
	lis 9,color@ha
	stb 4,color@l(9)
	blr
.L316:
	.loc 1 1344 0
	lis 9,norm@ha
	stb 4,norm@l(9)
	blr
.L315:
.LVL1214:
.LBB3670:
.LBB3671:
	.loc 1 1349 0
	lis 4,.LC6@ha
.LVL1215:
	li 3,1280
.LVL1216:
	la 4,.LC6@l(4)
	li 5,1349
.LVL1217:
.L322:
.LBE3671:
.LBE3670:
	.loc 1 1351 0
.LBB3673:
.LBB3672:
	.loc 1 1349 0
	b _glSetErrorEx
.LVL1218:
.LBE3672:
.LBE3673:
	.cfi_endproc
.LFE217:
	.size	_glSetClientState, .-_glSetClientState
	.align 2
	.type	InstallArray, @function
InstallArray:
.LFB228:
	.loc 1 1565 0
	.cfi_startproc
	mflr 0
	stwu 1,-24(1)
	.cfi_def_cfa_offset 24
	.cfi_register 65, 0
	stmw 29,12(1)
	.cfi_offset 29, -12
	.cfi_offset 30, -8
	.cfi_offset 31, -4
	mr 31,5
	stw 0,28(1)
	.cfi_offset 65, 4
	.loc 1 1566 0
	lbz 9,0(5)
	cmpwi 7,9,0
	beq- 7,.L324
	.loc 1 1568 0
	lwz 10,12(5)
	cmpw 7,10,6
	bne+ 7,.L324
	.loc 1 1568 0 is_stmt 0 discriminator 1
	lwz 9,16(5)
	cmpw 7,9,7
	bne+ 7,.L324
	lis 9,.LANCHOR2+3@ha
	lbz 9,.LANCHOR2+3@l(9)
	cmpwi 7,9,0
	beq+ 7,.L324
.LBB3681:
.LBB3682:
	.loc 1 1570 0 is_stmt 1
	li 9,3
	mr 29,8
	stb 9,0(4)
	.loc 1 1571 0
	lis 9,.LANCHOR0+56@ha
.LBB3683:
.LBB3684:
	.loc 1 185 0
	lwz 30,.LANCHOR0+56@l(9)
	lbz 5,8(5)
.LBB3685:
.LBB3686:
	.loc 1 94 0
	lwz 9,4(31)
.LBE3686:
.LBE3685:
	.loc 1 185 0
	mullw 30,5,30
.LBB3688:
.LBB3687:
	.loc 1 94 0
	add 30,9,30
.LBE3687:
.LBE3688:
.LBE3684:
.LBE3683:
	.loc 1 1572 0
	mr 4,30
	bl GX_SetArray
	.loc 1 1573 0
	lbz 4,8(31)
.LBE3682:
.LBE3681:
	.loc 1 1584 0
	lwz 0,28(1)
.LBB3691:
.LBB3689:
	.loc 1 1573 0
	mr 3,30
	mullw 4,29,4
.LBE3689:
.LBE3691:
	.loc 1 1584 0
	lmw 29,12(1)
	mtlr 0
	.cfi_remember_state
	.cfi_restore 65
	addi 1,1,24
	.cfi_restore 31
	.cfi_restore 30
	.cfi_restore 29
	.cfi_def_cfa_offset 0
.LBB3692:
.LBB3690:
	.loc 1 1573 0
	b DCFlushRange
.L324:
	.cfi_restore_state
.LBE3690:
.LBE3692:
	.loc 1 1577 0
	li 9,1
	.loc 1 1584 0
	addi 11,1,24
	.loc 1 1577 0
	stb 9,0(4)
	.loc 1 1584 0
	b _restgpr_29_x
	.cfi_restore 31
	.cfi_restore 30
	.cfi_restore 29
	.cfi_restore 65
	.cfi_endproc
.LFE228:
	.size	InstallArray, .-InstallArray
	.align 2
	.globl glBegin
	.type	glBegin, @function
glBegin:
.LFB68:
	.loc 1 55 0
	.cfi_startproc
	stwu 1,-16(1)
	.cfi_def_cfa_offset 16
	mflr 0
	stw 31,12(1)
	.cfi_register 65, 0
	.cfi_offset 31, -4
	.loc 1 57 0
	lis 31,cur_state@ha
	lwz 10,cur_state@l(31)
	.loc 1 55 0
	stw 0,20(1)
	.cfi_offset 65, 4
	.loc 1 57 0
	andi. 9,10,1
	beq+ 0,.L333
	.loc 1 89 0 discriminator 1
	lwz 0,20(1)
	.loc 1 57 0 discriminator 1
	lis 4,.LC6@ha
	.loc 1 89 0 discriminator 1
	lwz 31,12(1)
	.loc 1 57 0 discriminator 1
	li 3,1282
	.loc 1 89 0 discriminator 1
	mtlr 0
	.cfi_remember_state
	.cfi_restore 65
	.loc 1 57 0 discriminator 1
	la 4,.LC6@l(4)
	li 5,57
	.loc 1 89 0 discriminator 1
	addi 1,1,16
	.cfi_restore 31
	.cfi_def_cfa_offset 0
	.loc 1 57 0 discriminator 1
	b _glSetErrorEx
.L333:
	.cfi_restore_state
	.loc 1 68 0
	cmplwi 7,3,9
	.loc 1 60 0
	ori 10,10,1
	.loc 1 63 0
	lis 8,.LANCHOR0+52@ha
	.loc 1 60 0
	stw 10,cur_state@l(31)
	.loc 1 63 0
	stw 9,.LANCHOR0+52@l(8)
	.loc 1 62 0
	lis 10,_GLtype@ha
	.loc 1 65 0
	lis 8,vert_i@ha
	.loc 1 62 0
	stw 9,_GLtype@l(10)
	.loc 1 65 0
	stw 9,vert_i@l(8)
	mr 8,10
	.loc 1 68 0
	bgt- 7,.L334
	lis 9,.L336@ha
	slwi 10,3,2
	la 9,.L336@l(9)
	lwzx 10,9,10
	add 10,10,9
	lis 9,_type@ha
	mtctr 10
	bctr
	.section	.rodata
	.align 2
	.align 2
.L336:
	.long .L335-.L336
	.long .L337-.L336
	.long .L338-.L336
	.long .L339-.L336
	.long .L340-.L336
	.long .L341-.L336
	.long .L344-.L336
	.long .L343-.L336
	.long .L338-.L336
	.long .L344-.L336
	.section	".text"
.L335:
	.loc 1 70 0
	li 10,184
	b .L347
.L337:
	.loc 1 71 0
	li 10,168
	b .L347
.L339:
	.loc 1 72 0
	li 10,176
	b .L347
.L340:
	.loc 1 73 0
	li 10,144
	b .L347
.L341:
	.loc 1 74 0
	li 10,152
	b .L347
.L343:
	.loc 1 76 0
	li 10,128
	b .L347
.L344:
	.loc 1 77 0
	li 10,160
.L347:
	stw 10,_type@l(9)
	b .L332
.L338:
	.loc 1 80 0
	li 10,0
	.loc 1 81 0
	stw 3,_GLtype@l(8)
	.loc 1 80 0
	stw 10,_type@l(9)
	.loc 1 82 0
	b .L332
.L334:
	.loc 1 85 0
	lis 4,.LC6@ha
	.loc 1 84 0
	li 9,1280
	.loc 1 85 0
	li 3,1280
	la 4,.LC6@l(4)
	li 5,85
	.loc 1 84 0
	stw 9,_GLtype@l(10)
	.loc 1 85 0
	bl _glSetErrorEx
	.loc 1 86 0
	lwz 9,cur_state@l(31)
	rlwinm 9,9,0,0,30
	stw 9,cur_state@l(31)
.L332:
	.loc 1 89 0
	addi 11,1,16
	b _restgpr_31_x
	.cfi_restore 31
	.cfi_restore 65
	.cfi_endproc
.LFE68:
	.size	glBegin, .-glBegin
	.align 2
	.globl ResetArrays
	.type	ResetArrays, @function
ResetArrays:
.LFB210:
	.loc 1 606 0
	.cfi_startproc
.LVL1219:
	.loc 1 610 0
	lis 10,vert_i@ha
	.loc 1 606 0
	stwu 1,-16(1)
	.cfi_def_cfa_offset 16
	.loc 1 610 0
	lwz 0,vert_i@l(10)
	mr 11,10
	.loc 1 612 0
	lis 10,_vertexelements@ha
	.loc 1 606 0
	stmw 30,8(1)
	.cfi_offset 30, -8
	.cfi_offset 31, -4
	lis 5,_texcoordelements@ha
	lis 9,_colorelements@ha
	.loc 1 612 0
	la 31,_vertexelements@l(10)
	.loc 1 616 0
	lis 7,_normalelements@ha
	.loc 1 612 0
	li 10,0
	la 5,_texcoordelements@l(5)
	la 9,_colorelements@l(9)
	.loc 1 610 0
	li 8,0
	li 6,0
	.loc 1 616 0
	la 30,_normalelements@l(7)
	.loc 1 618 0
	lis 12,.LC3@ha
	mr 3,10
.LVL1220:
.L349:
	.loc 1 610 0 discriminator 1
	cmpw 7,6,0
	bge- 7,.L355
	.loc 1 612 0
	mr 7,8
	.loc 1 618 0
	lfs 0,.LC3@l(12)
	.loc 1 612 0
	stwux 10,7,31
	.loc 1 623 0
	li 4,0
	.loc 1 620 0
	stfs 0,0(9)
	.loc 1 613 0
	stw 10,4(7)
	.loc 1 614 0
	stw 10,8(7)
	.loc 1 616 0
	mr 7,8
	stwux 10,7,30
	.loc 1 621 0
	stfs 0,4(9)
	.loc 1 617 0
	stw 10,4(7)
	.loc 1 618 0
	stfs 0,8(7)
	.loc 1 625 0
	li 7,8
	.loc 1 622 0
	stfs 0,8(9)
	.loc 1 625 0
	mtctr 7
	.loc 1 623 0
	stfs 0,12(9)
.LVL1221:
.L351:
	.loc 1 627 0 discriminator 2
	mr 7,5
	stwux 3,7,4
	addi 4,4,8000
	.loc 1 628 0 discriminator 2
	stw 3,4(7)
	.loc 1 625 0 discriminator 2
	bdnz .L351
	.loc 1 610 0
	addi 6,6,1
.LVL1222:
	addi 5,5,8
	addi 8,8,12
	addi 9,9,16
	b .L349
.L355:
	.loc 1 632 0
	li 9,0
	.loc 1 633 0
	lmw 30,8(1)
	.loc 1 632 0
	stw 9,vert_i@l(11)
	.loc 1 633 0
	addi 1,1,16
	.cfi_restore 31
	.cfi_restore 30
	.cfi_def_cfa_offset 0
	blr
	.cfi_endproc
.LFE210:
	.size	ResetArrays, .-ResetArrays
	.align 2
	.type	glRender, @function
glRender:
.LFB215:
	.loc 1 1046 0
	.cfi_startproc
.LVL1223:
	stwu 1,-272(1)
	.cfi_def_cfa_offset 272
	mflr 0
	.loc 1 1049 0
	lis 9,cur_state@ha
	.loc 1 1046 0
	mfcr 12
	addi 11,1,272
	stw 0,276(1)
	.cfi_offset 65, 4
	.cfi_register 70, 12
	bl _savefpr_27
	.loc 1 1049 0
	lwz 10,cur_state@l(9)
	.loc 1 1046 0
	stmw 15,164(1)
	.cfi_offset 59, -40
	.cfi_offset 60, -32
	.cfi_offset 61, -24
	.cfi_offset 62, -16
	.cfi_offset 63, -8
	.cfi_offset 15, -108
	.cfi_offset 16, -104
	.cfi_offset 17, -100
	.cfi_offset 18, -96
	.cfi_offset 19, -92
	.cfi_offset 20, -88
	.cfi_offset 21, -84
	.cfi_offset 22, -80
	.cfi_offset 23, -76
	.cfi_offset 24, -72
	.cfi_offset 25, -68
	.cfi_offset 26, -64
	.cfi_offset 27, -60
	.cfi_offset 28, -56
	.cfi_offset 29, -52
	.cfi_offset 30, -48
	.cfi_offset 31, -44
	mr 31,3
	.loc 1 1049 0
	rlwinm 10,10,0,0,30
	.loc 1 1046 0
	stw 12,160(1)
	.cfi_offset 70, -112
	.loc 1 1049 0
	stw 10,cur_state@l(9)
.LBB3704:
.LBB3705:
	.loc 1 822 0
	bl GX_SetCurrentGXThread
.LVL1224:
	.loc 1 824 0
	lis 9,point_size@ha
	lfs 0,point_size@l(9)
	lis 9,.LC7@ha
	lfs 13,.LC7@l(9)
	mr 30,9
	fcmpu 7,0,13
	bnl- 7,.L3693
	.loc 1 826 0
	fadds 0,0,0
	addi 7,1,152
	li 4,4
	fctiwz 0,0
	stfiwx 0,0,7
	lwz 3,152(1)
	rlwinm 3,3,0,0xff
	b .L3699
.L3693:
	.loc 1 830 0
	fctiwz 0,0
	addi 8,1,148
	li 4,5
	stfiwx 0,0,8
	lwz 3,148(1)
	rlwinm 3,3,0,0xff
.L3699:
	bl GX_SetPointSize
.LVL1225:
	.loc 1 833 0
	lis 9,line_width@ha
	lfs 0,line_width@l(9)
	lfs 13,.LC7@l(30)
	fcmpu 7,0,13
	bnl- 7,.L3694
	.loc 1 835 0
	fadds 0,0,0
	addi 9,1,144
	li 4,4
	fctiwz 0,0
	stfiwx 0,0,9
	lwz 3,144(1)
	rlwinm 3,3,0,0xff
	b .L3700
.L3694:
	.loc 1 839 0
	fctiwz 0,0
	addi 10,1,140
	li 4,5
	stfiwx 0,0,10
	lwz 3,140(1)
	rlwinm 3,3,0,0xff
.L3700:
	bl GX_SetLineWidth
.LVL1226:
	.loc 1 842 0
	lis 9,depthfunction@ha
	lwz 4,depthfunction@l(9)
	lis 9,depthtestenabled@ha
	lbz 3,depthtestenabled@l(9)
	li 5,0
	rlwinm 4,4,0,0xff
	cmpwi 7,3,0
	beq- 7,.L363
	lis 9,depthupdate@ha
	lbz 5,depthupdate@l(9)
	neg 5,5
	srwi 5,5,31
.L363:
	.loc 1 845 0
	lis 30,color_write_mask@ha
	.loc 1 842 0
	bl GX_SetZMode
.LVL1227:
	.loc 1 845 0
	lbz 9,color_write_mask@l(30)
	la 30,color_write_mask@l(30)
	cmpwi 7,9,0
	bne- 7,.L364
	lbz 9,1(30)
	cmpwi 7,9,0
	bne- 7,.L364
	lbz 9,2(30)
	.loc 1 847 0
	li 3,0
	.loc 1 845 0
	cmpwi 7,9,0
	beq- 7,.L3701
.L364:
	.loc 1 851 0
	li 3,1
.L3701:
	bl GX_SetColorUpdate
.LVL1228:
	.loc 1 854 0
	lbz 9,3(30)
	.loc 1 856 0
	li 3,1
	.loc 1 854 0
	cmpwi 7,9,0
	bne- 7,.L3702
	.loc 1 860 0
	li 3,0
.L3702:
	bl GX_SetAlphaUpdate
.LVL1229:
	.loc 1 863 0
	lis 9,viewPort@ha
	lwz 8,viewPort@l(9)
	la 10,viewPort@l(9)
	lis 9,0x4330
	lis 7,.LC1@ha
	xoris 8,8,0x8000
	stw 9,88(1)
	stw 8,92(1)
	.loc 1 865 0
	lis 27,_GLtype@ha
	.loc 1 863 0
	lfs 4,.LC1@l(7)
	lwz 8,4(10)
	stw 9,96(1)
	xoris 8,8,0x8000
	lfd 0,88(1)
	stw 8,100(1)
	fsub 1,0,4
	lwz 8,8(10)
	stw 9,104(1)
	xoris 8,8,0x8000
	lfd 0,96(1)
	stw 8,108(1)
	frsp 1,1
	fsub 2,0,4
	lwz 10,12(10)
	lfd 0,104(1)
	xoris 10,10,0x8000
	stw 9,112(1)
	stw 10,116(1)
	fsub 3,0,4
	lis 9,normNear@ha
	frsp 2,2
	lfd 0,112(1)
	lfs 5,normNear@l(9)
	frsp 3,3
	fsub 4,0,4
	lis 9,normFar@ha
	lfs 6,normFar@l(9)
	frsp 4,4
	bl GX_SetModViewport
.LVL1230:
	.loc 1 865 0
	lwz 9,_GLtype@l(27)
	cmpwi 7,9,1280
	beq- 7,.L392
	.loc 1 870 0
	lis 9,scissor_test@ha
	lbz 9,scissor_test@l(9)
	cmpwi 7,9,0
	beq- 7,.L369
	.loc 1 872 0
	lis 10,scissorInfo@ha
	la 9,scissorInfo@l(10)
	lwz 3,scissorInfo@l(10)
	lwz 4,4(9)
	lwz 5,8(9)
	lwz 6,12(9)
	bl GX_SetModScissor
.LVL1231:
	b .L370
.L369:
	.loc 1 876 0
	bl GX_SetMaxScissor
.LVL1232:
.L370:
	.loc 1 879 0
	bl updateFog
.LVL1233:
	.loc 1 881 0
	lis 3,projection_stack@ha
	la 3,projection_stack@l(3)
	bl TopPrjMtx
.LVL1234:
	.loc 1 883 0
	mr. 9,3
	beq- 0,.L371
	.loc 1 884 0
	lbz 4,64(9)
	bl GX_LoadProjectionMtx
.LVL1235:
.L371:
	.loc 1 886 0
	lis 3,model_stack@ha
	la 3,model_stack@l(3)
	bl TopMtx
.LVL1236:
	.loc 1 889 0
	li 4,0
	.loc 1 886 0
	mr 30,3
.LVL1237:
	.loc 1 889 0
	bl GX_LoadPosMtxImm
.LVL1238:
	.loc 1 890 0
	li 4,0
	mr 3,30
	bl GX_LoadNrmMtxImm
.LVL1239:
	.loc 1 892 0
	li 3,0
	bl GX_SetCurrentMtx
.LVL1240:
.LBB3706:
.LBB3707:
	.loc 1 673 0
	lis 9,blend_type@ha
	lbz 3,blend_type@l(9)
	lis 9,blend_src@ha
	lbz 4,blend_src@l(9)
	lis 9,blend_dst@ha
	lbz 5,blend_dst@l(9)
	lis 9,blend_op@ha
	lbz 6,blend_op@l(9)
	bl GX_SetBlendMode
.LVL1241:
	.loc 1 675 0
	lis 9,lighting@ha
	lbz 9,lighting@l(9)
	cmpwi 7,9,0
	beq- 7,.L372
.LBB3708:
	.loc 1 735 0
	li 8,4
.LBE3708:
	.loc 1 675 0
	li 30,0
.LVL1242:
.LBB3709:
	.loc 1 735 0
	mtctr 8
.LBE3709:
	.loc 1 675 0
	li 29,0
	li 9,0
.LBB3710:
	.loc 1 734 0
	lis 7,lights@ha
	.loc 1 735 0
	li 10,1
.L375:
.LVL1243:
	mulli 8,9,164
	.loc 1 734 0
	la 6,lights@l(7)
	lbzx 8,6,8
	cmpwi 7,8,0
	beq- 7,.L373
	.loc 1 735 0
	slw 8,10,9
	or 29,8,29
.LVL1244:
	addi 8,9,4
	.loc 1 736 0
	slw 8,10,8
	.loc 1 735 0
	rlwinm 29,29,0,0xff
.LVL1245:
	.loc 1 736 0
	or 30,8,30
.LVL1246:
	rlwinm 30,30,0,0xff
.LVL1247:
.L373:
	.loc 1 733 0
	addi 9,9,1
.LVL1248:
	bdnz .L375
	.loc 1 742 0
	li 3,2
	bl GX_SetNumChans
.LVL1249:
	.loc 1 745 0
	li 3,4
	li 4,1
	li 5,0
	li 6,0
	mr 7,29
	li 8,2
	li 9,1
	bl GX_SetChanCtrl
.LVL1250:
	.loc 1 748 0
	li 9,0
	li 8,2
	li 3,5
	li 4,1
	li 5,0
	li 6,0
	mr 7,30
	bl GX_SetChanCtrl
.LVL1251:
	.loc 1 753 0
	li 3,0
	li 4,4
	li 5,15
	li 6,15
	li 7,2
	bl GX_SetTevColorIn
.LVL1252:
	.loc 1 754 0
	li 8,0
	li 3,0
	li 4,0
	li 5,0
	li 6,0
	li 7,1
	bl GX_SetTevColorOp
.LVL1253:
	.loc 1 757 0
	li 3,0
	li 4,2
	li 5,7
	li 6,7
	li 7,1
	bl GX_SetTevAlphaIn
.LVL1254:
	.loc 1 758 0
	li 8,0
	li 7,1
	li 3,0
	li 4,0
	li 5,0
	li 6,0
	bl GX_SetTevAlphaOp
.LVL1255:
	.loc 1 761 0
	li 3,0
	li 4,255
	li 5,255
	li 6,4
	bl GX_SetTevOrder
.LVL1256:
	.loc 1 769 0
	li 3,1
	li 4,0
	li 5,15
	li 6,15
	li 7,10
	bl GX_SetTevColorIn
.LVL1257:
	.loc 1 770 0
	li 8,0
	li 3,1
	li 4,0
	li 5,0
	li 6,0
	li 7,1
	bl GX_SetTevColorOp
.LVL1258:
	.loc 1 773 0
	li 3,1
	li 4,0
	li 5,7
	li 6,7
	li 7,11
	bl GX_SetTevAlphaIn
.LVL1259:
	.loc 1 774 0
	li 8,0
	li 7,1
	li 3,1
	li 4,0
	li 5,0
	li 6,0
	bl GX_SetTevAlphaOp
.LVL1260:
	.loc 1 777 0
	li 3,1
	li 4,255
	li 5,255
	li 6,4
	bl GX_SetTevOrder
.LVL1261:
	.loc 1 785 0
	li 3,2
	li 4,15
	li 5,10
	li 6,12
	li 7,0
	bl GX_SetTevColorIn
.LVL1262:
	.loc 1 786 0
	li 8,0
	li 3,2
	li 4,0
	li 5,0
	li 6,0
	li 7,1
	bl GX_SetTevColorOp
.LVL1263:
	.loc 1 790 0
	li 3,2
	li 4,7
	li 5,7
	li 6,7
	li 7,0
	bl GX_SetTevAlphaIn
.LVL1264:
	.loc 1 791 0
	li 3,2
	li 4,0
	li 5,0
	li 6,0
	li 7,1
	li 8,0
	bl GX_SetTevAlphaOp
.LVL1265:
	.loc 1 793 0
	li 3,2
	li 4,255
	li 5,255
	li 6,5
	bl GX_SetTevOrder
.LVL1266:
	.loc 1 795 0
	li 3,3
	b .L376
.LVL1267:
.L372:
.LBE3710:
	.loc 1 799 0
	li 3,4
	li 4,0
	li 5,0
	li 6,1
	li 7,0
	li 8,0
	li 9,2
	bl GX_SetChanCtrl
.LVL1268:
	.loc 1 801 0
	li 3,1
	bl GX_SetNumChans
.LVL1269:
	.loc 1 800 0
	li 3,0
.LVL1270:
.L376:
	.loc 1 804 0
	bl GX_SetTextures
.LVL1271:
	.loc 1 806 0
	mr. 9,3
	bne+ 0,.L377
	.loc 1 808 0
	li 4,4
	bl GX_SetTevOp
.LVL1272:
	.loc 1 809 0
	li 9,1
.LVL1273:
.L377:
	.loc 1 814 0
	mr 3,9
.LBE3707:
.LBE3706:
.LBB3713:
.LBB3714:
	.loc 1 30 0
	lis 29,curmat@ha
.LBE3714:
.LBE3713:
.LBB3721:
.LBB3711:
	.loc 1 814 0
	bl GX_SetNumTevStages
.LVL1274:
.LBE3711:
.LBE3721:
.LBB3722:
.LBB3715:
	.loc 1 30 0
	la 29,curmat@l(29)
.LBE3715:
.LBE3722:
.LBB3723:
.LBB3712:
	.loc 1 817 0
	bl GX_DrawDone
.LVL1275:
.LBE3712:
.LBE3723:
.LBB3724:
.LBB3716:
	.loc 1 30 0
	lis 9,globAmbient@ha
	lfs 13,16(29)
	la 10,globAmbient@l(9)
	lfs 12,globAmbient@l(9)
	lis 9,.LC2@ha
	lfs 0,.LC2@l(9)
	addi 9,1,124
	fmuls 12,13,12
	.loc 1 31 0
	addi 7,1,128
.LBE3716:
.LBE3724:
	.loc 1 899 0
	mr 28,1
	li 3,1
	lis 30,lights+4@ha
	.loc 1 916 0
	li 26,0
.LBB3725:
.LBB3717:
	.loc 1 30 0
	fmuls 12,12,0
	la 30,lights+4@l(30)
	mr 24,29
.LBE3717:
.LBE3725:
.LBB3726:
	.loc 1 928 0
	addi 20,29,32
	.loc 1 947 0
	addi 25,1,44
	lis 23,.LC8@ha
.LBE3726:
.LBB3734:
.LBB3718:
	.loc 1 30 0
	fctiwz 12,12
	lis 22,.LC9@ha
.LBE3718:
.LBE3734:
.LBB3735:
	.loc 1 1008 0
	lis 19,.LC3@ha
.LBB3727:
.LBB3728:
	.loc 1 660 0
	lis 18,.LC11@ha
	lis 17,.LC12@ha
	.loc 1 661 0
	lis 16,.LC13@ha
.LBE3728:
.LBE3727:
.LBE3735:
.LBB3736:
.LBB3719:
	.loc 1 30 0
	stfiwx 12,0,9
	li 9,0
.LVL1276:
.LBE3719:
.LBE3736:
.LBB3737:
.LBB3731:
.LBB3729:
	.loc 1 661 0
	lis 15,.LC14@ha
.LBE3729:
.LBE3731:
.LBE3737:
.LBB3738:
.LBB3720:
	.loc 1 31 0
	lfs 12,4(10)
	.loc 1 30 0
	lwz 8,124(1)
	.loc 1 31 0
	fmuls 12,13,12
	.loc 1 30 0
	rlwimi 9,8,24,0,7
.LVL1277:
	.loc 1 31 0
	fmuls 12,12,0
	fctiwz 12,12
	stfiwx 12,0,7
	.loc 1 32 0
	lfs 12,8(10)
	.loc 1 31 0
	lwz 8,128(1)
	.loc 1 32 0
	fmuls 12,13,12
	.loc 1 31 0
	rlwimi 9,8,16,8,15
	.loc 1 32 0
	addi 8,1,132
	fmuls 12,12,0
	fctiwz 12,12
	stfiwx 12,0,8
	.loc 1 33 0
	lfs 12,12(10)
	addi 10,1,136
	.loc 1 32 0
	lwz 8,132(1)
	.loc 1 33 0
	fmuls 13,13,12
	.loc 1 32 0
	rlwimi 9,8,8,16,23
	.loc 1 33 0
	fmuls 0,13,0
	fctiwz 0,0
	stfiwx 0,0,10
	lwz 10,136(1)
	rlwimi 9,10,0,24,31
.LBE3720:
.LBE3738:
	.loc 1 899 0
	stwu 9,120(28)
	mr 4,28
	bl GX_SetTevColor
.LVL1278:
	.loc 1 902 0
	mr 3,29
	addi 4,1,72
	bl Color_f2b
.LVL1279:
	.loc 1 903 0
	lwz 9,72(1)
	li 3,2
	mr 4,28
	stw 9,120(1)
	bl GX_SetTevColor
.LVL1280:
	.loc 1 910 0
	addi 3,29,16
	addi 4,1,68
	bl Color_f2b
.LVL1281:
	.loc 1 913 0
	addi 3,29,48
	addi 4,1,64
	bl Color_f2b
.LVL1282:
.LBB3739:
	.loc 1 950 0
	lis 7,.LC17@ha
	lfs 29,.LC17@l(7)
	fmr 30,29
.LVL1283:
.L391:
.LBE3739:
	.loc 1 918 0
	lbz 9,-4(30)
	cmpwi 7,9,0
	beq+ 7,.L378
.LBB3740:
	.loc 1 923 0
	addi 3,30,92
	addi 4,1,68
	bl scaleColorf2b
.LVL1284:
	.loc 1 924 0
	lwz 9,68(1)
	li 3,4
	mr 4,28
	stw 9,120(1)
	bl GX_SetChanAmbColor
.LVL1285:
	.loc 1 928 0
	mr 3,20
	addi 4,1,60
	bl Color_f2b
.LVL1286:
	.loc 1 929 0
	lwz 9,60(1)
	li 3,4
	mr 4,28
	stw 9,120(1)
	bl GX_SetChanMatColor
.LVL1287:
	.loc 1 933 0
	addi 3,30,124
	addi 4,1,64
	bl scaleColorf2b
.LVL1288:
	.loc 1 934 0
	lwz 9,64(1)
	li 3,5
	mr 4,28
	stw 9,120(1)
	bl GX_SetChanMatColor
.LVL1289:
	.loc 1 938 0
	addi 3,30,108
	addi 4,1,56
	bl Color_f2b
.LVL1290:
	.loc 1 939 0
	lwz 9,56(1)
	mr 3,30
	mr 4,28
	stw 9,120(1)
	addi 29,30,656
	bl GX_InitLightColor
.LVL1291:
	.loc 1 940 0
	lwz 9,56(1)
	mr 3,29
	mr 4,28
	stw 9,120(1)
	bl GX_InitLightColor
.LVL1292:
	.loc 1 950 0
	lfs 0,76(30)
	.loc 1 947 0
	addi 21,30,64
	lswi 5,21,12
	stswi 5,25,12
	.loc 1 950 0
	fcmpu 7,0,29
	bne+ 7,.L379
	.loc 1 951 0
	mr 3,25
	bl ps_guVecNormalize
.LVL1293:
	.loc 1 952 0
	lfs 0,.LC8@l(23)
	lfs 13,44(1)
	fmuls 13,13,0
	stfs 13,44(1)
	.loc 1 953 0
	lfs 13,48(1)
	fmuls 13,13,0
	stfs 13,48(1)
	.loc 1 954 0
	lfs 13,52(1)
	fmuls 0,13,0
	stfs 0,52(1)
.L379:
	.loc 1 957 0
	lis 8,.LC17@ha
	mr 3,30
	lfs 27,.LC17@l(8)
	fmr 1,27
	fmr 2,27
	fmr 3,27
	bl GX_InitLightPos
.LVL1294:
	.loc 1 958 0
	fmr 1,27
	fmr 2,27
	mr 3,29
	fmr 3,27
	bl GX_InitLightPos
.LVL1295:
	.loc 1 962 0
	lfs 0,76(30)
	addi 3,1,32
	fcmpu 7,0,30
	bne- 7,.L380
	.loc 1 963 0
	lswi 5,21,12
	stswi 5,3,12
	b .L381
.L380:
	.loc 1 967 0
	lfs 0,.LC9@l(22)
	lfs 13,144(30)
	fcmpu 7,13,0
	beq- 7,.L382
	.loc 1 969 0
	addi 9,30,80
	lswi 5,9,12
	stswi 5,3,12
	b .L381
.L382:
	.loc 1 974 0
	lis 9,.LC10@ha
	.loc 1 972 0
	stfs 30,32(1)
	.loc 1 974 0
	lfs 0,.LC10@l(9)
	.loc 1 973 0
	stfs 30,36(1)
	.loc 1 974 0
	stfs 0,40(1)
.L381:
	.loc 1 978 0
	bl ps_guVecNormalize
.LVL1296:
	.loc 1 980 0
	lfs 1,32(1)
	lfs 2,36(1)
	mr 3,30
	lfs 3,40(1)
	bl GX_InitLightDir
.LVL1297:
	.loc 1 981 0
	lfs 1,32(1)
	lfs 2,36(1)
	mr 3,29
	lfs 3,40(1)
	bl GX_InitLightDir
.LVL1298:
	.loc 1 984 0
	lfs 0,.LC9@l(22)
	lfs 13,144(30)
	fcmpu 7,13,0
	beq+ 7,.L383
.LBB3732:
	.loc 1 988 0
	addi 9,30,80
	addi 3,1,20
	lswi 5,9,12
	stswi 5,3,12
	.loc 1 996 0
	mr 4,25
	addi 5,1,8
	bl ps_guVecSub
.LVL1299:
	.loc 1 998 0
	lfs 1,8(1)
	lfs 2,12(1)
	mr 3,30
	lfs 3,16(1)
	bl GX_TestInitSpecularDir
.LVL1300:
	.loc 1 999 0
	lfs 1,8(1)
	lfs 2,12(1)
	mr 3,29
	lfs 3,16(1)
	bl GX_TestInitSpecularDir
.LVL1301:
.L383:
.LBE3732:
	.loc 1 1008 0
	lfs 0,.LC8@l(23)
	.loc 1 1010 0
	mr 3,30
	.loc 1 1008 0
	lfs 12,148(30)
	.loc 1 1010 0
	li 4,3
	.loc 1 1008 0
	lfs 13,156(30)
	lfs 28,152(30)
	fmuls 13,13,0
	lfs 31,.LC3@l(19)
	fmadds 28,28,0,12
	.loc 1 1010 0
	fmr 2,31
	.loc 1 1008 0
	fmadds 0,13,0,28
	fdivs 28,31,0
.LVL1302:
	.loc 1 1010 0
	fmr 1,28
	bl GX_InitLightDistAttn
.LVL1303:
	.loc 1 1011 0
	fmr 1,28
	fmr 2,31
	mr 3,29
	li 4,3
	bl GX_InitLightDistAttn
.LVL1304:
	.loc 1 1015 0
	lfs 1,144(30)
	mr 3,30
	li 4,5
	bl GX_InitLightSpot
.LVL1305:
	.loc 1 1017 0
	lfs 0,64(24)
	fcmpu 7,0,30
	beq+ 7,.L384
.LVL1306:
.LBB3733:
.LBB3730:
	.loc 1 660 0
	lfs 4,.LC11@l(18)
	.loc 1 661 0
	lis 9,.LC17@ha
	.loc 1 660 0
	lfs 13,.LC12@l(17)
	.loc 1 661 0
	fmr 1,31
	.loc 1 660 0
	fmuls 4,0,4
	.loc 1 661 0
	lfs 0,.LC14@l(15)
.LVL1307:
	lfs 2,.LC17@l(9)
	mr 3,29
	fmr 12,0
	lfs 3,.LC13@l(16)
	.loc 1 660 0
	fmuls 4,4,13
.LVL1308:
	.loc 1 661 0
	fmr 13,31
	fmr 5,2
	fmr 6,4
	fmuls 4,4,0
.LVL1309:
	fneg 6,6
	fmadd 6,6,12,13
	frsp 6,6
	bl GX_InitLightAttn
.LVL1310:
.L384:
.LBE3730:
.LBE3733:
	.loc 1 1024 0
	cmpwi 7,26,2
	.loc 1 1034 0
	mr 3,30
	.loc 1 1024 0
	beq- 7,.L386
	cmpwi 7,26,3
	beq- 7,.L387
	cmpwi 7,26,1
	beq- 7,.L388
	.loc 1 1026 0
	li 4,1
	bl GX_LoadLightObj
.LVL1311:
	.loc 1 1027 0
	mr 3,29
	li 4,16
	b .L3703
.L388:
	.loc 1 1030 0
	li 4,2
	bl GX_LoadLightObj
.LVL1312:
	.loc 1 1031 0
	mr 3,29
	li 4,32
	b .L3703
.L386:
	.loc 1 1034 0
	li 4,4
	bl GX_LoadLightObj
.LVL1313:
	.loc 1 1035 0
	mr 3,29
	li 4,64
	b .L3703
.L387:
	.loc 1 1038 0
	li 4,8
	bl GX_LoadLightObj
.LVL1314:
	.loc 1 1039 0
	mr 3,29
	li 4,128
.L3703:
	bl GX_LoadLightObj
.LVL1315:
.L378:
.LBE3740:
	.loc 1 916 0
	cmpwi 7,26,3
	addi 30,30,164
	addi 26,26,1
.LVL1316:
	bne+ 7,.L391
.LVL1317:
.L392:
.LBE3705:
.LBE3704:
	.loc 1 1056 0
	lis 25,_type@ha
	lwz 9,_type@l(25)
	cmpwi 7,9,0
	bne- 7,.L2483
	.loc 1 1058 0
	lwz 9,_GLtype@l(27)
	cmplwi 7,9,2
	beq- 7,.L395
	cmplwi 7,9,8
	bne- 7,.L3707
	.loc 1 1061 0
	li 9,128
	.loc 1 1054 0
	li 28,0
	.loc 1 1061 0
	stw 9,_type@l(25)
.LVL1318:
	li 9,1
	b .L393
.LVL1319:
.L395:
	.loc 1 1060 0
	li 9,176
	li 28,1
	stw 9,_type@l(25)
.LVL1320:
	b .L3704
.LVL1321:
.L3707:
	.loc 1 1062 0
	li 9,168
	stw 9,_type@l(25)
.L2483:
	.loc 1 1054 0
	li 28,0
.LVL1322:
.L3704:
	.loc 1 1053 0
	li 9,0
.LVL1323:
.L393:
	.loc 1 1069 0
	lis 10,gxcullfaceanabled@ha
	cmpwi 4,9,0
	lbz 10,gxcullfaceanabled@l(10)
	cmpwi 7,10,0
	beq- 7,.L397
.LVL1324:
	.loc 1 1072 0
	lis 9,gxwinding@ha
.LVL1325:
	lwz 9,gxwinding@l(9)
	cmplwi 7,9,2304
	beq- 7,.L2484
	cmplwi 7,9,2305
	.loc 1 1071 0
	li 29,0
	.loc 1 1072 0
	bne- 7,.L3705
.LVL1326:
	.loc 1 1074 0
	li 29,1
.LVL1327:
.L3705:
	.loc 1 1070 0
	li 30,0
	.loc 1 1074 0
	b .L399
.LVL1328:
.L2484:
	.loc 1 1071 0
	li 29,0
	.loc 1 1073 0
	li 30,1
.LVL1329:
.L399:
	.loc 1 1077 0
	lis 9,cull_mode@ha
	lbz 3,cull_mode@l(9)
	bl GX_SetCullMode
.LVL1330:
	.loc 1 1089 0
	beq- 4,.L401
	b .L402
.LVL1331:
.L397:
	.loc 1 1081 0
	li 3,0
	.loc 1 1067 0
	li 29,0
	.loc 1 1081 0
	bl GX_SetCullMode
.LVL1332:
	.loc 1 1089 0
	beq- 4,.L403
	.loc 1 1066 0
	li 30,1
	b .L402
.LVL1333:
.L401:
	.loc 1 1091 0
	cmpwi 7,30,0
	.loc 1 1084 0
	li 26,0
	.loc 1 1091 0
	beq- 7,.L404
.LVL1334:
.L403:
	.loc 1 1096 0
	cmpwi 7,28,0
	.loc 1 1098 0
	addi 26,31,1
	.loc 1 1096 0
	bne- 7,.L3706
	mr 26,31
.L3706:
	li 30,1
.LVL1335:
.L404:
	.loc 1 1102 0
	cmpwi 7,29,0
	beq- 7,.L405
	.loc 1 1107 0
	cmpwi 7,28,0
	.loc 1 1105 0
	add 26,26,31
.LVL1336:
	.loc 1 1107 0
	beq- 7,.L405
	.loc 1 1109 0
	addi 26,26,1
.LVL1337:
	b .L405
.LVL1338:
.L402:
	.loc 1 1115 0
	lwz 9,_GLtype@l(27)
	.loc 1 1084 0
	li 26,0
	.loc 1 1115 0
	cmpwi 7,9,8
	bne+ 7,.L405
	.loc 1 1123 0
	cmpwi 7,29,0
	beq- 7,.L406
	.loc 1 1125 0
	srawi 26,31,1
	addze 26,26
	addi 26,26,-1
	slwi 26,26,2
.LVL1339:
.L406:
	.loc 1 1127 0
	cmpwi 7,30,0
	beq- 7,.L405
	.loc 1 1129 0
	srawi 9,31,1
	addze 9,9
	addi 9,9,-1
	slwi 9,9,2
	add 26,26,9
.LVL1340:
.L405:
	.loc 1 1135 0
	bl GX_DrawDone
.LVL1341:
	.loc 1 1137 0
	lwz 3,_type@l(25)
	rlwinm 5,26,0,0xffff
	li 4,0
	rlwinm 3,3,0,0xff
	bl GX_Begin
.LVL1342:
	.loc 1 1206 0
	li 7,8
	lis 5,.LANCHOR0@ha
	mtctr 7
	.loc 1 1199 0
	li 8,1
	.loc 1 1198 0
	li 9,0
	.loc 1 1201 0
	li 10,0
	.loc 1 1203 0
	lis 6,tex@ha
	.loc 1 1206 0
	la 5,.LANCHOR0@l(5)
.LVL1343:
.L409:
	mulli 7,10,20
	.loc 1 1203 0
	la 4,tex@l(6)
	lbzx 7,4,7
	cmpwi 7,7,0
	beq- 7,.L407
	.loc 1 1206 0
	addi 7,5,64
	.loc 1 1205 0
	addi 9,9,1
.LVL1344:
	.loc 1 1206 0
	lbzx 7,7,10
	.loc 1 1208 0
	xori 7,7,3
	addic 7,7,-1
	subfe 7,7,7
	and 8,8,7
.LVL1345:
.L407:
	.loc 1 1201 0
	addi 10,10,1
.LVL1346:
	bdnz .L409
	.loc 1 1213 0
	lis 10,.LANCHOR2@ha
.LVL1347:
	lbz 7,.LANCHOR2@l(10)
	la 10,.LANCHOR2@l(10)
	cmpwi 7,7,3
	beq- 7,$+8
	b .L410
	.loc 1 1213 0 is_stmt 0 discriminator 1
	cmpwi 7,8,0
	bne- 7,$+8
	b .L410
	lbz 8,1(10)
.LVL1348:
	cmpwi 7,8,3
	beq- 7,.L411
	.loc 1 1214 0 is_stmt 1
	lis 8,norm@ha
	lbz 8,norm@l(8)
	cmpwi 7,8,0
	beq- 7,$+8
	b .L410
.L411:
	.loc 1 1214 0 is_stmt 0 discriminator 1
	lbz 10,2(10)
	cmpwi 7,10,3
	beq- 7,.L412
	.loc 1 1215 0 is_stmt 1
	lis 10,color@ha
	lbz 10,color@l(10)
	cmpwi 7,10,0
	beq- 7,$+8
	b .L410
.L412:
	.loc 1 1217 0
	lis 10,.LANCHOR0@ha
	la 10,.LANCHOR0@l(10)
	lwz 8,52(10)
	cmplwi 7,8,1
	bne+ 7,.L413
	.loc 1 1219 0
	lis 10,norm@ha
	cmpwi 7,9,0
	lbz 10,norm@l(10)
	cmpwi 6,10,0
	lis 10,color@ha
	lbz 10,color@l(10)
	bne- 6,.L414
	.loc 1 1219 0 is_stmt 0 discriminator 1
	cmpwi 6,10,0
	bne- 6,.L415
	bne- 7,.L416
.LVL1349:
	bne- 4,.L417
	cmpwi 7,29,0
	beq- 7,.L419
	addi 27,31,-1
.LVL1350:
	mr 29,27
.LVL1351:
.L420:
	cmpwi 7,29,0
	blt- 7,.L3708
	.loc 1 1219 0 discriminator 2
	mr 3,29
	addi 29,29,-1
.LVL1352:
	bl UploadVertexPT0_Array
.LVL1353:
	b .L420
.L3708:
	.loc 1 1219 0 discriminator 3
	cmpwi 7,28,0
	beq+ 7,.L419
	.loc 1 1219 0 discriminator 1
	mr 3,27
	bl UploadVertexPT0_Array
.LVL1354:
.L419:
	.loc 1 1219 0 discriminator 2
	cmpwi 7,30,0
	bne- 7,$+8
	b .L2469
	.loc 1 1219 0
	li 30,0
.L424:
.LVL1355:
	.loc 1 1219 0 discriminator 1
	cmpw 7,30,31
	bge- 7,.L3709
	.loc 1 1219 0 discriminator 2
	mr 3,30
	addi 30,30,1
.LVL1356:
	bl UploadVertexPT0_Array
.LVL1357:
	b .L424
.L3709:
	.loc 1 1219 0 discriminator 3
	cmpwi 7,28,0
	bne- 7,$+8
	b .L2469
	.loc 1 1219 0 discriminator 1
	li 3,0
	bl UploadVertexPT0_Array
.LVL1358:
	b .L2469
.LVL1359:
.L417:
	.loc 1 1219 0 discriminator 2
	lwz 9,_GLtype@l(27)
.LVL1360:
	cmpwi 7,9,8
	beq- 7,$+8
	b .L2469
	.loc 1 1219 0 discriminator 1
	cmpwi 7,30,0
	bne- 7,.L427
.LVL1361:
.L431:
	.loc 1 1219 0
	cmpwi 7,29,0
	bne- 7,$+8
	b .L2469
	srawi 31,31,1
	addze 31,31
.LVL1362:
	li 30,0
	li 29,1
	b .L432
.LVL1363:
.L427:
	srawi 27,31,1
	addze 27,27
	li 30,0
	li 28,1
.LVL1364:
.L429:
	.loc 1 1219 0 discriminator 1
	cmpw 7,27,28
	ble- 7,.L431
	.loc 1 1219 0 discriminator 2
	mr 3,30
	slwi 26,28,1
	bl UploadVertexPT0_Array
.LVL1365:
	addi 3,30,1
	bl UploadVertexPT0_Array
.LVL1366:
	addi 3,30,3
	bl UploadVertexPT0_Array
.LVL1367:
	mr 3,26
	addi 28,28,1
.LVL1368:
	bl UploadVertexPT0_Array
.LVL1369:
	addi 30,30,2
	b .L429
.LVL1370:
.L432:
	.loc 1 1219 0 discriminator 1
	cmpw 7,31,29
	bgt+ 7,$+8
	b .L2469
	.loc 1 1219 0 discriminator 2
	mr 3,30
	bl UploadVertexPT0_Array
.LVL1371:
	slwi 3,29,1
	bl UploadVertexPT0_Array
.LVL1372:
	addi 3,30,3
	bl UploadVertexPT0_Array
.LVL1373:
	addi 3,30,1
	addi 29,29,1
.LVL1374:
	bl UploadVertexPT0_Array
.LVL1375:
	addi 30,30,2
	b .L432
.LVL1376:
.L416:
	cmpwi 7,9,1
	bne+ 7,.L434
.LVL1377:
	.loc 1 1219 0 discriminator 1
	bne- 4,.L435
	cmpwi 7,29,0
	beq- 7,.L437
	addi 27,31,-1
.LVL1378:
	mr 29,27
.LVL1379:
.L438:
	cmpwi 7,29,0
	blt- 7,.L3710
	.loc 1 1219 0 discriminator 2
	mr 3,29
	addi 29,29,-1
.LVL1380:
	bl UploadVertexPT1_Array
.LVL1381:
	b .L438
.L3710:
	.loc 1 1219 0 discriminator 3
	cmpwi 7,28,0
	beq+ 7,.L437
	.loc 1 1219 0 discriminator 1
	mr 3,27
	bl UploadVertexPT1_Array
.LVL1382:
.L437:
	.loc 1 1219 0 discriminator 2
	cmpwi 7,30,0
	bne- 7,$+8
	b .L2469
	.loc 1 1219 0
	li 30,0
.L441:
.LVL1383:
	.loc 1 1219 0 discriminator 1
	cmpw 7,30,31
	bge- 7,.L3711
	.loc 1 1219 0 discriminator 2
	mr 3,30
	addi 30,30,1
.LVL1384:
	bl UploadVertexPT1_Array
.LVL1385:
	b .L441
.L3711:
	.loc 1 1219 0 discriminator 3
	cmpwi 7,28,0
	bne- 7,$+8
	b .L2469
	.loc 1 1219 0 discriminator 1
	li 3,0
	bl UploadVertexPT1_Array
.LVL1386:
	b .L2469
.LVL1387:
.L435:
	.loc 1 1219 0 discriminator 2
	lwz 9,_GLtype@l(27)
.LVL1388:
	cmpwi 7,9,8
	beq- 7,$+8
	b .L2469
	.loc 1 1219 0 discriminator 1
	cmpwi 7,30,0
	bne- 7,.L443
.LVL1389:
.L447:
	.loc 1 1219 0
	cmpwi 7,29,0
	bne- 7,$+8
	b .L2469
	srawi 31,31,1
	addze 31,31
.LVL1390:
	li 30,0
	li 29,1
	b .L448
.LVL1391:
.L443:
	srawi 27,31,1
	addze 27,27
	li 30,0
	li 28,1
.LVL1392:
.L445:
	.loc 1 1219 0 discriminator 1
	cmpw 7,27,28
	ble- 7,.L447
	.loc 1 1219 0 discriminator 2
	mr 3,30
	slwi 26,28,1
	bl UploadVertexPT1_Array
.LVL1393:
	addi 3,30,1
	bl UploadVertexPT1_Array
.LVL1394:
	addi 3,30,3
	bl UploadVertexPT1_Array
.LVL1395:
	mr 3,26
	addi 28,28,1
.LVL1396:
	bl UploadVertexPT1_Array
.LVL1397:
	addi 30,30,2
	b .L445
.LVL1398:
.L448:
	.loc 1 1219 0 discriminator 1
	cmpw 7,31,29
	bgt+ 7,$+8
	b .L2469
	.loc 1 1219 0 discriminator 2
	mr 3,30
	bl UploadVertexPT1_Array
.LVL1399:
	slwi 3,29,1
	bl UploadVertexPT1_Array
.LVL1400:
	addi 3,30,3
	bl UploadVertexPT1_Array
.LVL1401:
	addi 3,30,1
	addi 29,29,1
.LVL1402:
	bl UploadVertexPT1_Array
.LVL1403:
	addi 30,30,2
	b .L448
.LVL1404:
.L434:
	cmpwi 7,9,2
	bne+ 7,.L450
.LVL1405:
	.loc 1 1219 0 discriminator 1
	bne- 4,.L451
	cmpwi 7,29,0
	beq- 7,.L453
	addi 27,31,-1
.LVL1406:
	mr 29,27
.LVL1407:
.L454:
	cmpwi 7,29,0
	blt- 7,.L3712
	.loc 1 1219 0 discriminator 2
	mr 3,29
	addi 29,29,-1
.LVL1408:
	bl UploadVertexPT2_Array
.LVL1409:
	b .L454
.L3712:
	.loc 1 1219 0 discriminator 3
	cmpwi 7,28,0
	beq+ 7,.L453
	.loc 1 1219 0 discriminator 1
	mr 3,27
	bl UploadVertexPT2_Array
.LVL1410:
.L453:
	.loc 1 1219 0 discriminator 2
	cmpwi 7,30,0
	bne- 7,$+8
	b .L2469
	.loc 1 1219 0
	li 30,0
.L457:
.LVL1411:
	.loc 1 1219 0 discriminator 1
	cmpw 7,30,31
	bge- 7,.L3713
	.loc 1 1219 0 discriminator 2
	mr 3,30
	addi 30,30,1
.LVL1412:
	bl UploadVertexPT2_Array
.LVL1413:
	b .L457
.L3713:
	.loc 1 1219 0 discriminator 3
	cmpwi 7,28,0
	bne- 7,$+8
	b .L2469
	.loc 1 1219 0 discriminator 1
	li 3,0
	bl UploadVertexPT2_Array
.LVL1414:
	b .L2469
.LVL1415:
.L451:
	.loc 1 1219 0 discriminator 2
	lwz 9,_GLtype@l(27)
.LVL1416:
	cmpwi 7,9,8
	beq- 7,$+8
	b .L2469
	.loc 1 1219 0 discriminator 1
	cmpwi 7,30,0
	bne- 7,.L459
.LVL1417:
.L463:
	.loc 1 1219 0
	cmpwi 7,29,0
	bne- 7,$+8
	b .L2469
	srawi 31,31,1
	addze 31,31
.LVL1418:
	li 30,0
	li 29,1
	b .L464
.LVL1419:
.L459:
	srawi 27,31,1
	addze 27,27
	li 30,0
	li 28,1
.LVL1420:
.L461:
	.loc 1 1219 0 discriminator 1
	cmpw 7,27,28
	ble- 7,.L463
	.loc 1 1219 0 discriminator 2
	mr 3,30
	slwi 26,28,1
	bl UploadVertexPT2_Array
.LVL1421:
	addi 3,30,1
	bl UploadVertexPT2_Array
.LVL1422:
	addi 3,30,3
	bl UploadVertexPT2_Array
.LVL1423:
	mr 3,26
	addi 28,28,1
.LVL1424:
	bl UploadVertexPT2_Array
.LVL1425:
	addi 30,30,2
	b .L461
.LVL1426:
.L464:
	.loc 1 1219 0 discriminator 1
	cmpw 7,31,29
	bgt+ 7,$+8
	b .L2469
	.loc 1 1219 0 discriminator 2
	mr 3,30
	bl UploadVertexPT2_Array
.LVL1427:
	slwi 3,29,1
	bl UploadVertexPT2_Array
.LVL1428:
	addi 3,30,3
	bl UploadVertexPT2_Array
.LVL1429:
	addi 3,30,1
	addi 29,29,1
.LVL1430:
	bl UploadVertexPT2_Array
.LVL1431:
	addi 30,30,2
	b .L464
.LVL1432:
.L450:
	cmpwi 7,9,3
	bne+ 7,.L466
.LVL1433:
	.loc 1 1219 0 discriminator 1
	bne- 4,.L467
	cmpwi 7,29,0
	beq- 7,.L469
	addi 27,31,-1
.LVL1434:
	mr 29,27
.LVL1435:
.L470:
	cmpwi 7,29,0
	blt- 7,.L3714
	.loc 1 1219 0 discriminator 2
	mr 3,29
	addi 29,29,-1
.LVL1436:
	bl UploadVertexPT3_Array
.LVL1437:
	b .L470
.L3714:
	.loc 1 1219 0 discriminator 3
	cmpwi 7,28,0
	beq+ 7,.L469
	.loc 1 1219 0 discriminator 1
	mr 3,27
	bl UploadVertexPT3_Array
.LVL1438:
.L469:
	.loc 1 1219 0 discriminator 2
	cmpwi 7,30,0
	bne- 7,$+8
	b .L2469
	.loc 1 1219 0
	li 30,0
.L473:
.LVL1439:
	.loc 1 1219 0 discriminator 1
	cmpw 7,30,31
	bge- 7,.L3715
	.loc 1 1219 0 discriminator 2
	mr 3,30
	addi 30,30,1
.LVL1440:
	bl UploadVertexPT3_Array
.LVL1441:
	b .L473
.L3715:
	.loc 1 1219 0 discriminator 3
	cmpwi 7,28,0
	bne- 7,$+8
	b .L2469
	.loc 1 1219 0 discriminator 1
	li 3,0
	bl UploadVertexPT3_Array
.LVL1442:
	b .L2469
.LVL1443:
.L467:
	.loc 1 1219 0 discriminator 2
	lwz 9,_GLtype@l(27)
.LVL1444:
	cmpwi 7,9,8
	beq- 7,$+8
	b .L2469
	.loc 1 1219 0 discriminator 1
	cmpwi 7,30,0
	bne- 7,.L475
.LVL1445:
.L479:
	.loc 1 1219 0
	cmpwi 7,29,0
	bne- 7,$+8
	b .L2469
	srawi 31,31,1
	addze 31,31
.LVL1446:
	li 30,0
	li 29,1
	b .L480
.LVL1447:
.L475:
	srawi 27,31,1
	addze 27,27
	li 30,0
	li 28,1
.LVL1448:
.L477:
	.loc 1 1219 0 discriminator 1
	cmpw 7,27,28
	ble- 7,.L479
	.loc 1 1219 0 discriminator 2
	mr 3,30
	slwi 26,28,1
	bl UploadVertexPT3_Array
.LVL1449:
	addi 3,30,1
	bl UploadVertexPT3_Array
.LVL1450:
	addi 3,30,3
	bl UploadVertexPT3_Array
.LVL1451:
	mr 3,26
	addi 28,28,1
.LVL1452:
	bl UploadVertexPT3_Array
.LVL1453:
	addi 30,30,2
	b .L477
.LVL1454:
.L480:
	.loc 1 1219 0 discriminator 1
	cmpw 7,31,29
	bgt+ 7,$+8
	b .L2469
	.loc 1 1219 0 discriminator 2
	mr 3,30
	bl UploadVertexPT3_Array
.LVL1455:
	slwi 3,29,1
	bl UploadVertexPT3_Array
.LVL1456:
	addi 3,30,3
	bl UploadVertexPT3_Array
.LVL1457:
	addi 3,30,1
	addi 29,29,1
.LVL1458:
	bl UploadVertexPT3_Array
.LVL1459:
	addi 30,30,2
	b .L480
.LVL1460:
.L466:
	cmpwi 7,9,4
	bne+ 7,.L482
.LVL1461:
	.loc 1 1219 0 discriminator 1
	bne- 4,.L483
	cmpwi 7,29,0
	beq- 7,.L485
	addi 27,31,-1
.LVL1462:
	mr 29,27
.LVL1463:
.L486:
	cmpwi 7,29,0
	blt- 7,.L3716
	.loc 1 1219 0 discriminator 2
	mr 3,29
	addi 29,29,-1
.LVL1464:
	bl UploadVertexPT4_Array
.LVL1465:
	b .L486
.L3716:
	.loc 1 1219 0 discriminator 3
	cmpwi 7,28,0
	beq+ 7,.L485
	.loc 1 1219 0 discriminator 1
	mr 3,27
	bl UploadVertexPT4_Array
.LVL1466:
.L485:
	.loc 1 1219 0 discriminator 2
	cmpwi 7,30,0
	bne- 7,$+8
	b .L2469
	.loc 1 1219 0
	li 30,0
.L489:
.LVL1467:
	.loc 1 1219 0 discriminator 1
	cmpw 7,30,31
	bge- 7,.L3717
	.loc 1 1219 0 discriminator 2
	mr 3,30
	addi 30,30,1
.LVL1468:
	bl UploadVertexPT4_Array
.LVL1469:
	b .L489
.L3717:
	.loc 1 1219 0 discriminator 3
	cmpwi 7,28,0
	bne- 7,$+8
	b .L2469
	.loc 1 1219 0 discriminator 1
	li 3,0
	bl UploadVertexPT4_Array
.LVL1470:
	b .L2469
.LVL1471:
.L483:
	.loc 1 1219 0 discriminator 2
	lwz 9,_GLtype@l(27)
.LVL1472:
	cmpwi 7,9,8
	beq- 7,$+8
	b .L2469
	.loc 1 1219 0 discriminator 1
	cmpwi 7,30,0
	bne- 7,.L491
.LVL1473:
.L495:
	.loc 1 1219 0
	cmpwi 7,29,0
	bne- 7,$+8
	b .L2469
	srawi 31,31,1
	addze 31,31
.LVL1474:
	li 30,0
	li 29,1
	b .L496
.LVL1475:
.L491:
	srawi 27,31,1
	addze 27,27
	li 30,0
	li 28,1
.LVL1476:
.L493:
	.loc 1 1219 0 discriminator 1
	cmpw 7,27,28
	ble- 7,.L495
	.loc 1 1219 0 discriminator 2
	mr 3,30
	slwi 26,28,1
	bl UploadVertexPT4_Array
.LVL1477:
	addi 3,30,1
	bl UploadVertexPT4_Array
.LVL1478:
	addi 3,30,3
	bl UploadVertexPT4_Array
.LVL1479:
	mr 3,26
	addi 28,28,1
.LVL1480:
	bl UploadVertexPT4_Array
.LVL1481:
	addi 30,30,2
	b .L493
.LVL1482:
.L496:
	.loc 1 1219 0 discriminator 1
	cmpw 7,31,29
	bgt+ 7,$+8
	b .L2469
	.loc 1 1219 0 discriminator 2
	mr 3,30
	bl UploadVertexPT4_Array
.LVL1483:
	slwi 3,29,1
	bl UploadVertexPT4_Array
.LVL1484:
	addi 3,30,3
	bl UploadVertexPT4_Array
.LVL1485:
	addi 3,30,1
	addi 29,29,1
.LVL1486:
	bl UploadVertexPT4_Array
.LVL1487:
	addi 30,30,2
	b .L496
.LVL1488:
.L482:
	cmpwi 7,9,5
	bne+ 7,.L498
.LVL1489:
	.loc 1 1219 0 discriminator 1
	bne- 4,.L499
	cmpwi 7,29,0
	beq- 7,.L501
	addi 27,31,-1
.LVL1490:
	mr 29,27
.LVL1491:
.L502:
	cmpwi 7,29,0
	blt- 7,.L3718
	.loc 1 1219 0 discriminator 2
	mr 3,29
	addi 29,29,-1
.LVL1492:
	bl UploadVertexPT5_Array
.LVL1493:
	b .L502
.L3718:
	.loc 1 1219 0 discriminator 3
	cmpwi 7,28,0
	beq+ 7,.L501
	.loc 1 1219 0 discriminator 1
	mr 3,27
	bl UploadVertexPT5_Array
.LVL1494:
.L501:
	.loc 1 1219 0 discriminator 2
	cmpwi 7,30,0
	bne- 7,$+8
	b .L2469
	.loc 1 1219 0
	li 30,0
.L505:
.LVL1495:
	.loc 1 1219 0 discriminator 1
	cmpw 7,30,31
	bge- 7,.L3719
	.loc 1 1219 0 discriminator 2
	mr 3,30
	addi 30,30,1
.LVL1496:
	bl UploadVertexPT5_Array
.LVL1497:
	b .L505
.L3719:
	.loc 1 1219 0 discriminator 3
	cmpwi 7,28,0
	bne- 7,$+8
	b .L2469
	.loc 1 1219 0 discriminator 1
	li 3,0
	bl UploadVertexPT5_Array
.LVL1498:
	b .L2469
.LVL1499:
.L499:
	.loc 1 1219 0 discriminator 2
	lwz 9,_GLtype@l(27)
.LVL1500:
	cmpwi 7,9,8
	beq- 7,$+8
	b .L2469
	.loc 1 1219 0 discriminator 1
	cmpwi 7,30,0
	bne- 7,.L507
.LVL1501:
.L511:
	.loc 1 1219 0
	cmpwi 7,29,0
	bne- 7,$+8
	b .L2469
	srawi 31,31,1
	addze 31,31
.LVL1502:
	li 30,0
	li 29,1
	b .L512
.LVL1503:
.L507:
	srawi 27,31,1
	addze 27,27
	li 30,0
	li 28,1
.LVL1504:
.L509:
	.loc 1 1219 0 discriminator 1
	cmpw 7,27,28
	ble- 7,.L511
	.loc 1 1219 0 discriminator 2
	mr 3,30
	slwi 26,28,1
	bl UploadVertexPT5_Array
.LVL1505:
	addi 3,30,1
	bl UploadVertexPT5_Array
.LVL1506:
	addi 3,30,3
	bl UploadVertexPT5_Array
.LVL1507:
	mr 3,26
	addi 28,28,1
.LVL1508:
	bl UploadVertexPT5_Array
.LVL1509:
	addi 30,30,2
	b .L509
.LVL1510:
.L512:
	.loc 1 1219 0 discriminator 1
	cmpw 7,31,29
	bgt+ 7,$+8
	b .L2469
	.loc 1 1219 0 discriminator 2
	mr 3,30
	bl UploadVertexPT5_Array
.LVL1511:
	slwi 3,29,1
	bl UploadVertexPT5_Array
.LVL1512:
	addi 3,30,3
	bl UploadVertexPT5_Array
.LVL1513:
	addi 3,30,1
	addi 29,29,1
.LVL1514:
	bl UploadVertexPT5_Array
.LVL1515:
	addi 30,30,2
	b .L512
.LVL1516:
.L498:
	cmpwi 7,9,6
	bne+ 7,.L514
.LVL1517:
	.loc 1 1219 0 discriminator 1
	bne- 4,.L515
	cmpwi 7,29,0
	beq- 7,.L517
	addi 27,31,-1
.LVL1518:
	mr 29,27
.LVL1519:
.L518:
	cmpwi 7,29,0
	blt- 7,.L3720
	.loc 1 1219 0 discriminator 2
	mr 3,29
	addi 29,29,-1
.LVL1520:
	bl UploadVertexPT6_Array
.LVL1521:
	b .L518
.L3720:
	.loc 1 1219 0 discriminator 3
	cmpwi 7,28,0
	beq+ 7,.L517
	.loc 1 1219 0 discriminator 1
	mr 3,27
	bl UploadVertexPT6_Array
.LVL1522:
.L517:
	.loc 1 1219 0 discriminator 2
	cmpwi 7,30,0
	bne- 7,$+8
	b .L2469
	.loc 1 1219 0
	li 30,0
.L521:
.LVL1523:
	.loc 1 1219 0 discriminator 1
	cmpw 7,30,31
	bge- 7,.L3721
	.loc 1 1219 0 discriminator 2
	mr 3,30
	addi 30,30,1
.LVL1524:
	bl UploadVertexPT6_Array
.LVL1525:
	b .L521
.L3721:
	.loc 1 1219 0 discriminator 3
	cmpwi 7,28,0
	bne- 7,$+8
	b .L2469
	.loc 1 1219 0 discriminator 1
	li 3,0
	bl UploadVertexPT6_Array
.LVL1526:
	b .L2469
.LVL1527:
.L515:
	.loc 1 1219 0 discriminator 2
	lwz 9,_GLtype@l(27)
.LVL1528:
	cmpwi 7,9,8
	beq- 7,$+8
	b .L2469
	.loc 1 1219 0 discriminator 1
	cmpwi 7,30,0
	bne- 7,.L523
.LVL1529:
.L527:
	.loc 1 1219 0
	cmpwi 7,29,0
	bne- 7,$+8
	b .L2469
	srawi 31,31,1
	addze 31,31
.LVL1530:
	li 30,0
	li 29,1
	b .L528
.LVL1531:
.L523:
	srawi 27,31,1
	addze 27,27
	li 30,0
	li 28,1
.LVL1532:
.L525:
	.loc 1 1219 0 discriminator 1
	cmpw 7,27,28
	ble- 7,.L527
	.loc 1 1219 0 discriminator 2
	mr 3,30
	slwi 26,28,1
	bl UploadVertexPT6_Array
.LVL1533:
	addi 3,30,1
	bl UploadVertexPT6_Array
.LVL1534:
	addi 3,30,3
	bl UploadVertexPT6_Array
.LVL1535:
	mr 3,26
	addi 28,28,1
.LVL1536:
	bl UploadVertexPT6_Array
.LVL1537:
	addi 30,30,2
	b .L525
.LVL1538:
.L528:
	.loc 1 1219 0 discriminator 1
	cmpw 7,31,29
	bgt+ 7,$+8
	b .L2469
	.loc 1 1219 0 discriminator 2
	mr 3,30
	bl UploadVertexPT6_Array
.LVL1539:
	slwi 3,29,1
	bl UploadVertexPT6_Array
.LVL1540:
	addi 3,30,3
	bl UploadVertexPT6_Array
.LVL1541:
	addi 3,30,1
	addi 29,29,1
.LVL1542:
	bl UploadVertexPT6_Array
.LVL1543:
	addi 30,30,2
	b .L528
.LVL1544:
.L514:
	cmpwi 7,9,7
	beq- 7,$+8
	b .L410
.LVL1545:
	.loc 1 1219 0 discriminator 1
	bne- 4,.L530
	cmpwi 7,29,0
	beq- 7,.L532
	addi 27,31,-1
.LVL1546:
	mr 29,27
.LVL1547:
.L533:
	cmpwi 7,29,0
	blt- 7,.L3722
	.loc 1 1219 0 discriminator 2
	mr 3,29
	addi 29,29,-1
.LVL1548:
	bl UploadVertexPT7_Array
.LVL1549:
	b .L533
.L3722:
	.loc 1 1219 0 discriminator 3
	cmpwi 7,28,0
	beq+ 7,.L532
	.loc 1 1219 0 discriminator 1
	mr 3,27
	bl UploadVertexPT7_Array
.LVL1550:
.L532:
	.loc 1 1219 0 discriminator 2
	cmpwi 7,30,0
	bne- 7,$+8
	b .L2469
	.loc 1 1219 0
	li 30,0
.L536:
.LVL1551:
	.loc 1 1219 0 discriminator 1
	cmpw 7,30,31
	bge- 7,.L3723
	.loc 1 1219 0 discriminator 2
	mr 3,30
	addi 30,30,1
.LVL1552:
	bl UploadVertexPT7_Array
.LVL1553:
	b .L536
.L3723:
	.loc 1 1219 0 discriminator 3
	cmpwi 7,28,0
	bne- 7,$+8
	b .L2469
	.loc 1 1219 0 discriminator 1
	li 3,0
	bl UploadVertexPT7_Array
.LVL1554:
	b .L2469
.LVL1555:
.L530:
	.loc 1 1219 0 discriminator 2
	lwz 9,_GLtype@l(27)
.LVL1556:
	cmpwi 7,9,8
	beq- 7,$+8
	b .L2469
	.loc 1 1219 0 discriminator 1
	cmpwi 7,30,0
	bne- 7,.L538
.LVL1557:
.L542:
	.loc 1 1219 0
	cmpwi 7,29,0
	bne- 7,$+8
	b .L2469
	srawi 31,31,1
	addze 31,31
.LVL1558:
	li 30,0
	li 29,1
	b .L543
.LVL1559:
.L538:
	srawi 27,31,1
	addze 27,27
	li 30,0
	li 28,1
.LVL1560:
.L540:
	.loc 1 1219 0 discriminator 1
	cmpw 7,27,28
	ble- 7,.L542
	.loc 1 1219 0 discriminator 2
	mr 3,30
	slwi 26,28,1
	bl UploadVertexPT7_Array
.LVL1561:
	addi 3,30,1
	bl UploadVertexPT7_Array
.LVL1562:
	addi 3,30,3
	bl UploadVertexPT7_Array
.LVL1563:
	mr 3,26
	addi 28,28,1
.LVL1564:
	bl UploadVertexPT7_Array
.LVL1565:
	addi 30,30,2
	b .L540
.LVL1566:
.L543:
	.loc 1 1219 0 discriminator 1
	cmpw 7,31,29
	bgt+ 7,$+8
	b .L2469
	.loc 1 1219 0 discriminator 2
	mr 3,30
	bl UploadVertexPT7_Array
.LVL1567:
	slwi 3,29,1
	bl UploadVertexPT7_Array
.LVL1568:
	addi 3,30,3
	bl UploadVertexPT7_Array
.LVL1569:
	addi 3,30,1
	addi 29,29,1
.LVL1570:
	bl UploadVertexPT7_Array
.LVL1571:
	addi 30,30,2
	b .L543
.LVL1572:
.L414:
	.loc 1 1219 0 discriminator 1
	cmpwi 6,10,0
	bne- 6,.L545
	bne- 7,.L546
.LVL1573:
	bne- 4,.L547
	cmpwi 7,29,0
	beq- 7,.L549
	addi 27,31,-1
.LVL1574:
	mr 29,27
.LVL1575:
.L550:
	cmpwi 7,29,0
	blt- 7,.L3724
	.loc 1 1219 0 discriminator 2
	mr 3,29
	addi 29,29,-1
.LVL1576:
	bl UploadVertexPNT0_Array
.LVL1577:
	b .L550
.L3724:
	.loc 1 1219 0 discriminator 3
	cmpwi 7,28,0
	beq+ 7,.L549
	.loc 1 1219 0 discriminator 1
	mr 3,27
	bl UploadVertexPNT0_Array
.LVL1578:
.L549:
	.loc 1 1219 0 discriminator 2
	cmpwi 7,30,0
	bne- 7,$+8
	b .L2469
	.loc 1 1219 0
	li 30,0
.L553:
.LVL1579:
	.loc 1 1219 0 discriminator 1
	cmpw 7,30,31
	bge- 7,.L3725
	.loc 1 1219 0 discriminator 2
	mr 3,30
	addi 30,30,1
.LVL1580:
	bl UploadVertexPNT0_Array
.LVL1581:
	b .L553
.L3725:
	.loc 1 1219 0 discriminator 3
	cmpwi 7,28,0
	bne- 7,$+8
	b .L2469
	.loc 1 1219 0 discriminator 1
	li 3,0
	bl UploadVertexPNT0_Array
.LVL1582:
	b .L2469
.LVL1583:
.L547:
	.loc 1 1219 0 discriminator 2
	lwz 9,_GLtype@l(27)
.LVL1584:
	cmpwi 7,9,8
	beq- 7,$+8
	b .L2469
	.loc 1 1219 0 discriminator 1
	cmpwi 7,30,0
	bne- 7,.L555
.LVL1585:
.L559:
	.loc 1 1219 0
	cmpwi 7,29,0
	bne- 7,$+8
	b .L2469
	srawi 31,31,1
	addze 31,31
.LVL1586:
	li 30,0
	li 29,1
	b .L560
.LVL1587:
.L555:
	srawi 27,31,1
	addze 27,27
	li 30,0
	li 28,1
.LVL1588:
.L557:
	.loc 1 1219 0 discriminator 1
	cmpw 7,27,28
	ble- 7,.L559
	.loc 1 1219 0 discriminator 2
	mr 3,30
	slwi 26,28,1
	bl UploadVertexPNT0_Array
.LVL1589:
	addi 3,30,1
	bl UploadVertexPNT0_Array
.LVL1590:
	addi 3,30,3
	bl UploadVertexPNT0_Array
.LVL1591:
	mr 3,26
	addi 28,28,1
.LVL1592:
	bl UploadVertexPNT0_Array
.LVL1593:
	addi 30,30,2
	b .L557
.LVL1594:
.L560:
	.loc 1 1219 0 discriminator 1
	cmpw 7,31,29
	bgt+ 7,$+8
	b .L2469
	.loc 1 1219 0 discriminator 2
	mr 3,30
	bl UploadVertexPNT0_Array
.LVL1595:
	slwi 3,29,1
	bl UploadVertexPNT0_Array
.LVL1596:
	addi 3,30,3
	bl UploadVertexPNT0_Array
.LVL1597:
	addi 3,30,1
	addi 29,29,1
.LVL1598:
	bl UploadVertexPNT0_Array
.LVL1599:
	addi 30,30,2
	b .L560
.LVL1600:
.L546:
	cmpwi 7,9,1
	bne+ 7,.L562
.LVL1601:
	.loc 1 1219 0 discriminator 1
	bne- 4,.L563
	cmpwi 7,29,0
	beq- 7,.L565
	addi 27,31,-1
.LVL1602:
	mr 29,27
.LVL1603:
.L566:
	cmpwi 7,29,0
	blt- 7,.L3726
	.loc 1 1219 0 discriminator 2
	mr 3,29
	addi 29,29,-1
.LVL1604:
	bl UploadVertexPNT1_Array
.LVL1605:
	b .L566
.L3726:
	.loc 1 1219 0 discriminator 3
	cmpwi 7,28,0
	beq+ 7,.L565
	.loc 1 1219 0 discriminator 1
	mr 3,27
	bl UploadVertexPNT1_Array
.LVL1606:
.L565:
	.loc 1 1219 0 discriminator 2
	cmpwi 7,30,0
	bne- 7,$+8
	b .L2469
	.loc 1 1219 0
	li 30,0
.L569:
.LVL1607:
	.loc 1 1219 0 discriminator 1
	cmpw 7,30,31
	bge- 7,.L3727
	.loc 1 1219 0 discriminator 2
	mr 3,30
	addi 30,30,1
.LVL1608:
	bl UploadVertexPNT1_Array
.LVL1609:
	b .L569
.L3727:
	.loc 1 1219 0 discriminator 3
	cmpwi 7,28,0
	bne- 7,$+8
	b .L2469
	.loc 1 1219 0 discriminator 1
	li 3,0
	bl UploadVertexPNT1_Array
.LVL1610:
	b .L2469
.LVL1611:
.L563:
	.loc 1 1219 0 discriminator 2
	lwz 9,_GLtype@l(27)
.LVL1612:
	cmpwi 7,9,8
	beq- 7,$+8
	b .L2469
	.loc 1 1219 0 discriminator 1
	cmpwi 7,30,0
	bne- 7,.L571
.LVL1613:
.L575:
	.loc 1 1219 0
	cmpwi 7,29,0
	bne- 7,$+8
	b .L2469
	srawi 31,31,1
	addze 31,31
.LVL1614:
	li 30,0
	li 29,1
	b .L576
.LVL1615:
.L571:
	srawi 27,31,1
	addze 27,27
	li 30,0
	li 28,1
.LVL1616:
.L573:
	.loc 1 1219 0 discriminator 1
	cmpw 7,27,28
	ble- 7,.L575
	.loc 1 1219 0 discriminator 2
	mr 3,30
	slwi 26,28,1
	bl UploadVertexPNT1_Array
.LVL1617:
	addi 3,30,1
	bl UploadVertexPNT1_Array
.LVL1618:
	addi 3,30,3
	bl UploadVertexPNT1_Array
.LVL1619:
	mr 3,26
	addi 28,28,1
.LVL1620:
	bl UploadVertexPNT1_Array
.LVL1621:
	addi 30,30,2
	b .L573
.LVL1622:
.L576:
	.loc 1 1219 0 discriminator 1
	cmpw 7,31,29
	bgt+ 7,$+8
	b .L2469
	.loc 1 1219 0 discriminator 2
	mr 3,30
	bl UploadVertexPNT1_Array
.LVL1623:
	slwi 3,29,1
	bl UploadVertexPNT1_Array
.LVL1624:
	addi 3,30,3
	bl UploadVertexPNT1_Array
.LVL1625:
	addi 3,30,1
	addi 29,29,1
.LVL1626:
	bl UploadVertexPNT1_Array
.LVL1627:
	addi 30,30,2
	b .L576
.LVL1628:
.L562:
	cmpwi 7,9,2
	bne+ 7,.L578
.LVL1629:
	.loc 1 1219 0 discriminator 1
	bne- 4,.L579
	cmpwi 7,29,0
	beq- 7,.L581
	addi 27,31,-1
.LVL1630:
	mr 29,27
.LVL1631:
.L582:
	cmpwi 7,29,0
	blt- 7,.L3728
	.loc 1 1219 0 discriminator 2
	mr 3,29
	addi 29,29,-1
.LVL1632:
	bl UploadVertexPNT2_Array
.LVL1633:
	b .L582
.L3728:
	.loc 1 1219 0 discriminator 3
	cmpwi 7,28,0
	beq+ 7,.L581
	.loc 1 1219 0 discriminator 1
	mr 3,27
	bl UploadVertexPNT2_Array
.LVL1634:
.L581:
	.loc 1 1219 0 discriminator 2
	cmpwi 7,30,0
	bne- 7,$+8
	b .L2469
	.loc 1 1219 0
	li 30,0
.L585:
.LVL1635:
	.loc 1 1219 0 discriminator 1
	cmpw 7,30,31
	bge- 7,.L3729
	.loc 1 1219 0 discriminator 2
	mr 3,30
	addi 30,30,1
.LVL1636:
	bl UploadVertexPNT2_Array
.LVL1637:
	b .L585
.L3729:
	.loc 1 1219 0 discriminator 3
	cmpwi 7,28,0
	bne- 7,$+8
	b .L2469
	.loc 1 1219 0 discriminator 1
	li 3,0
	bl UploadVertexPNT2_Array
.LVL1638:
	b .L2469
.LVL1639:
.L579:
	.loc 1 1219 0 discriminator 2
	lwz 9,_GLtype@l(27)
.LVL1640:
	cmpwi 7,9,8
	beq- 7,$+8
	b .L2469
	.loc 1 1219 0 discriminator 1
	cmpwi 7,30,0
	bne- 7,.L587
.LVL1641:
.L591:
	.loc 1 1219 0
	cmpwi 7,29,0
	bne- 7,$+8
	b .L2469
	srawi 31,31,1
	addze 31,31
.LVL1642:
	li 30,0
	li 29,1
	b .L592
.LVL1643:
.L587:
	srawi 27,31,1
	addze 27,27
	li 30,0
	li 28,1
.LVL1644:
.L589:
	.loc 1 1219 0 discriminator 1
	cmpw 7,27,28
	ble- 7,.L591
	.loc 1 1219 0 discriminator 2
	mr 3,30
	slwi 26,28,1
	bl UploadVertexPNT2_Array
.LVL1645:
	addi 3,30,1
	bl UploadVertexPNT2_Array
.LVL1646:
	addi 3,30,3
	bl UploadVertexPNT2_Array
.LVL1647:
	mr 3,26
	addi 28,28,1
.LVL1648:
	bl UploadVertexPNT2_Array
.LVL1649:
	addi 30,30,2
	b .L589
.LVL1650:
.L592:
	.loc 1 1219 0 discriminator 1
	cmpw 7,31,29
	bgt+ 7,$+8
	b .L2469
	.loc 1 1219 0 discriminator 2
	mr 3,30
	bl UploadVertexPNT2_Array
.LVL1651:
	slwi 3,29,1
	bl UploadVertexPNT2_Array
.LVL1652:
	addi 3,30,3
	bl UploadVertexPNT2_Array
.LVL1653:
	addi 3,30,1
	addi 29,29,1
.LVL1654:
	bl UploadVertexPNT2_Array
.LVL1655:
	addi 30,30,2
	b .L592
.LVL1656:
.L578:
	cmpwi 7,9,3
	bne+ 7,.L594
.LVL1657:
	.loc 1 1219 0 discriminator 1
	bne- 4,.L595
	cmpwi 7,29,0
	beq- 7,.L597
	addi 27,31,-1
.LVL1658:
	mr 29,27
.LVL1659:
.L598:
	cmpwi 7,29,0
	blt- 7,.L3730
	.loc 1 1219 0 discriminator 2
	mr 3,29
	addi 29,29,-1
.LVL1660:
	bl UploadVertexPNT3_Array
.LVL1661:
	b .L598
.L3730:
	.loc 1 1219 0 discriminator 3
	cmpwi 7,28,0
	beq+ 7,.L597
	.loc 1 1219 0 discriminator 1
	mr 3,27
	bl UploadVertexPNT3_Array
.LVL1662:
.L597:
	.loc 1 1219 0 discriminator 2
	cmpwi 7,30,0
	bne- 7,$+8
	b .L2469
	.loc 1 1219 0
	li 30,0
.L601:
.LVL1663:
	.loc 1 1219 0 discriminator 1
	cmpw 7,30,31
	bge- 7,.L3731
	.loc 1 1219 0 discriminator 2
	mr 3,30
	addi 30,30,1
.LVL1664:
	bl UploadVertexPNT3_Array
.LVL1665:
	b .L601
.L3731:
	.loc 1 1219 0 discriminator 3
	cmpwi 7,28,0
	bne- 7,$+8
	b .L2469
	.loc 1 1219 0 discriminator 1
	li 3,0
	bl UploadVertexPNT3_Array
.LVL1666:
	b .L2469
.LVL1667:
.L595:
	.loc 1 1219 0 discriminator 2
	lwz 9,_GLtype@l(27)
.LVL1668:
	cmpwi 7,9,8
	beq- 7,$+8
	b .L2469
	.loc 1 1219 0 discriminator 1
	cmpwi 7,30,0
	bne- 7,.L603
.LVL1669:
.L607:
	.loc 1 1219 0
	cmpwi 7,29,0
	bne- 7,$+8
	b .L2469
	srawi 31,31,1
	addze 31,31
.LVL1670:
	li 30,0
	li 29,1
	b .L608
.LVL1671:
.L603:
	srawi 27,31,1
	addze 27,27
	li 30,0
	li 28,1
.LVL1672:
.L605:
	.loc 1 1219 0 discriminator 1
	cmpw 7,27,28
	ble- 7,.L607
	.loc 1 1219 0 discriminator 2
	mr 3,30
	slwi 26,28,1
	bl UploadVertexPNT3_Array
.LVL1673:
	addi 3,30,1
	bl UploadVertexPNT3_Array
.LVL1674:
	addi 3,30,3
	bl UploadVertexPNT3_Array
.LVL1675:
	mr 3,26
	addi 28,28,1
.LVL1676:
	bl UploadVertexPNT3_Array
.LVL1677:
	addi 30,30,2
	b .L605
.LVL1678:
.L608:
	.loc 1 1219 0 discriminator 1
	cmpw 7,31,29
	bgt+ 7,$+8
	b .L2469
	.loc 1 1219 0 discriminator 2
	mr 3,30
	bl UploadVertexPNT3_Array
.LVL1679:
	slwi 3,29,1
	bl UploadVertexPNT3_Array
.LVL1680:
	addi 3,30,3
	bl UploadVertexPNT3_Array
.LVL1681:
	addi 3,30,1
	addi 29,29,1
.LVL1682:
	bl UploadVertexPNT3_Array
.LVL1683:
	addi 30,30,2
	b .L608
.LVL1684:
.L594:
	cmpwi 7,9,4
	bne+ 7,.L610
.LVL1685:
	.loc 1 1219 0 discriminator 1
	bne- 4,.L611
	cmpwi 7,29,0
	beq- 7,.L613
	addi 27,31,-1
.LVL1686:
	mr 29,27
.LVL1687:
.L614:
	cmpwi 7,29,0
	blt- 7,.L3732
	.loc 1 1219 0 discriminator 2
	mr 3,29
	addi 29,29,-1
.LVL1688:
	bl UploadVertexPNT4_Array
.LVL1689:
	b .L614
.L3732:
	.loc 1 1219 0 discriminator 3
	cmpwi 7,28,0
	beq+ 7,.L613
	.loc 1 1219 0 discriminator 1
	mr 3,27
	bl UploadVertexPNT4_Array
.LVL1690:
.L613:
	.loc 1 1219 0 discriminator 2
	cmpwi 7,30,0
	bne- 7,$+8
	b .L2469
	.loc 1 1219 0
	li 30,0
.L617:
.LVL1691:
	.loc 1 1219 0 discriminator 1
	cmpw 7,30,31
	bge- 7,.L3733
	.loc 1 1219 0 discriminator 2
	mr 3,30
	addi 30,30,1
.LVL1692:
	bl UploadVertexPNT4_Array
.LVL1693:
	b .L617
.L3733:
	.loc 1 1219 0 discriminator 3
	cmpwi 7,28,0
	bne- 7,$+8
	b .L2469
	.loc 1 1219 0 discriminator 1
	li 3,0
	bl UploadVertexPNT4_Array
.LVL1694:
	b .L2469
.LVL1695:
.L611:
	.loc 1 1219 0 discriminator 2
	lwz 9,_GLtype@l(27)
.LVL1696:
	cmpwi 7,9,8
	beq- 7,$+8
	b .L2469
	.loc 1 1219 0 discriminator 1
	cmpwi 7,30,0
	bne- 7,.L619
.LVL1697:
.L623:
	.loc 1 1219 0
	cmpwi 7,29,0
	bne- 7,$+8
	b .L2469
	srawi 31,31,1
	addze 31,31
.LVL1698:
	li 30,0
	li 29,1
	b .L624
.LVL1699:
.L619:
	srawi 27,31,1
	addze 27,27
	li 30,0
	li 28,1
.LVL1700:
.L621:
	.loc 1 1219 0 discriminator 1
	cmpw 7,27,28
	ble- 7,.L623
	.loc 1 1219 0 discriminator 2
	mr 3,30
	slwi 26,28,1
	bl UploadVertexPNT4_Array
.LVL1701:
	addi 3,30,1
	bl UploadVertexPNT4_Array
.LVL1702:
	addi 3,30,3
	bl UploadVertexPNT4_Array
.LVL1703:
	mr 3,26
	addi 28,28,1
.LVL1704:
	bl UploadVertexPNT4_Array
.LVL1705:
	addi 30,30,2
	b .L621
.LVL1706:
.L624:
	.loc 1 1219 0 discriminator 1
	cmpw 7,31,29
	bgt+ 7,$+8
	b .L2469
	.loc 1 1219 0 discriminator 2
	mr 3,30
	bl UploadVertexPNT4_Array
.LVL1707:
	slwi 3,29,1
	bl UploadVertexPNT4_Array
.LVL1708:
	addi 3,30,3
	bl UploadVertexPNT4_Array
.LVL1709:
	addi 3,30,1
	addi 29,29,1
.LVL1710:
	bl UploadVertexPNT4_Array
.LVL1711:
	addi 30,30,2
	b .L624
.LVL1712:
.L610:
	cmpwi 7,9,5
	bne+ 7,.L626
.LVL1713:
	.loc 1 1219 0 discriminator 1
	bne- 4,.L627
	cmpwi 7,29,0
	beq- 7,.L629
	addi 27,31,-1
.LVL1714:
	mr 29,27
.LVL1715:
.L630:
	cmpwi 7,29,0
	blt- 7,.L3734
	.loc 1 1219 0 discriminator 2
	mr 3,29
	addi 29,29,-1
.LVL1716:
	bl UploadVertexPNT5_Array
.LVL1717:
	b .L630
.L3734:
	.loc 1 1219 0 discriminator 3
	cmpwi 7,28,0
	beq+ 7,.L629
	.loc 1 1219 0 discriminator 1
	mr 3,27
	bl UploadVertexPNT5_Array
.LVL1718:
.L629:
	.loc 1 1219 0 discriminator 2
	cmpwi 7,30,0
	bne- 7,$+8
	b .L2469
	.loc 1 1219 0
	li 30,0
.L633:
.LVL1719:
	.loc 1 1219 0 discriminator 1
	cmpw 7,30,31
	bge- 7,.L3735
	.loc 1 1219 0 discriminator 2
	mr 3,30
	addi 30,30,1
.LVL1720:
	bl UploadVertexPNT5_Array
.LVL1721:
	b .L633
.L3735:
	.loc 1 1219 0 discriminator 3
	cmpwi 7,28,0
	bne- 7,$+8
	b .L2469
	.loc 1 1219 0 discriminator 1
	li 3,0
	bl UploadVertexPNT5_Array
.LVL1722:
	b .L2469
.LVL1723:
.L627:
	.loc 1 1219 0 discriminator 2
	lwz 9,_GLtype@l(27)
.LVL1724:
	cmpwi 7,9,8
	beq- 7,$+8
	b .L2469
	.loc 1 1219 0 discriminator 1
	cmpwi 7,30,0
	bne- 7,.L635
.LVL1725:
.L639:
	.loc 1 1219 0
	cmpwi 7,29,0
	bne- 7,$+8
	b .L2469
	srawi 31,31,1
	addze 31,31
.LVL1726:
	li 30,0
	li 29,1
	b .L640
.LVL1727:
.L635:
	srawi 27,31,1
	addze 27,27
	li 30,0
	li 28,1
.LVL1728:
.L637:
	.loc 1 1219 0 discriminator 1
	cmpw 7,27,28
	ble- 7,.L639
	.loc 1 1219 0 discriminator 2
	mr 3,30
	slwi 26,28,1
	bl UploadVertexPNT5_Array
.LVL1729:
	addi 3,30,1
	bl UploadVertexPNT5_Array
.LVL1730:
	addi 3,30,3
	bl UploadVertexPNT5_Array
.LVL1731:
	mr 3,26
	addi 28,28,1
.LVL1732:
	bl UploadVertexPNT5_Array
.LVL1733:
	addi 30,30,2
	b .L637
.LVL1734:
.L640:
	.loc 1 1219 0 discriminator 1
	cmpw 7,31,29
	bgt+ 7,$+8
	b .L2469
	.loc 1 1219 0 discriminator 2
	mr 3,30
	bl UploadVertexPNT5_Array
.LVL1735:
	slwi 3,29,1
	bl UploadVertexPNT5_Array
.LVL1736:
	addi 3,30,3
	bl UploadVertexPNT5_Array
.LVL1737:
	addi 3,30,1
	addi 29,29,1
.LVL1738:
	bl UploadVertexPNT5_Array
.LVL1739:
	addi 30,30,2
	b .L640
.LVL1740:
.L626:
	cmpwi 7,9,6
	bne+ 7,.L642
.LVL1741:
	.loc 1 1219 0 discriminator 1
	bne- 4,.L643
	cmpwi 7,29,0
	beq- 7,.L645
	addi 27,31,-1
.LVL1742:
	mr 29,27
.LVL1743:
.L646:
	cmpwi 7,29,0
	blt- 7,.L3736
	.loc 1 1219 0 discriminator 2
	mr 3,29
	addi 29,29,-1
.LVL1744:
	bl UploadVertexPNT6_Array
.LVL1745:
	b .L646
.L3736:
	.loc 1 1219 0 discriminator 3
	cmpwi 7,28,0
	beq+ 7,.L645
	.loc 1 1219 0 discriminator 1
	mr 3,27
	bl UploadVertexPNT6_Array
.LVL1746:
.L645:
	.loc 1 1219 0 discriminator 2
	cmpwi 7,30,0
	bne- 7,$+8
	b .L2469
	.loc 1 1219 0
	li 30,0
.L649:
.LVL1747:
	.loc 1 1219 0 discriminator 1
	cmpw 7,30,31
	bge- 7,.L3737
	.loc 1 1219 0 discriminator 2
	mr 3,30
	addi 30,30,1
.LVL1748:
	bl UploadVertexPNT6_Array
.LVL1749:
	b .L649
.L3737:
	.loc 1 1219 0 discriminator 3
	cmpwi 7,28,0
	bne- 7,$+8
	b .L2469
	.loc 1 1219 0 discriminator 1
	li 3,0
	bl UploadVertexPNT6_Array
.LVL1750:
	b .L2469
.LVL1751:
.L643:
	.loc 1 1219 0 discriminator 2
	lwz 9,_GLtype@l(27)
.LVL1752:
	cmpwi 7,9,8
	beq- 7,$+8
	b .L2469
	.loc 1 1219 0 discriminator 1
	cmpwi 7,30,0
	bne- 7,.L651
.LVL1753:
.L655:
	.loc 1 1219 0
	cmpwi 7,29,0
	bne- 7,$+8
	b .L2469
	srawi 31,31,1
	addze 31,31
.LVL1754:
	li 30,0
	li 29,1
	b .L656
.LVL1755:
.L651:
	srawi 27,31,1
	addze 27,27
	li 30,0
	li 28,1
.LVL1756:
.L653:
	.loc 1 1219 0 discriminator 1
	cmpw 7,27,28
	ble- 7,.L655
	.loc 1 1219 0 discriminator 2
	mr 3,30
	slwi 26,28,1
	bl UploadVertexPNT6_Array
.LVL1757:
	addi 3,30,1
	bl UploadVertexPNT6_Array
.LVL1758:
	addi 3,30,3
	bl UploadVertexPNT6_Array
.LVL1759:
	mr 3,26
	addi 28,28,1
.LVL1760:
	bl UploadVertexPNT6_Array
.LVL1761:
	addi 30,30,2
	b .L653
.LVL1762:
.L656:
	.loc 1 1219 0 discriminator 1
	cmpw 7,31,29
	bgt+ 7,$+8
	b .L2469
	.loc 1 1219 0 discriminator 2
	mr 3,30
	bl UploadVertexPNT6_Array
.LVL1763:
	slwi 3,29,1
	bl UploadVertexPNT6_Array
.LVL1764:
	addi 3,30,3
	bl UploadVertexPNT6_Array
.LVL1765:
	addi 3,30,1
	addi 29,29,1
.LVL1766:
	bl UploadVertexPNT6_Array
.LVL1767:
	addi 30,30,2
	b .L656
.LVL1768:
.L642:
	cmpwi 7,9,7
	beq- 7,$+8
	b .L410
.LVL1769:
	.loc 1 1219 0 discriminator 1
	bne- 4,.L658
	cmpwi 7,29,0
	beq- 7,.L660
	addi 27,31,-1
.LVL1770:
	mr 29,27
.LVL1771:
.L661:
	cmpwi 7,29,0
	blt- 7,.L3738
	.loc 1 1219 0 discriminator 2
	mr 3,29
	addi 29,29,-1
.LVL1772:
	bl UploadVertexPNT7_Array
.LVL1773:
	b .L661
.L3738:
	.loc 1 1219 0 discriminator 3
	cmpwi 7,28,0
	beq+ 7,.L660
	.loc 1 1219 0 discriminator 1
	mr 3,27
	bl UploadVertexPNT7_Array
.LVL1774:
.L660:
	.loc 1 1219 0 discriminator 2
	cmpwi 7,30,0
	bne- 7,$+8
	b .L2469
	.loc 1 1219 0
	li 30,0
.L664:
.LVL1775:
	.loc 1 1219 0 discriminator 1
	cmpw 7,30,31
	bge- 7,.L3739
	.loc 1 1219 0 discriminator 2
	mr 3,30
	addi 30,30,1
.LVL1776:
	bl UploadVertexPNT7_Array
.LVL1777:
	b .L664
.L3739:
	.loc 1 1219 0 discriminator 3
	cmpwi 7,28,0
	bne- 7,$+8
	b .L2469
	.loc 1 1219 0 discriminator 1
	li 3,0
	bl UploadVertexPNT7_Array
.LVL1778:
	b .L2469
.LVL1779:
.L658:
	.loc 1 1219 0 discriminator 2
	lwz 9,_GLtype@l(27)
.LVL1780:
	cmpwi 7,9,8
	beq- 7,$+8
	b .L2469
	.loc 1 1219 0 discriminator 1
	cmpwi 7,30,0
	bne- 7,.L666
.LVL1781:
.L670:
	.loc 1 1219 0
	cmpwi 7,29,0
	bne- 7,$+8
	b .L2469
	srawi 31,31,1
	addze 31,31
.LVL1782:
	li 30,0
	li 29,1
	b .L671
.LVL1783:
.L666:
	srawi 27,31,1
	addze 27,27
	li 30,0
	li 28,1
.LVL1784:
.L668:
	.loc 1 1219 0 discriminator 1
	cmpw 7,27,28
	ble- 7,.L670
	.loc 1 1219 0 discriminator 2
	mr 3,30
	slwi 26,28,1
	bl UploadVertexPNT7_Array
.LVL1785:
	addi 3,30,1
	bl UploadVertexPNT7_Array
.LVL1786:
	addi 3,30,3
	bl UploadVertexPNT7_Array
.LVL1787:
	mr 3,26
	addi 28,28,1
.LVL1788:
	bl UploadVertexPNT7_Array
.LVL1789:
	addi 30,30,2
	b .L668
.LVL1790:
.L671:
	.loc 1 1219 0 discriminator 1
	cmpw 7,31,29
	bgt+ 7,$+8
	b .L2469
	.loc 1 1219 0 discriminator 2
	mr 3,30
	bl UploadVertexPNT7_Array
.LVL1791:
	slwi 3,29,1
	bl UploadVertexPNT7_Array
.LVL1792:
	addi 3,30,3
	bl UploadVertexPNT7_Array
.LVL1793:
	addi 3,30,1
	addi 29,29,1
.LVL1794:
	bl UploadVertexPNT7_Array
.LVL1795:
	addi 30,30,2
	b .L671
.LVL1796:
.L415:
	.loc 1 1219 0 discriminator 1
	bne- 7,.L673
.LVL1797:
	bne- 4,.L674
	cmpwi 7,29,0
	beq- 7,.L676
	addi 27,31,-1
.LVL1798:
	mr 29,27
.LVL1799:
.L677:
	cmpwi 7,29,0
	blt- 7,.L3740
	.loc 1 1219 0 discriminator 2
	mr 3,29
	addi 29,29,-1
.LVL1800:
	bl UploadVertexPCT0_Array
.LVL1801:
	b .L677
.L3740:
	.loc 1 1219 0 discriminator 3
	cmpwi 7,28,0
	beq+ 7,.L676
	.loc 1 1219 0 discriminator 1
	mr 3,27
	bl UploadVertexPCT0_Array
.LVL1802:
.L676:
	.loc 1 1219 0 discriminator 2
	cmpwi 7,30,0
	bne- 7,$+8
	b .L2469
	.loc 1 1219 0
	li 30,0
.L680:
.LVL1803:
	.loc 1 1219 0 discriminator 1
	cmpw 7,30,31
	bge- 7,.L3741
	.loc 1 1219 0 discriminator 2
	mr 3,30
	addi 30,30,1
.LVL1804:
	bl UploadVertexPCT0_Array
.LVL1805:
	b .L680
.L3741:
	.loc 1 1219 0 discriminator 3
	cmpwi 7,28,0
	bne- 7,$+8
	b .L2469
	.loc 1 1219 0 discriminator 1
	li 3,0
	bl UploadVertexPCT0_Array
.LVL1806:
	b .L2469
.LVL1807:
.L674:
	.loc 1 1219 0 discriminator 2
	lwz 9,_GLtype@l(27)
.LVL1808:
	cmpwi 7,9,8
	beq- 7,$+8
	b .L2469
	.loc 1 1219 0 discriminator 1
	cmpwi 7,30,0
	bne- 7,.L682
.LVL1809:
.L686:
	.loc 1 1219 0
	cmpwi 7,29,0
	bne- 7,$+8
	b .L2469
	srawi 31,31,1
	addze 31,31
.LVL1810:
	li 30,0
	li 29,1
	b .L687
.LVL1811:
.L682:
	srawi 27,31,1
	addze 27,27
	li 30,0
	li 28,1
.LVL1812:
.L684:
	.loc 1 1219 0 discriminator 1
	cmpw 7,27,28
	ble- 7,.L686
	.loc 1 1219 0 discriminator 2
	mr 3,30
	slwi 26,28,1
	bl UploadVertexPCT0_Array
.LVL1813:
	addi 3,30,1
	bl UploadVertexPCT0_Array
.LVL1814:
	addi 3,30,3
	bl UploadVertexPCT0_Array
.LVL1815:
	mr 3,26
	addi 28,28,1
.LVL1816:
	bl UploadVertexPCT0_Array
.LVL1817:
	addi 30,30,2
	b .L684
.LVL1818:
.L687:
	.loc 1 1219 0 discriminator 1
	cmpw 7,31,29
	bgt+ 7,$+8
	b .L2469
	.loc 1 1219 0 discriminator 2
	mr 3,30
	bl UploadVertexPCT0_Array
.LVL1819:
	slwi 3,29,1
	bl UploadVertexPCT0_Array
.LVL1820:
	addi 3,30,3
	bl UploadVertexPCT0_Array
.LVL1821:
	addi 3,30,1
	addi 29,29,1
.LVL1822:
	bl UploadVertexPCT0_Array
.LVL1823:
	addi 30,30,2
	b .L687
.LVL1824:
.L673:
	cmpwi 7,9,1
	bne+ 7,.L689
.LVL1825:
	.loc 1 1219 0 discriminator 1
	bne- 4,.L690
	cmpwi 7,29,0
	beq- 7,.L692
	addi 27,31,-1
.LVL1826:
	mr 29,27
.LVL1827:
.L693:
	cmpwi 7,29,0
	blt- 7,.L3742
	.loc 1 1219 0 discriminator 2
	mr 3,29
	addi 29,29,-1
.LVL1828:
	bl UploadVertexPCT1_Array
.LVL1829:
	b .L693
.L3742:
	.loc 1 1219 0 discriminator 3
	cmpwi 7,28,0
	beq+ 7,.L692
	.loc 1 1219 0 discriminator 1
	mr 3,27
	bl UploadVertexPCT1_Array
.LVL1830:
.L692:
	.loc 1 1219 0 discriminator 2
	cmpwi 7,30,0
	bne- 7,$+8
	b .L2469
	.loc 1 1219 0
	li 30,0
.L696:
.LVL1831:
	.loc 1 1219 0 discriminator 1
	cmpw 7,30,31
	bge- 7,.L3743
	.loc 1 1219 0 discriminator 2
	mr 3,30
	addi 30,30,1
.LVL1832:
	bl UploadVertexPCT1_Array
.LVL1833:
	b .L696
.L3743:
	.loc 1 1219 0 discriminator 3
	cmpwi 7,28,0
	bne- 7,$+8
	b .L2469
	.loc 1 1219 0 discriminator 1
	li 3,0
	bl UploadVertexPCT1_Array
.LVL1834:
	b .L2469
.LVL1835:
.L690:
	.loc 1 1219 0 discriminator 2
	lwz 9,_GLtype@l(27)
.LVL1836:
	cmpwi 7,9,8
	beq- 7,$+8
	b .L2469
	.loc 1 1219 0 discriminator 1
	cmpwi 7,30,0
