	.file	"gl_stacks.c"
	.section	".text"
.Ltext0:
	.cfi_sections	.debug_frame
	.align 2
	.type	pushAccum, @function
pushAccum:
.LFB64:
	.file 1 "D:/devkitPro/portlibs/thirdparty/gl2gx/libogc/../source/gl_stacks.c"
	.loc 1 18 0
	.cfi_startproc
.LVL0:
	.loc 1 21 0
	lwz 9,0(3)
	addi 9,9,16
	cmplw 7,9,4
	bgt- 7,.L3
	.loc 1 23 0
	stw 9,0(3)
	.loc 1 25 0
	li 3,1
.LVL1:
	blr
.LVL2:
.L3:
	.loc 1 21 0
	li 3,0
.LVL3:
	.loc 1 26 0
	blr
	.cfi_endproc
.LFE64:
	.size	pushAccum, .-pushAccum
	.align 2
	.type	popAccum, @function
popAccum:
.LFB65:
	.loc 1 29 0
	.cfi_startproc
.LVL4:
	.loc 1 32 0
	lwz 9,0(3)
	addi 9,9,-16
	stw 9,0(3)
	blr
	.cfi_endproc
.LFE65:
	.size	popAccum, .-popAccum
	.align 2
	.type	pushColorBuffer, @function
pushColorBuffer:
.LFB66:
	.loc 1 77 0
	.cfi_startproc
.LVL5:
	.loc 1 80 0
	lwz 9,0(3)
	addi 10,9,44
	cmplw 7,10,4
	bgt- 7,.L8
	.loc 1 82 0
	lis 10,blend_type@ha
	.loc 1 88 0
	lis 8,color_write_mask@ha
	.loc 1 82 0
	lbz 10,blend_type@l(10)
	.loc 1 88 0
	lbz 7,color_write_mask@l(8)
	.loc 1 82 0
	stb 10,16(9)
	.loc 1 83 0
	lis 10,blend_src@ha
	lbz 10,blend_src@l(10)
	.loc 1 88 0
	rlwinm 7,7,3,28,28
	.loc 1 83 0
	lwz 9,0(3)
	stb 10,17(9)
	.loc 1 84 0
	lis 10,blend_dst@ha
	lbz 10,blend_dst@l(10)
	lwz 9,0(3)
	stb 10,18(9)
	.loc 1 85 0
	lis 10,blend_op@ha
	lbz 10,blend_op@l(10)
	lwz 9,0(3)
	stb 10,19(9)
	.loc 1 87 0
	lis 10,_clearcolor@ha
	lwz 10,_clearcolor@l(10)
	lwz 9,0(3)
	stw 10,40(9)
	.loc 1 88 0
	la 10,color_write_mask@l(8)
	lwz 9,0(3)
	lbz 8,0(9)
	rlwinm 8,8,0,29,27
	or 8,8,7
	stb 8,0(9)
	.loc 1 89 0
	lwz 9,0(3)
	lbz 7,1(10)
	lbz 8,0(9)
	rlwinm 7,7,2,29,29
	rlwinm 8,8,0,30,28
	or 8,8,7
	stb 8,0(9)
	.loc 1 90 0
	lwz 9,0(3)
	lbz 7,2(10)
	lbz 8,0(9)
	rlwinm 7,7,1,30,30
	rlwinm 8,8,0,31,29
	or 8,8,7
	stb 8,0(9)
	.loc 1 91 0
	lwz 9,0(3)
	addi 8,9,44
	stw 8,0(3)
	.loc 1 93 0
	li 3,1
.LVL6:
	.loc 1 91 0
	lbz 8,3(10)
	lbz 10,0(9)
	rlwinm 8,8,0,31,31
	rlwinm 10,10,0,0,30
	or 10,10,8
	stb 10,0(9)
	.loc 1 93 0
	blr
.LVL7:
.L8:
	.loc 1 80 0
	li 3,0
.LVL8:
	.loc 1 94 0
	blr
	.cfi_endproc
.LFE66:
	.size	pushColorBuffer, .-pushColorBuffer
	.align 2
	.type	popColorBuffer, @function
popColorBuffer:
.LFB67:
	.loc 1 97 0
	.cfi_startproc
.LVL9:
	.loc 1 100 0
	lwz 9,0(3)
	addi 10,9,-44
	stw 10,0(3)
	.loc 1 102 0
	lbz 10,-28(9)
	lis 9,blend_type@ha
	stb 10,blend_type@l(9)
	.loc 1 103 0
	lwz 9,0(3)
	lbz 10,17(9)
	lis 9,blend_src@ha
	stb 10,blend_src@l(9)
	.loc 1 104 0
	lwz 9,0(3)
	lbz 10,18(9)
	lis 9,blend_dst@ha
	stb 10,blend_dst@l(9)
	.loc 1 105 0
	lwz 9,0(3)
	lbz 10,19(9)
	lis 9,blend_op@ha
	stb 10,blend_op@l(9)
	.loc 1 107 0
	lwz 9,0(3)
	lwz 10,40(9)
	lis 9,_clearcolor@ha
	stw 10,_clearcolor@l(9)
	.loc 1 108 0
	lis 10,color_write_mask@ha
	la 9,color_write_mask@l(10)
	lwz 8,0(3)
	lwz 8,0(8)
	rlwinm 8,8,5,31,31
	stb 8,color_write_mask@l(10)
	.loc 1 109 0
	lwz 10,0(3)
	lwz 10,0(10)
	rlwinm 10,10,6,31,31
	stb 10,1(9)
	.loc 1 110 0
	lwz 10,0(3)
	lwz 10,0(10)
	rlwinm 10,10,7,31,31
	stb 10,2(9)
	.loc 1 111 0
	lwz 10,0(3)
	lbz 10,0(10)
	rlwinm 10,10,0,31,31
	stb 10,3(9)
	blr
	.cfi_endproc
.LFE67:
	.size	popColorBuffer, .-popColorBuffer
	.align 2
	.type	popCurrent, @function
popCurrent:
.LFB69:
	.loc 1 162 0
	.cfi_startproc
.LVL10:
	.loc 1 165 0
	lwz 5,0(3)
	addi 9,5,-200
	.loc 1 167 0
	addi 10,5,-192
	.loc 1 165 0
	stw 9,0(3)
	.loc 1 167 0
	lis 9,_tempcolorelement@ha
	la 9,_tempcolorelement@l(9)
	lswi 5,10,16
	stswi 5,9,16
	.loc 1 168 0
	lis 9,_tempnormalelement@ha
	la 9,_tempnormalelement@l(9)
	lwz 10,0(3)
	addi 10,10,24
	lswi 5,10,12
	stswi 5,9,12
.LVL11:
	.loc 1 171 0
	li 10,8
	lis 8,_temptexcoordelement-8@ha
	mtctr 10
	la 8,_temptexcoordelement-8@l(8)
	li 9,0
.LVL12:
.L12:
	.loc 1 173 0 discriminator 2
	lwz 10,0(3)
	addi 7,9,4
	slwi 7,7,3
	.loc 1 171 0 discriminator 2
	addi 9,9,1
.LVL13:
	.loc 1 173 0 discriminator 2
	add 10,10,7
	lwz 11,8(10)
	lwz 10,4(10)
	stwu 10,8(8)
	stw 11,4(8)
	.loc 1 171 0 discriminator 2
	bdnz .L12
	.loc 1 175 0
	blr
	.cfi_endproc
.LFE69:
	.size	popCurrent, .-popCurrent
	.align 2
	.type	pushDepthBuffer, @function
pushDepthBuffer:
.LFB70:
	.loc 1 191 0
	.cfi_startproc
.LVL14:
	.loc 1 194 0
	lwz 10,0(3)
	addi 9,10,8
	cmplw 7,9,4
	bgt- 7,.L16
	.loc 1 196 0
	lis 9,depthtestenabled@ha
	lbz 8,0(10)
	lbz 9,depthtestenabled@l(9)
	rlwinm 8,8,0,25,31
	xori 9,9,1
	cntlzw 9,9
	srwi 9,9,5
	slwi 9,9,7
	or 9,8,9
	stb 9,0(10)
	.loc 1 197 0
	lis 9,depthupdate@ha
	lbz 9,depthupdate@l(9)
	lwz 10,0(3)
	xori 9,9,1
	lbz 8,0(10)
	cntlzw 9,9
	srwi 9,9,5
	rlwinm 8,8,0,26,24
	slwi 9,9,6
	or 9,8,9
	stb 9,0(10)
	.loc 1 198 0
	lis 10,depthfunction@ha
	lwz 9,0(3)
	lwz 10,depthfunction@l(10)
	stb 10,1(9)
	.loc 1 199 0
	lwz 9,0(3)
	addi 10,9,8
	stw 10,0(3)
	lis 10,_cleardepth@ha
	.loc 1 201 0
	li 3,1
.LVL15:
	.loc 1 199 0
	lfs 0,_cleardepth@l(10)
	stfs 0,4(9)
	.loc 1 201 0
	blr
.LVL16:
.L16:
	.loc 1 194 0
	li 3,0
.LVL17:
	.loc 1 202 0
	blr
	.cfi_endproc
.LFE70:
	.size	pushDepthBuffer, .-pushDepthBuffer
	.align 2
	.type	popDepthBuffer, @function
popDepthBuffer:
.LFB71:
	.loc 1 205 0
	.cfi_startproc
.LVL18:
	.loc 1 208 0
	lwz 9,0(3)
	addi 10,9,-8
	stw 10,0(3)
	.loc 1 210 0
	lwz 10,-8(9)
	lis 9,depthtestenabled@ha
	srwi 10,10,31
	stb 10,depthtestenabled@l(9)
	.loc 1 211 0
	lwz 9,0(3)
	lwz 10,0(9)
	lis 9,depthupdate@ha
	rlwinm 10,10,2,31,31
	stb 10,depthupdate@l(9)
	.loc 1 212 0
	lwz 9,0(3)
	lbz 10,1(9)
	lis 9,depthfunction@ha
	stw 10,depthfunction@l(9)
	.loc 1 213 0
	lwz 9,0(3)
	lfs 0,4(9)
	lis 9,_cleardepth@ha
	stfs 0,_cleardepth@l(9)
	blr
	.cfi_endproc
.LFE71:
	.size	popDepthBuffer, .-popDepthBuffer
	.align 2
	.type	pushEval, @function
pushEval:
.LFB74:
	.loc 1 343 0
	.cfi_startproc
.LVL19:
	.loc 1 346 0
	lwz 3,0(3)
.LVL20:
	.loc 1 351 0
	subfc 3,3,4
	li 3,0
	adde 3,3,3
	blr
	.cfi_endproc
.LFE74:
	.size	pushEval, .-pushEval
	.align 2
	.type	popEval, @function
popEval:
.LFB75:
	.loc 1 354 0
	.cfi_startproc
.LVL21:
	blr
	.cfi_endproc
.LFE75:
	.size	popEval, .-popEval
	.align 2
	.type	pushFog, @function
pushFog:
.LFB76:
	.loc 1 386 0
	.cfi_startproc
.LVL22:
	.loc 1 389 0
	lwz 9,0(3)
	addi 10,9,24
	cmplw 7,10,4
	bgt- 7,.L22
	.loc 1 391 0
	lis 10,fog_enable@ha
	lbz 8,fog_enable@l(10)
	lbz 10,0(9)
	slwi 8,8,7
	rlwinm 10,10,0,25,31
	or 10,10,8
	stb 10,0(9)
	.loc 1 392 0
	lis 10,fog_mode@ha
	lwz 9,0(3)
	lbz 10,fog_mode@l(10)
	stb 10,1(9)
	.loc 1 394 0
	lis 10,fog_startz@ha
	lwz 9,0(3)
	lfs 0,fog_startz@l(10)
	.loc 1 395 0
	lis 10,fog_endz@ha
	.loc 1 394 0
	stfs 0,8(9)
	.loc 1 395 0
	lfs 0,fog_endz@l(10)
	lwz 9,0(3)
	stfs 0,12(9)
	.loc 1 397 0
	lwz 9,0(3)
	addi 10,9,24
	stw 10,0(3)
	lis 10,fog_color@ha
	.loc 1 399 0
	li 3,1
.LVL23:
	.loc 1 397 0
	lwz 10,fog_color@l(10)
	stw 10,20(9)
	.loc 1 399 0
	blr
.LVL24:
.L22:
	.loc 1 389 0
	li 3,0
.LVL25:
	.loc 1 400 0
	blr
	.cfi_endproc
.LFE76:
	.size	pushFog, .-pushFog
	.align 2
	.type	popFog, @function
popFog:
.LFB77:
	.loc 1 403 0
	.cfi_startproc
.LVL26:
	.loc 1 406 0
	lwz 9,0(3)
	addi 10,9,-24
	stw 10,0(3)
	.loc 1 408 0
	lwz 10,-24(9)
	lis 9,fog_enable@ha
	srwi 10,10,31
	stb 10,fog_enable@l(9)
	.loc 1 409 0
	lwz 9,0(3)
	lbz 10,1(9)
	lis 9,fog_mode@ha
	stb 10,fog_mode@l(9)
	.loc 1 411 0
	lwz 9,0(3)
	lfs 0,8(9)
	lis 9,fog_startz@ha
	stfs 0,fog_startz@l(9)
	.loc 1 412 0
	lwz 9,0(3)
	lfs 0,12(9)
	lis 9,fog_endz@ha
	stfs 0,fog_endz@l(9)
	.loc 1 414 0
	lwz 9,0(3)
	lwz 10,20(9)
	lis 9,fog_color@ha
	stw 10,fog_color@l(9)
	blr
	.cfi_endproc
.LFE77:
	.size	popFog, .-popFog
	.align 2
	.type	pushHint, @function
pushHint:
.LFB78:
	.loc 1 427 0
	.cfi_startproc
.LVL27:
	.loc 1 430 0
	lwz 3,0(3)
.LVL28:
	.loc 1 435 0
	subfc 3,3,4
	li 3,0
	adde 3,3,3
	blr
	.cfi_endproc
.LFE78:
	.size	pushHint, .-pushHint
	.align 2
	.type	popHint, @function
popHint:
.LFB79:
	.loc 1 438 0
	.cfi_startproc
.LVL29:
	blr
	.cfi_endproc
.LFE79:
	.size	popHint, .-popHint
	.align 2
	.type	popLighting, @function
popLighting:
.LFB81:
	.loc 1 497 0
	.cfi_startproc
.LVL30:
	.loc 1 497 0
	mflr 0
	stwu 1,-24(1)
	.cfi_def_cfa_offset 24
	.cfi_register 65, 0
	stmw 29,12(1)
	.cfi_offset 29, -12
	.cfi_offset 30, -8
	.cfi_offset 31, -4
	.loc 1 511 0
	lis 29,lights@ha
	.loc 1 497 0
	stw 0,28(1)
	.cfi_offset 65, 4
	.loc 1 497 0
	mr 31,3
	.loc 1 509 0
	li 30,0
	.loc 1 511 0
	la 29,lights@l(29)
	.loc 1 500 0
	lwz 9,0(3)
	addi 10,9,-1412
	stw 10,0(3)
	.loc 1 502 0
	lwz 10,-1412(9)
	lis 9,copy_mat_enabled@ha
	srwi 10,10,31
	stb 10,copy_mat_enabled@l(9)
	.loc 1 503 0
	lwz 9,0(3)
	lwz 10,0(9)
	lis 9,lighting@ha
	rlwinm 10,10,2,31,31
	stb 10,lighting@l(9)
	.loc 1 504 0
	lwz 9,0(3)
	lwz 10,8(9)
	lis 9,copy_material@ha
	stw 10,copy_material@l(9)
	.loc 1 505 0
	lis 9,globAmbient@ha
	la 9,globAmbient@l(9)
	lwz 10,0(3)
	addi 10,10,12
	lswi 5,10,16
	stswi 5,9,16
.LVL31:
.L28:
	mulli 3,30,164
	.loc 1 511 0 discriminator 2
	lwz 4,0(31)
	li 5,164
	add 4,4,3
	add 3,29,3
	addi 4,4,28
	bl memcpy
.LVL32:
	.loc 1 509 0 discriminator 2
	cmpwi 7,30,7
	addi 30,30,1
.LVL33:
	bne+ 7,.L28
	.loc 1 514 0
	lwz 4,0(31)
	lis 3,curmat@ha
	la 3,curmat@l(3)
	li 5,68
	addi 4,4,1340
	bl memcpy
.LVL34:
	.loc 1 515 0
	addi 11,1,24
	b _restgpr_29_x
	.cfi_restore 31
	.cfi_restore 30
	.cfi_restore 29
	.cfi_restore 65
	.cfi_endproc
.LFE81:
	.size	popLighting, .-popLighting
	.align 2
	.type	pushLine, @function
pushLine:
.LFB82:
	.loc 1 531 0
	.cfi_startproc
.LVL35:
	.loc 1 534 0
	lwz 9,0(3)
	addi 10,9,16
	cmplw 7,10,4
	bgt- 7,.L32
	.loc 1 536 0
	stw 10,0(3)
	lis 10,line_width@ha
	.loc 1 538 0
	li 3,1
.LVL36:
	.loc 1 536 0
	lfs 0,line_width@l(10)
	stfs 0,12(9)
	.loc 1 538 0
	blr
.LVL37:
.L32:
	.loc 1 534 0
	li 3,0
.LVL38:
	.loc 1 539 0
	blr
	.cfi_endproc
.LFE82:
	.size	pushLine, .-pushLine
	.align 2
	.type	popLine, @function
popLine:
.LFB83:
	.loc 1 542 0
	.cfi_startproc
.LVL39:
	.loc 1 545 0
	lwz 9,0(3)
	addi 10,9,-16
	stw 10,0(3)
	.loc 1 547 0
	lfs 0,-4(9)
	lis 9,line_width@ha
	stfs 0,line_width@l(9)
	blr
	.cfi_endproc
.LFE83:
	.size	popLine, .-popLine
	.align 2
	.type	pushListBase, @function
pushListBase:
.LFB84:
	.loc 1 557 0
	.cfi_startproc
.LVL40:
	.loc 1 560 0
	lwz 9,0(3)
	addi 10,9,4
	cmplw 7,10,4
	bgt- 7,.L36
	.loc 1 562 0
	stw 10,0(3)
	lis 10,call_offset@ha
	.loc 1 564 0
	li 3,1
.LVL41:
	.loc 1 562 0
	lwz 10,call_offset@l(10)
	stw 10,0(9)
	.loc 1 564 0
	blr
.LVL42:
.L36:
	.loc 1 560 0
	li 3,0
.LVL43:
	.loc 1 565 0
	blr
	.cfi_endproc
.LFE84:
	.size	pushListBase, .-pushListBase
	.align 2
	.type	popListBase, @function
popListBase:
.LFB85:
	.loc 1 568 0
	.cfi_startproc
.LVL44:
	.loc 1 571 0
	lwz 9,0(3)
	addi 10,9,-4
	stw 10,0(3)
	.loc 1 573 0
	lwz 10,-4(9)
	lis 9,call_offset@ha
	stw 10,call_offset@l(9)
	blr
	.cfi_endproc
.LFE85:
	.size	popListBase, .-popListBase
	.align 2
	.type	pushPixelMode, @function
pushPixelMode:
.LFB86:
	.loc 1 605 0
	.cfi_startproc
.LVL45:
	.loc 1 608 0
	lwz 10,0(3)
	addi 9,10,64
	cmplw 7,9,4
	bgt- 7,.L40
	.loc 1 610 0
	lis 9,Trans@ha
	la 9,Trans@l(9)
	lwz 8,4(9)
	lwz 7,0(9)
	stw 8,8(10)
	stw 7,4(10)
	.loc 1 611 0
	lwz 10,0(3)
	lwz 7,8(9)
	lwz 8,12(9)
	stw 7,12(10)
	stw 8,16(10)
	.loc 1 612 0
	lwz 10,0(3)
	lwz 8,20(9)
	lwz 7,16(9)
	stw 8,24(10)
	stw 7,20(10)
	.loc 1 613 0
	lwz 8,0(3)
	lwz 10,24(9)
	lwz 11,28(9)
	stw 10,28(8)
	stw 11,32(8)
	.loc 1 614 0
	lwz 9,0(3)
	addi 10,9,64
	stw 10,0(3)
	lis 10,read_mode@ha
	.loc 1 616 0
	li 3,1
.LVL46:
	.loc 1 614 0
	lwz 10,read_mode@l(10)
	stw 10,60(9)
	.loc 1 616 0
	blr
.LVL47:
.L40:
	.loc 1 608 0
	li 3,0
.LVL48:
	.loc 1 617 0
	blr
	.cfi_endproc
.LFE86:
	.size	pushPixelMode, .-pushPixelMode
	.align 2
	.type	popPixelMode, @function
popPixelMode:
.LFB87:
	.loc 1 620 0
	.cfi_startproc
.LVL49:
	.loc 1 623 0
	lwz 10,0(3)
	addi 9,10,-64
	stw 9,0(3)
	.loc 1 625 0
	lis 9,Trans@ha
	la 9,Trans@l(9)
	lwz 7,-60(10)
	lwz 8,-56(10)
	stw 7,0(9)
	stw 8,4(9)
	.loc 1 626 0
	lwz 10,0(3)
	lwz 7,12(10)
	lwz 8,16(10)
	stw 7,8(9)
	stw 8,12(9)
	.loc 1 627 0
	lwz 10,0(3)
	lwz 7,20(10)
	lwz 8,24(10)
	stw 7,16(9)
	stw 8,20(9)
	.loc 1 628 0
	lwz 10,0(3)
	lwz 7,28(10)
	lwz 8,32(10)
	stw 7,24(9)
	stw 8,28(9)
	.loc 1 629 0
	lwz 9,0(3)
	lwz 10,60(9)
	lis 9,read_mode@ha
	stw 10,read_mode@l(9)
	blr
	.cfi_endproc
.LFE87:
	.size	popPixelMode, .-popPixelMode
	.align 2
	.type	pushPoint, @function
pushPoint:
.LFB88:
	.loc 1 642 0
	.cfi_startproc
.LVL50:
	.loc 1 645 0
	lwz 9,0(3)
	addi 10,9,8
	cmplw 7,10,4
	bgt- 7,.L44
	.loc 1 647 0
	stw 10,0(3)
	lis 10,point_size@ha
	.loc 1 649 0
	li 3,1
.LVL51:
	.loc 1 647 0
	lfs 0,point_size@l(10)
	stfs 0,4(9)
	.loc 1 649 0
	blr
.LVL52:
.L44:
	.loc 1 645 0
	li 3,0
.LVL53:
	.loc 1 650 0
	blr
	.cfi_endproc
.LFE88:
	.size	pushPoint, .-pushPoint
	.align 2
	.type	popPoint, @function
popPoint:
.LFB89:
	.loc 1 653 0
	.cfi_startproc
.LVL54:
	.loc 1 656 0
	lwz 9,0(3)
	addi 10,9,-8
	stw 10,0(3)
	.loc 1 658 0
	lfs 0,-4(9)
	lis 9,point_size@ha
	stfs 0,point_size@l(9)
	blr
	.cfi_endproc
.LFE89:
	.size	popPoint, .-popPoint
	.align 2
	.type	pushPolyStipple, @function
pushPolyStipple:
.LFB92:
	.loc 1 735 0
	.cfi_startproc
.LVL55:
	.loc 1 738 0
	lwz 9,0(3)
	addi 9,9,4
	cmplw 7,9,4
	bgt- 7,.L48
	.loc 1 740 0
	stw 9,0(3)
	.loc 1 742 0
	li 3,1
.LVL56:
	blr
.LVL57:
.L48:
	.loc 1 738 0
	li 3,0
.LVL58:
	.loc 1 743 0
	blr
	.cfi_endproc
.LFE92:
	.size	pushPolyStipple, .-pushPolyStipple
	.align 2
	.type	popPolyStipple, @function
popPolyStipple:
.LFB93:
	.loc 1 746 0
	.cfi_startproc
.LVL59:
	.loc 1 749 0
	lwz 9,0(3)
	addi 9,9,-4
	stw 9,0(3)
	blr
	.cfi_endproc
.LFE93:
	.size	popPolyStipple, .-popPolyStipple
	.align 2
	.type	pushScissor, @function
pushScissor:
.LFB94:
	.loc 1 761 0
	.cfi_startproc
.LVL60:
	.loc 1 764 0
	lwz 10,0(3)
	addi 9,10,20
	cmplw 7,9,4
	bgt- 7,.L52
	.loc 1 766 0
	lis 9,scissor_test@ha
	lbz 8,0(10)
	lbz 9,scissor_test@l(9)
	rlwinm 8,8,0,25,31
	xori 9,9,1
	cntlzw 9,9
	srwi 9,9,5
	slwi 9,9,7
	or 9,8,9
	stb 9,0(10)
	.loc 1 767 0
	lis 10,scissorInfo@ha
	la 10,scissorInfo@l(10)
	lwz 5,0(3)
	addi 9,5,20
	stw 9,0(3)
	addi 9,5,4
	.loc 1 769 0
	li 3,1
.LVL61:
	.loc 1 767 0
	lswi 5,10,16
	stswi 5,9,16
	.loc 1 769 0
	blr
.LVL62:
.L52:
	.loc 1 764 0
	li 3,0
.LVL63:
	.loc 1 770 0
	blr
	.cfi_endproc
.LFE94:
	.size	pushScissor, .-pushScissor
	.align 2
	.type	popScissor, @function
popScissor:
.LFB95:
	.loc 1 773 0
	.cfi_startproc
.LVL64:
	.loc 1 776 0
	lwz 9,0(3)
	addi 10,9,-20
	stw 10,0(3)
	.loc 1 778 0
	lwz 10,-20(9)
	lis 9,scissor_test@ha
	srwi 10,10,31
	stb 10,scissor_test@l(9)
	.loc 1 779 0
	lis 9,scissorInfo@ha
	la 9,scissorInfo@l(9)
	lwz 10,0(3)
	addi 10,10,4
	lswi 5,10,16
	stswi 5,9,16
	blr
	.cfi_endproc
.LFE95:
	.size	popScissor, .-popScissor
	.align 2
	.type	pushStencil, @function
pushStencil:
.LFB96:
	.loc 1 800 0
	.cfi_startproc
.LVL65:
	.loc 1 803 0
	lwz 9,0(3)
	addi 9,9,32
	cmplw 7,9,4
	bgt- 7,.L56
	.loc 1 805 0
	stw 9,0(3)
	.loc 1 807 0
	li 3,1
.LVL66:
	blr
.LVL67:
.L56:
	.loc 1 803 0
	li 3,0
.LVL68:
	.loc 1 808 0
	blr
	.cfi_endproc
.LFE96:
	.size	pushStencil, .-pushStencil
	.align 2
	.type	popStencil, @function
popStencil:
.LFB97:
	.loc 1 811 0
	.cfi_startproc
.LVL69:
	.loc 1 814 0
	lwz 9,0(3)
	addi 9,9,-32
	stw 9,0(3)
	blr
	.cfi_endproc
.LFE97:
	.size	popStencil, .-popStencil
	.align 2
	.type	popTexture, @function
popTexture:
.LFB99:
	.loc 1 853 0
	.cfi_startproc
.LVL70:
	mflr 0
	stwu 1,-24(1)
	.cfi_def_cfa_offset 24
	.cfi_register 65, 0
	stmw 28,8(1)
	.cfi_offset 28, -16
	.cfi_offset 29, -12
	.cfi_offset 30, -8
	.cfi_offset 31, -4
	lis 29,_temptexcoordelement-8@ha
	stw 0,28(1)
	.cfi_offset 65, 4
	.loc 1 863 0
	lis 28,glTexEnvs@ha
	.loc 1 853 0
	mr 30,3
	la 29,_temptexcoordelement-8@l(29)
	.loc 1 856 0
	lwz 9,0(3)
	.loc 1 860 0
	li 31,0
	.loc 1 863 0
	la 28,glTexEnvs@l(28)
	.loc 1 856 0
	addi 9,9,-928
	stw 9,0(3)
.LVL71:
.L60:
	.loc 1 862 0 discriminator 2
	lwz 9,0(30)
	slwi 10,31,3
	mulli 3,31,108
	.loc 1 863 0 discriminator 2
	li 5,108
	.loc 1 862 0 discriminator 2
	add 9,9,10
	lwz 10,0(9)
	lwz 11,4(9)
	stwu 10,8(29)
	stw 11,4(29)
	.loc 1 863 0 discriminator 2
	lwz 4,0(30)
	add 4,4,3
	add 3,28,3
	addi 4,4,64
	bl memcpy
.LVL72:
	.loc 1 860 0 discriminator 2
	cmpwi 7,31,7
	addi 31,31,1
.LVL73:
	bne+ 7,.L60
	.loc 1 865 0
	addi 11,1,24
	b _restgpr_28_x
	.cfi_restore 31
	.cfi_restore 30
	.cfi_restore 29
	.cfi_restore 28
	.cfi_restore 65
	.cfi_endproc
.LFE99:
	.size	popTexture, .-popTexture
	.align 2
	.type	pushTransform, @function
pushTransform:
.LFB100:
	.loc 1 886 0
	.cfi_startproc
.LVL74:
	.loc 1 889 0
	lwz 9,0(3)
	addi 10,9,104
	cmplw 7,10,4
	bgt- 7,.L64
	.loc 1 891 0
	stw 10,0(3)
	lis 10,cur_mode@ha
	.loc 1 893 0
	li 3,1
.LVL75:
	.loc 1 891 0
	lwz 10,cur_mode@l(10)
	stw 10,100(9)
	.loc 1 893 0
	blr
.LVL76:
.L64:
	.loc 1 889 0
	li 3,0
.LVL77:
	.loc 1 894 0
	blr
	.cfi_endproc
.LFE100:
	.size	pushTransform, .-pushTransform
	.align 2
	.type	popTransform, @function
popTransform:
.LFB101:
	.loc 1 897 0
	.cfi_startproc
.LVL78:
	.loc 1 900 0
	lwz 9,0(3)
	addi 10,9,-104
	stw 10,0(3)
	.loc 1 902 0
	lwz 10,-4(9)
	lis 9,cur_mode@ha
	stw 10,cur_mode@l(9)
	blr
	.cfi_endproc
.LFE101:
	.size	popTransform, .-popTransform
	.align 2
	.type	pushViewport, @function
pushViewport:
.LFB102:
	.loc 1 914 0
	.cfi_startproc
.LVL79:
	.loc 1 917 0
	lwz 9,0(3)
	addi 10,9,24
	cmplw 7,10,4
	bgt- 7,.L68
	.loc 1 919 0
	lis 10,normNear@ha
	lfs 0,normNear@l(10)
	.loc 1 920 0
	lis 10,normFar@ha
	.loc 1 919 0
	stfs 0,0(9)
	.loc 1 920 0
	lwz 9,0(3)
	lfs 0,normFar@l(10)
	.loc 1 921 0
	lis 10,viewPort@ha
	la 10,viewPort@l(10)
	.loc 1 920 0
	stfs 0,4(9)
	.loc 1 921 0
	lwz 5,0(3)
	addi 9,5,24
	stw 9,0(3)
	addi 9,5,8
	.loc 1 923 0
	li 3,1
.LVL80:
	.loc 1 921 0
	lswi 5,10,16
	stswi 5,9,16
	.loc 1 923 0
	blr
.LVL81:
.L68:
	.loc 1 917 0
	li 3,0
.LVL82:
	.loc 1 924 0
	blr
	.cfi_endproc
.LFE102:
	.size	pushViewport, .-pushViewport
	.align 2
	.type	popViewport, @function
popViewport:
.LFB103:
	.loc 1 927 0
	.cfi_startproc
.LVL83:
	.loc 1 930 0
	lwz 9,0(3)
	addi 10,9,-24
	stw 10,0(3)
	.loc 1 932 0
	lfs 0,-24(9)
	lis 9,normNear@ha
	stfs 0,normNear@l(9)
	.loc 1 933 0
	lwz 9,0(3)
	lfs 0,4(9)
	lis 9,normFar@ha
	stfs 0,normFar@l(9)
	.loc 1 934 0
	lis 9,viewPort@ha
	la 9,viewPort@l(9)
	lwz 10,0(3)
	addi 10,10,8
	lswi 5,10,16
	stswi 5,9,16
	blr
	.cfi_endproc
.LFE103:
	.size	popViewport, .-popViewport
	.align 2
	.type	pushPixelStore, @function
pushPixelStore:
.LFB112:
	.loc 1 1127 0
	.cfi_startproc
.LVL84:
	.loc 1 1130 0
	lwz 11,0(3)
	addi 9,11,40
	cmplw 7,9,4
	bgt- 7,.L72
	.loc 1 1132 0
	lis 4,pack@ha
.LVL85:
	la 4,pack@l(4)
	lswi 5,4,20
	stswi 5,11,20
	.loc 1 1133 0
	lwz 5,0(3)
	addi 9,5,40
	addi 4,5,20
	stw 9,0(3)
	lis 3,unpack@ha
.LVL86:
	la 3,unpack@l(3)
	lswi 5,3,20
	stswi 5,4,20
	.loc 1 1135 0
	li 3,1
	blr
.LVL87:
.L72:
	.loc 1 1130 0
	li 3,0
.LVL88:
	.loc 1 1136 0
	blr
	.cfi_endproc
.LFE112:
	.size	pushPixelStore, .-pushPixelStore
	.align 2
	.type	popPixelStore, @function
popPixelStore:
.LFB113:
	.loc 1 1139 0
	.cfi_startproc
.LVL89:
	.loc 1 1142 0
	lwz 4,0(3)
	.loc 1 1144 0
	lis 11,pack@ha
	la 11,pack@l(11)
	.loc 1 1142 0
	addi 4,4,-40
	stw 4,0(3)
	.loc 1 1144 0
	lswi 5,4,20
	stswi 5,11,20
	.loc 1 1145 0
	lis 4,unpack@ha
	la 4,unpack@l(4)
	lwz 3,0(3)
.LVL90:
	addi 3,3,20
	lswi 5,3,20
	stswi 5,4,20
	blr
	.cfi_endproc
.LFE113:
	.size	popPixelStore, .-popPixelStore
	.align 2
	.type	popVertexArray, @function
popVertexArray:
.LFB115:
	.loc 1 1179 0
	.cfi_startproc
.LVL91:
	.loc 1 1182 0
	lwz 4,0(3)
	.loc 1 1184 0
	lis 11,norm@ha
	la 11,norm@l(11)
	.loc 1 1182 0
	addi 4,4,-220
	stw 4,0(3)
	.loc 1 1184 0
	lswi 5,4,20
	stswi 5,11,20
	.loc 1 1185 0
	lis 4,vert@ha
	la 4,vert@l(4)
	lwz 11,0(3)
	addi 11,11,20
	lswi 5,11,20
	stswi 5,4,20
	.loc 1 1186 0
	lis 4,color@ha
	la 4,color@l(4)
	lwz 11,0(3)
	addi 11,11,200
	lswi 5,11,20
	stswi 5,4,20
.LVL92:
	.loc 1 1191 0
	lis 9,tex@ha
	la 0,tex@l(9)
	li 9,8
	mtctr 9
	.loc 1 1189 0
	li 4,0
.LVL93:
.L76:
	mulli 9,4,20
	.loc 1 1191 0 discriminator 2
	lwz 12,0(3)
	.loc 1 1189 0 discriminator 2
	addi 4,4,1
.LVL94:
	.loc 1 1191 0 discriminator 2
	add 12,12,9
	add 11,0,9
	addi 12,12,40
	lswi 5,12,20
	stswi 5,11,20
	.loc 1 1189 0 discriminator 2
	bdnz .L76
	.loc 1 1193 0
	blr
	.cfi_endproc
.LFE115:
	.size	popVertexArray, .-popVertexArray
	.align 2
	.type	popPolygon, @function
popPolygon:
.LFB91:
	.loc 1 717 0
	.cfi_startproc
.LVL95:
	mflr 0
	stwu 1,-16(1)
	.cfi_def_cfa_offset 16
	.cfi_register 65, 0
	stw 31,12(1)
	.cfi_offset 31, -4
	mr 31,3
	stw 0,20(1)
	.cfi_offset 65, 4
	.loc 1 720 0
	lwz 9,0(3)
	addi 10,9,-24
	stw 10,0(3)
	.loc 1 722 0
	lwz 3,-20(9)
.LVL96:
	bl glCullFace
.LVL97:
	.loc 1 724 0
	lwz 9,0(31)
	.loc 1 726 0
	addi 11,1,16
	.loc 1 724 0
	lwz 10,0(9)
	andis. 9,10,16384
	lis 9,gxwinding@ha
	mfcr 10
	rlwinm 10,10,3,1
	subfic 10,10,2305
	stw 10,gxwinding@l(9)
	.loc 1 725 0
	lwz 9,0(31)
	lwz 10,0(9)
	lis 9,gxcullfaceanabled@ha
	.loc 1 726 0
	.loc 1 725 0
	srwi 10,10,31
	stb 10,gxcullfaceanabled@l(9)
	.loc 1 726 0
	b _restgpr_31_x
	.cfi_restore 31
	.cfi_restore 65
	.cfi_endproc
.LFE91:
	.size	popPolygon, .-popPolygon
	.align 2
	.type	popEnable, @function
popEnable:
.LFB73:
	.loc 1 305 0
	.cfi_startproc
.LVL98:
	.loc 1 308 0
	lwz 9,0(3)
	.loc 1 322 0
	li 5,8
	mtctr 5
	lis 6,lights@ha
	.loc 1 308 0
	addi 10,9,-8
	stw 10,0(3)
	.loc 1 310 0
	lwz 10,-8(9)
	lis 9,blend_type@ha
	rlwinm 10,10,3,31,31
	stb 10,blend_type@l(9)
	.loc 1 311 0
	lwz 9,0(3)
	lwz 10,0(9)
	lis 9,copy_mat_enabled@ha
	rlwinm 10,10,4,31,31
	stb 10,copy_mat_enabled@l(9)
	.loc 1 312 0
	lwz 9,0(3)
	lwz 10,0(9)
	lis 9,gxcullfaceanabled@ha
	rlwinm 10,10,5,31,31
	stb 10,gxcullfaceanabled@l(9)
	.loc 1 313 0
	lwz 9,0(3)
	lwz 10,0(9)
	lis 9,depthtestenabled@ha
	rlwinm 10,10,6,31,31
	stb 10,depthtestenabled@l(9)
	.loc 1 314 0
	lwz 9,0(3)
	lbz 10,0(9)
	lis 9,fog_enable@ha
	rlwinm 10,10,0,31,31
	stb 10,fog_enable@l(9)
	.loc 1 317 0
	li 10,0
	lwz 9,0(3)
	stb 10,2(9)
.LVL99:
	.loc 1 318 0
	li 9,0
	.loc 1 320 0
	li 10,1
.LVL100:
.L85:
	lwz 8,0(3)
	slw 7,10,9
	lbz 8,2(8)
	and. 5,7,8
	beq- 0,.L83
	mulli 8,9,164
	.loc 1 322 0
	la 7,lights@l(6)
	stbx 10,7,8
.L83:
	.loc 1 318 0
	addi 9,9,1
.LVL101:
	bdnz .L85
	.loc 1 326 0
	lwz 9,0(3)
.LVL102:
	lwz 10,0(9)
	lis 9,lighting@ha
	rlwinm 10,10,25,31,31
	stb 10,lighting@l(9)
	.loc 1 327 0
	lwz 9,0(3)
	lwz 10,4(9)
	lis 9,scissor_test@ha
	rlwinm 10,10,5,31,31
	stb 10,scissor_test@l(9)
.LVL103:
	.loc 1 329 0
	lwz 9,0(3)
	lbz 3,4(9)
.LVL104:
	.loc 1 331 0
	.loc 1 330 0
	rlwinm 3,3,0,31,31
	b _glSetEnableTex
.LVL105:
	.cfi_endproc
.LFE73:
	.size	popEnable, .-popEnable
	.align 2
	.type	resizeStack, @function
resizeStack:
.LFB105:
	.loc 1 990 0
	.cfi_startproc
.LVL106:
	mflr 0
	stwu 1,-16(1)
	.cfi_def_cfa_offset 16
	.cfi_register 65, 0
	stmw 30,8(1)
	.cfi_offset 30, -8
	.cfi_offset 31, -4
	mr 31,3
	stw 0,20(1)
	.cfi_offset 65, 4
	.loc 1 995 0
	li 30,1024
	.loc 1 993 0
	lwz 9,76(3)
	cmpwi 7,9,0
	beq- 7,.L91
	.loc 1 999 0
	slwi 30,9,1
.LVL107:
.L91:
	.loc 1 1002 0
	lwz 3,68(31)
.LVL108:
	li 4,1024
	bl realloc
.LVL109:
	.loc 1 1004 0
	cmpwi 0,3,0
	beq- 0,.L94
.LBB4:
	.loc 1 1006 0
	lwz 8,72(31)
	lwz 10,68(31)
	.loc 1 1008 0
	stw 30,76(31)
	.loc 1 1006 0
	subf 10,10,8
.LVL110:
	.loc 1 1007 0
	stw 3,68(31)
	.loc 1 1011 0
	add 9,3,10
	.loc 1 1014 0
	li 3,1
.LVL111:
	.loc 1 1011 0
	stw 9,72(31)
	.loc 1 1014 0
	b .L92
.LVL112:
.L94:
.LBE4:
	.loc 1 1018 0
	li 3,0
.LVL113:
.L92:
	.loc 1 1020 0
	addi 11,1,16
	b _restgpr_30_x
	.cfi_restore 31
	.cfi_restore 30
	.cfi_restore 65
	.cfi_endproc
.LFE105:
	.size	resizeStack, .-resizeStack
	.align 2
	.type	push, @function
push:
.LFB108:
	.loc 1 1038 0
	.cfi_startproc
.LVL114:
	mflr 0
	stwu 1,-48(1)
	.cfi_def_cfa_offset 48
	.cfi_register 65, 0
	stmw 26,24(1)
	.cfi_offset 26, -24
	.cfi_offset 27, -20
	.cfi_offset 28, -16
	.cfi_offset 29, -12
	.cfi_offset 30, -8
	.cfi_offset 31, -4
	mr 31,3
	stw 0,52(1)
	.cfi_offset 65, 4
	.loc 1 1041 0
	lwz 9,64(3)
	cmpwi 7,9,15
	ble+ 7,.L98
	.loc 1 1043 0
	lis 4,.LC0@ha
.LVL115:
	li 3,1283
.LVL116:
	la 4,.LC0@l(4)
	li 5,1043
.LVL117:
	b .L111
.LVL118:
.L98:
	.loc 1 1047 0
	lwz 9,72(3)
	mr 28,1
	mr 26,5
	mr 27,6
	stwu 9,8(28)
.LVL119:
	mr 30,4
	.loc 1 1052 0
	li 29,0
	b .L100
.LVL120:
.L102:
	addi 29,29,1
.LVL121:
	addi 30,30,12
.LVL122:
.L100:
	.loc 1 1052 0 is_stmt 0 discriminator 1
	cmplw 7,29,26
	beq- 7,.L112
	.loc 1 1054 0 is_stmt 1
	lwz 9,0(30)
	and 10,9,27
	cmplw 7,10,9
	bne+ 7,.L102
.L104:
.LVL123:
.LBB5:
.LBB6:
	.loc 1 986 0
	lwz 4,68(31)
.LBE6:
.LBE5:
	.loc 1 1056 0
	mr 3,28
.LBB8:
.LBB7:
	.loc 1 986 0
	lwz 10,76(31)
.LBE7:
.LBE8:
	.loc 1 1056 0
	lwz 9,4(30)
	add 4,4,10
	mtctr 9
	bctrl
.LVL124:
	cmpwi 7,3,0
	bne- 7,.L102
	.loc 1 1059 0
	mr 3,31
	bl resizeStack
.LVL125:
	cmpwi 7,3,0
	bne+ 7,.L104
	.loc 1 1062 0
	lis 4,.LC0@ha
	li 3,1283
	la 4,.LC0@l(4)
	li 5,1062
.LVL126:
.L111:
	bl _glSetErrorEx
.LVL127:
	.loc 1 1063 0
	b .L97
.LVL128:
.L112:
	.loc 1 1072 0
	lwz 9,8(1)
	stw 9,72(31)
	.loc 1 1073 0
	lwz 9,64(31)
	addi 10,9,1
	slwi 9,9,2
	stw 10,64(31)
	stwx 27,31,9
.LVL129:
.L97:
	.loc 1 1074 0
	addi 11,1,48
	b _restgpr_26_x
	.cfi_restore 31
	.cfi_restore 30
	.cfi_restore 29
	.cfi_restore 28
	.cfi_restore 27
	.cfi_restore 26
	.cfi_restore 65
	.cfi_endproc
.LFE108:
	.size	push, .-push
	.align 2
	.type	pushCurrent, @function
pushCurrent:
.LFB68:
	.loc 1 142 0
	.cfi_startproc
.LVL130:
	.loc 1 145 0
	lwz 5,0(3)
	addi 9,5,200
	cmplw 7,9,4
	bgt- 7,.L117
	.loc 1 147 0
	lis 10,_tempcolorelement@ha
	addi 9,5,8
	la 10,_tempcolorelement@l(10)
	lswi 5,10,16
	stswi 5,9,16
	.loc 1 148 0
	lis 10,_tempnormalelement@ha
	la 10,_tempnormalelement@l(10)
	lwz 9,0(3)
	addi 9,9,24
	lswi 5,10,12
	stswi 5,9,12
.LVL131:
.LBB11:
.LBB12:
	.loc 1 151 0
	li 6,8
	lis 10,_temptexcoordelement-8@ha
	mtctr 6
	la 10,_temptexcoordelement-8@l(10)
	li 9,0
.LVL132:
.L116:
	.loc 1 153 0
	lwz 8,0(3)
	addi 7,9,4
	slwi 7,7,3
	addi 10,10,8
	add 8,8,7
	lwz 6,0(10)
	lwz 7,4(10)
	.loc 1 151 0
	addi 9,9,1
.LVL133:
	.loc 1 153 0
	stw 6,4(8)
	stw 7,8(8)
	.loc 1 151 0
	bdnz .L116
	.loc 1 156 0
	lwz 9,0(3)
.LVL134:
	addi 9,9,200
	stw 9,0(3)
	li 3,1
.LVL135:
	blr
.LVL136:
.L117:
.LBE12:
.LBE11:
	.loc 1 145 0
	li 3,0
.LVL137:
	.loc 1 159 0
	blr
	.cfi_endproc
.LFE68:
	.size	pushCurrent, .-pushCurrent
	.align 2
	.type	pushLighting, @function
pushLighting:
.LFB80:
	.loc 1 474 0
	.cfi_startproc
.LVL138:
	mflr 0
	stwu 1,-24(1)
	.cfi_def_cfa_offset 24
	.cfi_register 65, 0
	stmw 29,12(1)
	.cfi_offset 29, -12
	.cfi_offset 30, -8
	.cfi_offset 31, -4
	mr 31,3
.LVL139:
	stw 0,28(1)
	.cfi_offset 65, 4
	.loc 1 477 0
	lwz 9,0(3)
	li 3,0
.LVL140:
	addi 10,9,1412
	cmplw 7,10,4
	bgt- 7,.L120
	.loc 1 479 0
	lis 10,copy_mat_enabled@ha
	.loc 1 488 0
	lis 29,lights@ha
	.loc 1 479 0
	lbz 8,copy_mat_enabled@l(10)
	.loc 1 486 0
	li 30,0
	.loc 1 479 0
	lbz 10,0(9)
	.loc 1 488 0
	la 29,lights@l(29)
	.loc 1 479 0
	slwi 8,8,7
	rlwinm 10,10,0,25,31
	or 10,10,8
	stb 10,0(9)
	.loc 1 480 0
	lis 10,lighting@ha
	lwz 9,0(31)
	lbz 8,lighting@l(10)
	lbz 10,0(9)
	rlwinm 8,8,6,25,25
	rlwinm 10,10,0,26,24
	or 10,10,8
	stb 10,0(9)
	.loc 1 481 0
	lis 10,copy_material@ha
	lwz 9,0(31)
	lwz 10,copy_material@l(10)
	stw 10,8(9)
	.loc 1 482 0
	lis 10,globAmbient@ha
	la 10,globAmbient@l(10)
	lwz 9,0(31)
	addi 9,9,12
	lswi 5,10,16
	stswi 5,9,16
.LVL141:
.L122:
	.loc 1 488 0 discriminator 2
	mulli 4,30,164
	lwz 3,0(31)
	li 5,164
	add 3,3,4
	add 4,29,4
	addi 3,3,28
	bl memcpy
.LVL142:
	.loc 1 486 0 discriminator 2
	cmpwi 7,30,7
	addi 30,30,1
.LVL143:
	bne+ 7,.L122
.LVL144:
.LBB15:
.LBB16:
	.loc 1 491 0
	lwz 3,0(31)
	lis 4,curmat@ha
	la 4,curmat@l(4)
	li 5,68
	addi 9,3,1412
	addi 3,3,1340
	stw 9,0(31)
	bl memcpy
.LVL145:
	li 3,1
.LVL146:
.L120:
.LBE16:
.LBE15:
	.loc 1 494 0
	addi 11,1,24
	b _restgpr_29_x
	.cfi_restore 31
	.cfi_restore 30
	.cfi_restore 29
	.cfi_restore 65
	.cfi_endproc
.LFE80:
	.size	pushLighting, .-pushLighting
	.align 2
	.type	pushPolygon, @function
pushPolygon:
.LFB90:
	.loc 1 691 0
	.cfi_startproc
.LVL147:
	.loc 1 694 0
	lwz 9,0(3)
	addi 10,9,24
	cmplw 7,10,4
	bgt- 7,.L131
	.loc 1 696 0
	lis 10,cull_mode@ha
	lbz 10,cull_mode@l(10)
	cmpwi 7,10,2
	beq- 7,.L128
	cmpwi 7,10,3
	beq- 7,.L129
	cmpwi 7,10,1
	bne+ 7,.L127
	.loc 1 699 0
	li 10,1028
	b .L132
.L128:
	.loc 1 702 0
	li 10,1029
	b .L132
.L129:
	.loc 1 705 0
	li 10,1032
.L132:
	stw 10,4(9)
.L127:
.LVL148:
.LBB19:
.LBB20:
	.loc 1 710 0
	lis 9,gxwinding@ha
	lwz 10,0(3)
	lwz 9,gxwinding@l(9)
	lbz 8,0(10)
	xori 9,9,2305
	cntlzw 9,9
	rlwinm 8,8,0,26,24
	srwi 9,9,5
	slwi 9,9,6
	or 9,8,9
	stb 9,0(10)
	.loc 1 711 0
	lwz 9,0(3)
	addi 10,9,24
	stw 10,0(3)
	lis 10,gxcullfaceanabled@ha
	li 3,1
.LVL149:
	lbz 8,gxcullfaceanabled@l(10)
	lbz 10,0(9)
	slwi 8,8,7
	rlwinm 10,10,0,25,31
	or 10,10,8
	stb 10,0(9)
	blr
.LVL150:
.L131:
.LBE20:
.LBE19:
	.loc 1 694 0
	li 3,0
.LVL151:
	.loc 1 714 0
	blr
	.cfi_endproc
.LFE90:
	.size	pushPolygon, .-pushPolygon
	.align 2
	.type	pushTexture, @function
pushTexture:
.LFB98:
	.loc 1 834 0
	.cfi_startproc
.LVL152:
	mflr 0
	stwu 1,-24(1)
	.cfi_def_cfa_offset 24
	.cfi_register 65, 0
	stmw 28,8(1)
	.cfi_offset 28, -16
	.cfi_offset 29, -12
	.cfi_offset 30, -8
	.cfi_offset 31, -4
	mr 31,3
	stw 0,28(1)
	.cfi_offset 65, 4
	.loc 1 837 0
	lwz 9,0(3)
	li 3,0
.LVL153:
	addi 9,9,928
	cmplw 7,9,4
	bgt- 7,.L134
	lis 29,_temptexcoordelement-8@ha
.LBB23:
.LBB24:
	.loc 1 844 0
	lis 28,glTexEnvs@ha
	la 29,_temptexcoordelement-8@l(29)
.LBE24:
.LBE23:
	.loc 1 837 0
	li 30,0
.LBB26:
.LBB25:
	.loc 1 844 0
	la 28,glTexEnvs@l(28)
.LVL154:
.L136:
	.loc 1 843 0
	lwz 9,0(31)
	slwi 10,30,3
	addi 29,29,8
	lwz 11,4(29)
	add 9,9,10
	lwz 10,0(29)
	stw 11,4(9)
	.loc 1 844 0
	mulli 4,30,108
	.loc 1 843 0
	stw 10,0(9)
	.loc 1 844 0
	li 5,108
	lwz 3,0(31)
	add 3,3,4
	add 4,28,4
	addi 3,3,64
	bl memcpy
.LVL155:
	.loc 1 841 0
	cmpwi 7,30,7
	addi 30,30,1
.LVL156:
	bne+ 7,.L136
	.loc 1 847 0
	lwz 9,0(31)
	li 3,1
	addi 9,9,928
	stw 9,0(31)
.LVL157:
.L134:
.LBE25:
.LBE26:
	.loc 1 850 0
	addi 11,1,24
	b _restgpr_28_x
	.cfi_restore 31
	.cfi_restore 30
	.cfi_restore 29
	.cfi_restore 28
	.cfi_restore 65
	.cfi_endproc
.LFE98:
	.size	pushTexture, .-pushTexture
	.align 2
	.type	pushVertexArray, @function
pushVertexArray:
.LFB114:
	.loc 1 1158 0
	.cfi_startproc
.LVL158:
	.loc 1 1161 0
	lwz 11,0(3)
	addi 9,11,220
	cmplw 7,9,4
	bgt- 7,.L143
	.loc 1 1163 0
	lis 4,norm@ha
.LVL159:
	la 4,norm@l(4)
	lswi 5,4,20
	stswi 5,11,20
	.loc 1 1164 0
	lis 11,vert@ha
	la 11,vert@l(11)
	lwz 4,0(3)
	addi 4,4,20
	lswi 5,11,20
	stswi 5,4,20
	.loc 1 1165 0
	lis 11,color@ha
	la 11,color@l(11)
	lwz 4,0(3)
	addi 4,4,200
	lswi 5,11,20
	stswi 5,4,20
.LVL160:
.LBB29:
.LBB30:
	.loc 1 1170 0
	lis 9,tex@ha
	la 0,tex@l(9)
	li 9,8
	mtctr 9
	.loc 1 1168 0
	li 4,0
.LVL161:
.L142:
	.loc 1 1170 0
	mulli 9,4,20
	lwz 11,0(3)
	.loc 1 1168 0
	addi 4,4,1
.LVL162:
	.loc 1 1170 0
	add 11,11,9
	add 12,0,9
	addi 11,11,40
	lswi 5,12,20
	stswi 5,11,20
	.loc 1 1168 0
	bdnz .L142
	.loc 1 1173 0
	lwz 9,0(3)
	addi 9,9,220
	stw 9,0(3)
	li 3,1
.LVL163:
	blr
.LVL164:
.L143:
.LBE30:
.LBE29:
	.loc 1 1161 0
	li 3,0
.LVL165:
	.loc 1 1176 0
	blr
	.cfi_endproc
.LFE114:
	.size	pushVertexArray, .-pushVertexArray
	.align 2
	.type	pushEnable, @function
pushEnable:
.LFB72:
	.loc 1 276 0
	.cfi_startproc
	.loc 1 279 0
	lwz 10,0(3)
	addi 9,10,8
	cmplw 7,9,4
	bgt- 7,.L150
	.loc 1 281 0
	lis 9,blend_type@ha
	lbz 8,0(10)
	lbz 9,blend_type@l(9)
	.loc 1 291 0
	lis 7,lights@ha
	.loc 1 281 0
	rlwinm 8,8,0,27,25
	.loc 1 293 0
	li 6,1
	.loc 1 281 0
	xori 9,9,1
	cntlzw 9,9
	srwi 9,9,5
	slwi 9,9,5
	or 9,8,9
	stb 9,0(10)
	.loc 1 282 0
	lis 10,copy_mat_enabled@ha
	lwz 9,0(3)
	lbz 8,copy_mat_enabled@l(10)
	lbz 10,0(9)
	rlwinm 8,8,4,27,27
	rlwinm 10,10,0,28,26
	or 10,10,8
	stb 10,0(9)
	.loc 1 283 0
	lis 10,gxcullfaceanabled@ha
	lwz 9,0(3)
	lbz 8,gxcullfaceanabled@l(10)
	lbz 10,0(9)
	rlwinm 8,8,3,28,28
	rlwinm 10,10,0,29,27
	or 10,10,8
	stb 10,0(9)
	.loc 1 284 0
	lis 9,depthtestenabled@ha
	lbz 9,depthtestenabled@l(9)
	lwz 10,0(3)
	xori 9,9,1
	lbz 8,0(10)
	cntlzw 9,9
	srwi 9,9,5
	rlwinm 8,8,0,30,28
	slwi 9,9,2
	or 9,8,9
	stb 9,0(10)
	.loc 1 285 0
	lis 10,fog_enable@ha
	lwz 9,0(3)
	lbz 8,fog_enable@l(10)
	lbz 10,0(9)
	rlwinm 8,8,0,31,31
	rlwinm 10,10,0,0,30
	or 10,10,8
	stb 10,0(9)
	.loc 1 288 0
	li 10,0
	lwz 9,0(3)
	stb 10,2(9)
	.loc 1 293 0
	li 10,8
	mtctr 10
	.loc 1 289 0
	li 9,0
.L149:
	mulli 10,9,164
	.loc 1 291 0
	la 8,lights@l(7)
	lbzx 10,8,10
	cmpwi 7,10,0
	beq- 7,.L147
	.loc 1 293 0
	lwz 10,0(3)
	slw 8,6,9
	lbz 5,2(10)
	or 8,8,5
	stb 8,2(10)
.L147:
	.loc 1 289 0
	addi 9,9,1
	bdnz .L149
	.loc 1 276 0
	mflr 0
	stwu 1,-16(1)
	.cfi_def_cfa_offset 16
	.cfi_register 65, 0
.LBB33:
.LBB34:
	.loc 1 297 0
	lis 10,lighting@ha
.LBE34:
.LBE33:
	.loc 1 276 0
	stw 31,12(1)
	stw 0,20(1)
	.cfi_offset 31, -4
	.cfi_offset 65, 4
.LBB38:
.LBB35:
	.loc 1 297 0
	lbz 8,lighting@l(10)
	lwz 9,0(3)
	slwi 8,8,7
	lbz 10,3(9)
	rlwinm 10,10,0,25,31
	or 10,10,8
	stb 10,3(9)
	.loc 1 298 0
	lis 9,scissor_test@ha
	lbz 9,scissor_test@l(9)
	lwz 10,0(3)
	xori 9,9,1
	lbz 8,4(10)
	cntlzw 9,9
	srwi 9,9,5
	rlwinm 8,8,0,29,27
	slwi 9,9,3
	or 9,8,9
	stb 9,4(10)
	.loc 1 299 0
	lwz 31,0(3)
	addi 9,31,8
	stw 9,0(3)
	lis 9,cur_tex@ha
	lwz 3,cur_tex@l(9)
	bl _glGetEnableTex
	lbz 9,4(31)
	rlwinm 3,3,0,31,31
.LBE35:
.LBE38:
	.loc 1 302 0
	addi 11,1,16
.LBB39:
.LBB36:
	.loc 1 299 0
	rlwinm 9,9,0,0,30
	or 3,9,3
	stb 3,4(31)
.LBE36:
.LBE39:
	.loc 1 302 0
.LBB40:
.LBB37:
	.loc 1 299 0
	li 3,1
.LBE37:
.LBE40:
	.loc 1 302 0
	b _restgpr_31_x
	.cfi_restore 31
	.cfi_restore 65
.L150:
	.cfi_def_cfa_offset 0
	.loc 1 279 0
	li 3,0
	blr
	.cfi_endproc
.LFE72:
	.size	pushEnable, .-pushEnable
	.align 2
	.type	pop, @function
pop:
.LFB109:
	.loc 1 1077 0
	.cfi_startproc
	.loc 1 1080 0
	lwz 9,64(3)
	cmpwi 7,9,0
	bne+ 7,.L158
.LBB43:
.LBB44:
	.loc 1 1082 0
	lis 4,.LC0@ha
	li 3,1284
	la 4,.LC0@l(4)
	li 5,1082
	b _glSetErrorEx
.L158:
.LBE44:
.LBE43:
	.loc 1 1077 0
	mflr 0
	stwu 1,-24(1)
	.cfi_def_cfa_offset 24
	.cfi_register 65, 0
	.loc 1 1086 0
	addi 9,9,-1
	.loc 1 1077 0
	stmw 28,8(1)
	.cfi_offset 28, -16
	.cfi_offset 29, -12
	.cfi_offset 30, -8
	.cfi_offset 31, -4
	mulli 31,5,12
	stw 0,28(1)
	.cfi_offset 65, 4
	.loc 1 1093 0
	addi 30,5,-1
	.loc 1 1086 0
	stw 9,64(3)
	.loc 1 1088 0
	slwi 9,9,2
	add 31,4,31
	.loc 1 1097 0
	addi 28,3,72
	.loc 1 1088 0
	lwzx 29,3,9
.L159:
	.loc 1 1093 0 discriminator 1
	cmpwi 7,30,0
	blt- 7,.L163
	.loc 1 1095 0
	lwz 9,-12(31)
	and 10,9,29
	cmplw 7,10,9
	bne+ 7,.L160
	.loc 1 1097 0
	lwz 9,-4(31)
	mr 3,28
	mtctr 9
	bctrl
.L160:
	.loc 1 1093 0
	addi 30,30,-1
	addi 31,31,-12
	b .L159
.L163:
	.loc 1 1103 0
	addi 11,1,24
	b _restgpr_28_x
	.cfi_restore 31
	.cfi_restore 30
	.cfi_restore 29
	.cfi_restore 28
	.cfi_restore 65
	.cfi_endproc
.LFE109:
	.size	pop, .-pop
	.align 2
	.globl _glInitStacks
	.type	_glInitStacks, @function
_glInitStacks:
.LFB107:
	.loc 1 1032 0
	.cfi_startproc
.LVL166:
	stwu 1,-24(1)
	.cfi_def_cfa_offset 24
	mflr 0
.LBB49:
.LBB50:
	.loc 1 1024 0
	li 4,0
	li 5,80
.LBE50:
.LBE49:
	.loc 1 1032 0
	stmw 29,12(1)
	.cfi_register 65, 0
	.cfi_offset 29, -12
	.cfi_offset 30, -8
	.cfi_offset 31, -4
.LBB55:
.LBB51:
	.loc 1 1024 0
	lis 31,.LANCHOR0@ha
	la 31,.LANCHOR0@l(31)
.LBE51:
.LBE55:
	.loc 1 1032 0
	stw 0,28(1)
	.cfi_offset 65, 4
.LBB56:
.LBB52:
	.loc 1 1024 0
	mr 3,31
.LBE52:
.LBE56:
.LBB57:
.LBB58:
	addi 29,31,80
.LBE58:
.LBE57:
.LBB62:
.LBB53:
	bl memset
.LVL167:
	.loc 1 1025 0
	mr 3,31
	bl resizeStack
.LVL168:
	.loc 1 1028 0
	lwz 9,68(31)
	.loc 1 1027 0
	li 30,0
.LBE53:
.LBE62:
.LBB63:
.LBB59:
	.loc 1 1024 0
	li 4,0
	li 5,80
	mr 3,29
.LBE59:
.LBE63:
.LBB64:
.LBB54:
	.loc 1 1028 0
	stw 9,72(31)
.LVL169:
	.loc 1 1027 0
	stw 30,64(31)
.LBE54:
.LBE64:
.LBB65:
.LBB60:
	.loc 1 1024 0
	bl memset
.LVL170:
	.loc 1 1025 0
	mr 3,29
	bl resizeStack
.LVL171:
	.loc 1 1028 0
	lwz 9,148(31)
	.loc 1 1027 0
	stw 30,144(31)
.LBE60:
.LBE65:
	.loc 1 1035 0
	addi 11,1,24
.LBB66:
.LBB61:
	.loc 1 1028 0
	stw 9,152(31)
.LBE61:
.LBE66:
	.loc 1 1035 0
	b _restgpr_29_x
	.cfi_restore 31
	.cfi_restore 30
	.cfi_restore 29
	.cfi_restore 65
	.cfi_endproc
.LFE107:
	.size	_glInitStacks, .-_glInitStacks
	.align 2
	.globl glPushAttrib
	.type	glPushAttrib, @function
glPushAttrib:
.LFB110:
	.loc 1 1106 0
	.cfi_startproc
.LVL172:
	.loc 1 1107 0
	lis 9,cur_state@ha
	.loc 1 1106 0
	mr 6,3
	.loc 1 1107 0
	lwz 9,cur_state@l(9)
	andi. 10,9,1
	beq+ 0,.L167
	.loc 1 1107 0 is_stmt 0 discriminator 1
	lis 4,.LC0@ha
	li 3,1282
.LVL173:
	la 4,.LC0@l(4)
	li 5,1107
	.loc 1 1110 0 is_stmt 1 discriminator 1
	.loc 1 1107 0 discriminator 1
	b _glSetErrorEx
.LVL174:
.L167:
	.loc 1 1109 0
	lis 3,.LANCHOR0@ha
.LVL175:
	lis 4,.LANCHOR1@ha
	la 3,.LANCHOR0@l(3)
	la 4,.LANCHOR1@l(4)
	li 5,20
	.loc 1 1110 0
	.loc 1 1109 0
	b push
.LVL176:
	.cfi_endproc
.LFE110:
	.size	glPushAttrib, .-glPushAttrib
	.align 2
	.globl glPopAttrib
	.type	glPopAttrib, @function
glPopAttrib:
.LFB111:
	.loc 1 1113 0
	.cfi_startproc
	.loc 1 1114 0
	lis 9,cur_state@ha
	lwz 9,cur_state@l(9)
	andi. 10,9,1
	beq+ 0,.L169
	.loc 1 1114 0 is_stmt 0 discriminator 1
	lis 4,.LC0@ha
	li 3,1282
	la 4,.LC0@l(4)
	li 5,1114
	.loc 1 1117 0 is_stmt 1 discriminator 1
	.loc 1 1114 0 discriminator 1
	b _glSetErrorEx
.LVL177:
.L169:
	.loc 1 1116 0
	lis 3,.LANCHOR0@ha
	lis 4,.LANCHOR1@ha
	la 3,.LANCHOR0@l(3)
	la 4,.LANCHOR1@l(4)
	li 5,20
	.loc 1 1117 0
	.loc 1 1116 0
	b pop
.LVL178:
	.cfi_endproc
.LFE111:
	.size	glPopAttrib, .-glPopAttrib
	.align 2
	.globl glPushClientAttrib
	.type	glPushClientAttrib, @function
glPushClientAttrib:
.LFB116:
	.loc 1 1201 0
	.cfi_startproc
.LVL179:
	.loc 1 1202 0
	lis 9,cur_state@ha
	.loc 1 1201 0
	mr 6,3
	.loc 1 1202 0
	lwz 9,cur_state@l(9)
	andi. 10,9,1
	beq+ 0,.L171
	.loc 1 1202 0 is_stmt 0 discriminator 1
	lis 4,.LC0@ha
	li 3,1282
.LVL180:
	la 4,.LC0@l(4)
	li 5,1202
	.loc 1 1205 0 is_stmt 1 discriminator 1
	.loc 1 1202 0 discriminator 1
	b _glSetErrorEx
.LVL181:
.L171:
	.loc 1 1204 0
	lis 3,.LANCHOR0@ha
.LVL182:
	lis 4,.LANCHOR1@ha
	la 3,.LANCHOR0@l(3)
	la 4,.LANCHOR1@l(4)
	addi 3,3,80
	addi 4,4,240
	li 5,2
	.loc 1 1205 0
	.loc 1 1204 0
	b push
.LVL183:
	.cfi_endproc
.LFE116:
	.size	glPushClientAttrib, .-glPushClientAttrib
	.align 2
	.globl glPopClientAttrib
	.type	glPopClientAttrib, @function
glPopClientAttrib:
.LFB117:
	.loc 1 1208 0
	.cfi_startproc
	.loc 1 1209 0
	lis 9,cur_state@ha
	lwz 9,cur_state@l(9)
	andi. 10,9,1
	beq+ 0,.L173
	.loc 1 1209 0 is_stmt 0 discriminator 1
	lis 4,.LC0@ha
	li 3,1282
	la 4,.LC0@l(4)
	li 5,1209
	.loc 1 1212 0 is_stmt 1 discriminator 1
	.loc 1 1209 0 discriminator 1
	b _glSetErrorEx
.LVL184:
.L173:
	.loc 1 1211 0
	lis 3,.LANCHOR0@ha
	lis 4,.LANCHOR1@ha
	la 3,.LANCHOR0@l(3)
	la 4,.LANCHOR1@l(4)
	addi 3,3,80
	addi 4,4,240
	li 5,2
	.loc 1 1212 0
	.loc 1 1211 0
	b pop
.LVL185:
	.cfi_endproc
.LFE117:
	.size	glPopClientAttrib, .-glPopClientAttrib
	.globl clientAttribs
	.globl attribs
	.comm	call_offset,4,4
	.comm	read_mode,4,4
	.comm	glTexEnvs,864,4
	.comm	fog_color,4,1
	.comm	fog_density,4,4
	.comm	fog_endz,4,4
	.comm	fog_startz,4,4
	.comm	fog_mode,1,1
	.comm	fog_enable,1,1
	.comm	Trans,32,4
	.comm	_clearcolor,4,1
	.comm	copy_material,4,4
	.comm	copy_mat_enabled,1,1
	.comm	color_write_mask,4,4
	.comm	unpack,20,4
	.comm	pack,20,4
	.comm	point_size,4,4
	.comm	line_width,4,4
	.comm	normFar,4,4
	.comm	normNear,4,4
	.comm	viewPort,16,4
	.comm	scissorInfo,16,4
	.comm	scissor_test,1,1
	.comm	fb_max_width,4,4
	.comm	fb_max_height,4,4
	.comm	cur_state,4,4
	.comm	cull_mode,1,1
	.comm	blend_op,1,1
	.comm	blend_dst,1,1
	.comm	blend_src,1,1
	.comm	blend_type,1,1
	.comm	lighting,1,1
	.comm	gxwinding,4,4
	.comm	gxcullfaceanabled,1,1
	.comm	curmat,68,4
	.comm	globAmbient,16,4
	.comm	lights,1312,4
	.comm	cur_mode,4,4
	.comm	curmtx,4,4
	.comm	texture_stack,128,4
	.comm	projection_stack,16,4
	.comm	model_stack,16,4
	.comm	_cleardepth,4,4
	.comm	depthfunction,4,4
	.comm	depthupdate,1,1
	.comm	depthtestenabled,1,1
	.comm	cur_tex_client,4,4
	.comm	cur_tex,4,4
	.comm	_GLtype,4,4
	.comm	_type,4,4
	.comm	vert_i,4,4
	.comm	_colorelements,16000,32
	.comm	_texcoordelements,64000,32
	.comm	_vertexelements,12000,32
	.comm	_normalelements,12000,32
	.comm	color,20,4
	.comm	tex,160,4
	.comm	vert,20,4
	.comm	norm,20,4
	.comm	_temptexcoordelement,64,4
	.comm	_tempnormalelement,12,4
	.comm	_tempcolorelement,16,4
	.section	.rodata.str1.1,"aMS",@progbits,1
.LC0:
	.string	"D:/devkitPro/portlibs/thirdparty/gl2gx/libogc/../source/gl_stacks.c"
	.section	".data"
	.align 2
	.set	.LANCHOR1,. + 0
	.type	attribs, @object
	.size	attribs, 240
attribs:
	.long	512
	.long	pushAccum
	.long	popAccum
	.long	16384
	.long	pushColorBuffer
	.long	popColorBuffer
	.long	1
	.long	pushCurrent
	.long	popCurrent
	.long	256
	.long	pushDepthBuffer
	.long	popDepthBuffer
	.long	8192
	.long	pushEnable
	.long	popEnable
	.long	65536
	.long	pushEval
	.long	popEval
	.long	128
	.long	pushFog
	.long	popFog
	.long	32768
	.long	pushHint
	.long	popHint
	.long	64
	.long	pushLighting
	.long	popLighting
	.long	4
	.long	pushLine
	.long	popLine
	.long	131072
	.long	pushListBase
	.long	popListBase
	.long	32
	.long	pushPixelMode
	.long	popPixelMode
	.long	2
	.long	pushPoint
	.long	popPoint
	.long	8
	.long	pushPolygon
	.long	popPolygon
	.long	16
	.long	pushPolyStipple
	.long	popPolyStipple
	.long	524288
	.long	pushScissor
	.long	popScissor
	.long	1024
	.long	pushStencil
	.long	popStencil
	.long	262144
	.long	pushTexture
	.long	popTexture
	.long	4096
	.long	pushTransform
	.long	popTransform
	.long	2048
	.long	pushViewport
	.long	popViewport
	.type	clientAttribs, @object
	.size	clientAttribs, 24
clientAttribs:
	.long	1
	.long	pushPixelStore
	.long	popPixelStore
	.long	2
	.long	pushVertexArray
	.long	popVertexArray
	.section	".bss"
	.align 2
	.set	.LANCHOR0,. + 0
	.type	attribStack, @object
	.size	attribStack, 80
attribStack:
	.zero	80
	.type	clientAttribStack, @object
	.size	clientAttribStack, 80
clientAttribStack:
	.zero	80
	.section	".text"
.Letext0:
	.file 2 "d:\\devkitpro\\devkitppc\\lib\\gcc\\powerpc-eabi\\4.8.2\\include\\stddef.h"
	.file 3 "D:/devkitPro/portlibs/thirdparty/gl2gx/libogc/include/GL/gl.h"
	.file 4 "d:\\devkitpro\\devkitppc\\powerpc-eabi\\include\\stdint.h"
	.file 5 "D:\\devkitPro\\/libogc/include/gctypes.h"
	.file 6 "D:\\devkitPro\\/libogc/include/ogc/gu.h"
	.file 7 "D:\\devkitPro\\/libogc/include/ogc/gx.h"
	.file 8 "D:/devkitPro/portlibs/thirdparty/gl2gx/libogc/../source/include/glint.h"
	.file 9 "D:/devkitPro/portlibs/thirdparty/gl2gx/libogc/../source/include/mat_stack.h"
	.file 10 "d:\\devkitpro\\devkitppc\\powerpc-eabi\\include\\stdlib.h"