	.file	"gl_transfer.c"
	.section	".text"
.Ltext0:
	.cfi_sections	.debug_frame
	.align 2
	.type	TransformC, @function
TransformC:
.LFB62:
	.file 1 "D:/devkitPro/portlibs/thirdparty/gl2gx/libogc/../source/include/glint.h"
	.loc 1 357 0
	.cfi_startproc
.LVL0:
	.loc 1 358 0
	lfs 0,4(4)
	.loc 1 360 0
	lis 9,.LC0@ha
	.loc 1 358 0
	lfs 12,0(3)
	lfs 13,0(4)
	fmadds 13,12,13,0
	.loc 1 360 0
	lfs 0,.LC0@l(9)
	fcmpu 7,13,0
	bgt+ 7,.L2
	.loc 1 362 0
	lis 9,.LC1@ha
	lfs 0,.LC1@l(9)
	fcmpu 7,13,0
	blt+ 7,.L2
	.loc 1 361 0
	fmr 0,13
.L2:
	stfs 0,0(3)
	blr
	.cfi_endproc
.LFE62:
	.size	TransformC, .-TransformC
	.align 2
	.type	Put5A3, @function
Put5A3:
.LFB73:
	.file 2 "D:/devkitPro/portlibs/thirdparty/gl2gx/libogc/../source/gl_transfer.c"
	.loc 2 136 0
	.cfi_startproc
.LVL1:
	.loc 2 140 0
	cmplwi 7,7,224
	ble+ 7,.L9
	.loc 2 142 0
	srwi 6,6,3
.LVL2:
	li 9,-32768
	or 6,6,9
	rlwinm 5,5,2,22,26
.LVL3:
	or 5,6,5
	rlwinm 4,4,7,17,21
.LVL4:
	or 4,5,4
	rlwinm 4,4,0,0xffff
.LVL5:
	b .L10
.LVL6:
.L9:
	.loc 2 146 0
	rlwinm 5,5,0,0,27
.LVL7:
	srwi 6,6,4
.LVL8:
	rlwinm 4,4,4,20,23
.LVL9:
	or 6,5,6
	or 4,6,4
	rlwinm 7,7,7,17,19
.LVL10:
	or 4,4,7
.LVL11:
.L10:
	.loc 2 149 0
	lwz 9,0(3)
	addi 10,9,2
	stw 10,0(3)
	sth 4,0(9)
	blr
	.cfi_endproc
.LFE73:
	.size	Put5A3, .-Put5A3
	.align 2
	.type	GetIlum, @function
GetIlum:
.LFB76:
	.loc 2 173 0
	.cfi_startproc
.LVL12:
	stwu 1,-40(1)
	.cfi_def_cfa_offset 40
	.loc 2 174 0
	lis 9,0x4330
	lis 10,.LC3@ha
	stw 3,12(1)
	stw 9,8(1)
	stw 9,16(1)
	lfd 11,8(1)
	stw 4,20(1)
	lfs 0,.LC3@l(10)
	stw 9,24(1)
	lis 9,.LC4@ha
	fsub 12,11,0
	lfd 11,16(1)
	stw 5,28(1)
	fsub 13,11,0
	frsp 12,12
	frsp 13,13
	fadds 13,12,13
	lfd 12,24(1)
	fsub 0,12,0
	frsp 0,0
	fadds 0,13,0
	lfs 13,.LC4@l(9)
	addi 9,1,32
	fdivs 0,0,13
	fctiwz 0,0
	stfiwx 0,0,9
	lwz 3,32(1)
.LVL13:
	.loc 2 175 0
	addi 1,1,40
	.cfi_def_cfa_offset 0
	rlwinm 3,3,0,0xff
	blr
	.cfi_endproc
.LFE76:
	.size	GetIlum, .-GetIlum
	.align 2
	.globl getBYTE
	.type	getBYTE, @function
getBYTE:
.LFB79:
	.loc 2 224 0
	.cfi_startproc
.LVL14:
	.loc 2 226 0
	lwz 9,0(3)
	.loc 2 224 0
	stwu 1,-24(1)
	.cfi_def_cfa_offset 24
	.loc 2 226 0
	addi 10,9,1
	stw 10,0(3)
	lis 10,.LC6@ha
.LBB1174:
.LBB1175:
	.loc 2 18 0
	lfs 0,.LC6@l(10)
.LBE1175:
.LBE1174:
	.loc 2 226 0
	lbz 9,0(9)
.LVL15:
.LBB1177:
.LBB1176:
	.loc 2 16 0
	extsb. 9,9
	.loc 2 18 0
	xoris 9,9,0x8000
	.loc 2 16 0
	blt- 0,.L14
	.loc 2 18 0
	stw 9,12(1)
	lis 9,0x4330
.LVL16:
	stw 9,8(1)
	lis 9,.LC7@ha
	lfd 13,8(1)
	fsub 0,13,0
	lfs 13,.LC7@l(9)
	frsp 0,0
	fdivs 0,0,13
	b .L15
.LVL17:
.L14:
	.loc 2 22 0
	stw 9,20(1)
	lis 9,0x4330
.LVL18:
	stw 9,16(1)
	lis 9,.LC8@ha
	lfd 13,16(1)
	fsub 0,13,0
	lfs 13,.LC8@l(9)
	frsp 0,0
	fmuls 0,0,13
.LVL19:
.L15:
.LBE1176:
.LBE1177:
	.loc 2 228 0
	.loc 2 227 0
	stfs 0,0(4)
	.loc 2 228 0
	addi 1,1,24
	.cfi_def_cfa_offset 0
	blr
	.cfi_endproc
.LFE79:
	.size	getBYTE, .-getBYTE
	.align 2
	.globl getUBYTE
	.type	getUBYTE, @function
getUBYTE:
.LFB80:
	.loc 2 230 0
	.cfi_startproc
.LVL20:
	.loc 2 232 0
	lwz 9,0(3)
	.loc 2 230 0
	stwu 1,-16(1)
	.cfi_def_cfa_offset 16
	.loc 2 232 0
	addi 10,9,1
	stw 10,0(3)
.LVL21:
	.loc 2 233 0
	lbz 9,0(9)
.LVL22:
	xoris 9,9,0x8000
	stw 9,12(1)
.LVL23:
	lis 9,0x4330
.LVL24:
	stw 9,8(1)
	lis 9,.LC6@ha
	lfs 0,.LC6@l(9)
	lis 9,.LC9@ha
	lfd 13,8(1)
	.loc 2 234 0
	addi 1,1,16
	.cfi_def_cfa_offset 0
.LVL25:
	.loc 2 233 0
	fsub 0,13,0
	lfs 13,.LC9@l(9)
	frsp 0,0
	fdivs 0,0,13
	stfs 0,0(4)
.LVL26:
	.loc 2 234 0
	blr
	.cfi_endproc
.LFE80:
	.size	getUBYTE, .-getUBYTE
	.align 2
	.globl getSHORT
	.type	getSHORT, @function
getSHORT:
.LFB81:
	.loc 2 236 0
	.cfi_startproc
.LVL27:
	.loc 2 238 0
	lwz 9,0(3)
	.loc 2 236 0
	stwu 1,-24(1)
	.cfi_def_cfa_offset 24
	.loc 2 238 0
	addi 10,9,2
	stw 10,0(3)
	lis 10,.LC6@ha
.LBB1180:
.LBB1181:
	.loc 2 30 0
	lfs 0,.LC6@l(10)
.LBE1181:
.LBE1180:
	.loc 2 238 0
	lha 9,0(9)
.LVL28:
.LBB1183:
.LBB1182:
	.loc 2 28 0
	cmpwi 7,9,0
	.loc 2 30 0
	xoris 9,9,0x8000
	.loc 2 28 0
	blt- 7,.L20
	.loc 2 30 0
	stw 9,12(1)
	lis 9,0x4330
	stw 9,8(1)
	lis 9,.LC10@ha
	lfd 13,8(1)
	fsub 0,13,0
	lfs 13,.LC10@l(9)
	frsp 0,0
	fdivs 0,0,13
	b .L21
.L20:
	.loc 2 34 0
	stw 9,20(1)
	lis 9,0x4330
	stw 9,16(1)
	lis 9,.LC11@ha
	lfd 13,16(1)
	fsub 0,13,0
	lfs 13,.LC11@l(9)
	frsp 0,0
	fmuls 0,0,13
.L21:
.LBE1182:
.LBE1183:
	.loc 2 240 0
	.loc 2 239 0
	stfs 0,0(4)
	.loc 2 240 0
	addi 1,1,24
	.cfi_def_cfa_offset 0
	blr
	.cfi_endproc
.LFE81:
	.size	getSHORT, .-getSHORT
	.align 2
	.globl getUSHORT
	.type	getUSHORT, @function
getUSHORT:
.LFB82:
	.loc 2 242 0
	.cfi_startproc
.LVL29:
	.loc 2 244 0
	lwz 9,0(3)
	.loc 2 242 0
	stwu 1,-16(1)
	.cfi_def_cfa_offset 16
	.loc 2 244 0
	addi 10,9,2
	stw 10,0(3)
.LVL30:
	.loc 2 245 0
	lhz 9,0(9)
.LVL31:
	xoris 9,9,0x8000
	stw 9,12(1)
.LVL32:
	lis 9,0x4330
.LVL33:
	stw 9,8(1)
	lis 9,.LC6@ha
	lfs 0,.LC6@l(9)
	lis 9,.LC12@ha
	lfd 13,8(1)
	.loc 2 246 0
	addi 1,1,16
	.cfi_def_cfa_offset 0
.LVL34:
	.loc 2 245 0
	fsub 0,13,0
	lfs 13,.LC12@l(9)
	frsp 0,0
	fdivs 0,0,13
	stfs 0,0(4)
.LVL35:
	.loc 2 246 0
	blr
	.cfi_endproc
.LFE82:
	.size	getUSHORT, .-getUSHORT
	.align 2
	.globl getUINT
	.type	getUINT, @function
getUINT:
.LFB83:
	.loc 2 248 0
	.cfi_startproc
.LVL36:
	.loc 2 250 0
	lwz 9,0(3)
	.loc 2 248 0
	stwu 1,-16(1)
	.cfi_def_cfa_offset 16
	.loc 2 250 0
	addi 10,9,4
	stw 10,0(3)
.LVL37:
	.loc 2 251 0
	lwz 9,0(9)
.LVL38:
	stw 9,12(1)
	lis 9,0x4330
.LVL39:
	stw 9,8(1)
	lis 9,.LC3@ha
	lfs 0,.LC3@l(9)
	lis 9,.LC13@ha
	lfd 13,8(1)
	.loc 2 252 0
	addi 1,1,16
	.cfi_def_cfa_offset 0
.LVL40:
	.loc 2 251 0
	fsub 0,13,0
	lfs 13,.LC13@l(9)
	frsp 0,0
	fmuls 0,0,13
	stfs 0,0(4)
.LVL41:
	.loc 2 252 0
	blr
	.cfi_endproc
.LFE83:
	.size	getUINT, .-getUINT
	.align 2
	.globl getINT
	.type	getINT, @function
getINT:
.LFB84:
	.loc 2 254 0
	.cfi_startproc
.LVL42:
	.loc 2 256 0
	lwz 9,0(3)
	.loc 2 254 0
	stwu 1,-16(1)
	.cfi_def_cfa_offset 16
	.loc 2 256 0
	addi 10,9,4
	stw 10,0(3)
.LVL43:
.LBB1186:
.LBB1187:
	.loc 2 46 0
	lwz 9,0(9)
.LVL44:
	xoris 9,9,0x8000
.LVL45:
	stw 9,12(1)
.LVL46:
	lis 9,0x4330
.LVL47:
	stw 9,8(1)
	lis 9,.LC6@ha
	lfs 0,.LC6@l(9)
	lis 9,.LC14@ha
	lfd 13,8(1)
.LBE1187:
.LBE1186:
	.loc 2 258 0
	addi 1,1,16
	.cfi_def_cfa_offset 0
.LVL48:
.LBB1189:
.LBB1188:
	.loc 2 46 0
	fsub 0,13,0
	lfs 13,.LC14@l(9)
	frsp 0,0
	fmuls 0,0,13
.LBE1188:
.LBE1189:
	.loc 2 257 0
	stfs 0,0(4)
.LVL49:
	.loc 2 258 0
	blr
	.cfi_endproc
.LFE84:
	.size	getINT, .-getINT
	.align 2
	.globl getFLOAT
	.type	getFLOAT, @function
getFLOAT:
.LFB85:
	.loc 2 260 0
	.cfi_startproc
.LVL50:
	.loc 2 262 0
	lwz 9,0(3)
	addi 10,9,4
	stw 10,0(3)
	lfs 0,0(9)
.LVL51:
	.loc 2 263 0
	stfs 0,0(4)
	blr
	.cfi_endproc
.LFE85:
	.size	getFLOAT, .-getFLOAT
	.align 2
	.type	getUBYTE_3_3_2, @function
getUBYTE_3_3_2:
.LFB90:
	.loc 2 659 0
	.cfi_startproc
.LVL52:
	.loc 2 660 0
	lbz 9,0(3)
.LVL53:
	.loc 2 662 0
	lis 10,0x4330
	.loc 2 659 0
	stwu 1,-32(1)
	.cfi_def_cfa_offset 32
.LVL54:
	.loc 2 662 0
	lis 7,.LC6@ha
	rlwinm 8,9,27,30,31
	lfs 13,.LC6@l(7)
	xoris 8,8,0x8000
	stw 10,8(1)
	stw 8,12(1)
	lis 8,.LC15@ha
	lfd 0,8(1)
	fsub 12,0,13
	lfs 0,.LC15@l(8)
	addi 8,1,24
	frsp 12,12
	fmuls 12,12,0
	fctiwz 12,12
	stfiwx 12,0,8
	.loc 2 663 0
	stw 10,16(1)
	.loc 2 662 0
	lwz 8,24(1)
	stb 8,0(4)
	.loc 2 663 0
	rlwinm 8,9,30,29,31
	xoris 8,8,0x8000
	.loc 2 664 0
	rlwinm 9,9,0,30,31
.LVL55:
	.loc 2 663 0
	stw 8,20(1)
	addi 8,1,28
	.loc 2 664 0
	mulli 9,9,85
	.loc 2 663 0
	lfd 12,16(1)
	fsub 13,12,13
	frsp 13,13
	fmuls 0,13,0
	fctiwz 0,0
	stfiwx 0,0,8
	.loc 2 664 0
	stb 9,2(4)
	.loc 2 665 0
	li 9,-1
	.loc 2 663 0
	lwz 10,28(1)
	.loc 2 666 0
	.loc 2 665 0
	stb 9,3(4)
	.loc 2 666 0
	addi 1,1,32
	.cfi_def_cfa_offset 0
	.loc 2 663 0
	stb 10,1(4)
	.loc 2 666 0
	blr
	.cfi_endproc
.LFE90:
	.size	getUBYTE_3_3_2, .-getUBYTE_3_3_2
	.align 2
	.type	getUBYTE_2_3_3_REV, @function
getUBYTE_2_3_3_REV:
.LFB91:
	.loc 2 668 0
	.cfi_startproc
.LVL56:
	.loc 2 669 0
	lbz 9,0(3)
.LVL57:
	.loc 2 672 0
	lis 7,.LC6@ha
	.loc 2 668 0
	stwu 1,-32(1)
	.cfi_def_cfa_offset 32
.LVL58:
	.loc 2 671 0
	srwi 10,9,6
	.loc 2 672 0
	rlwinm 8,9,29,29,31
	.loc 2 671 0
	mulli 10,10,85
	.loc 2 672 0
	xoris 8,8,0x8000
	stw 8,12(1)
	lis 8,.LC15@ha
	.loc 2 671 0
	stb 10,2(4)
	.loc 2 672 0
	lis 10,0x4330
	stw 10,8(1)
	.loc 2 673 0
	rlwinm 9,9,0,29,31
.LVL59:
	.loc 2 672 0
	lfs 13,.LC6@l(7)
	.loc 2 673 0
	xoris 9,9,0x8000
	.loc 2 672 0
	lfd 0,8(1)
	fsub 12,0,13
	lfs 0,.LC15@l(8)
	addi 8,1,24
	frsp 12,12
	fmuls 12,12,0
	fctiwz 12,12
	stfiwx 12,0,8
	.loc 2 673 0
	stw 9,20(1)
	stw 10,16(1)
	.loc 2 672 0
	lwz 8,24(1)
	.loc 2 673 0
	lfd 12,16(1)
	.loc 2 672 0
	stb 8,1(4)
	.loc 2 673 0
	addi 8,1,28
	fsub 13,12,13
	frsp 13,13
	fmuls 0,13,0
	fctiwz 0,0
	stfiwx 0,0,8
	lwz 9,28(1)
	.loc 2 675 0
	addi 1,1,32
	.cfi_def_cfa_offset 0
	.loc 2 673 0
	stb 9,0(4)
	.loc 2 674 0
	li 9,-1
	stb 9,3(4)
	.loc 2 675 0
	blr
	.cfi_endproc
.LFE91:
	.size	getUBYTE_2_3_3_REV, .-getUBYTE_2_3_3_REV
	.align 2
	.type	getUSHORT_5_6_5, @function
getUSHORT_5_6_5:
.LFB92:
	.loc 2 677 0
	.cfi_startproc
.LVL60:
	.loc 2 678 0
	lhz 10,0(3)
.LVL61:
	.loc 2 680 0
	lis 9,0x4330
	.loc 2 677 0
	stwu 1,-48(1)
	.cfi_def_cfa_offset 48
.LVL62:
	.loc 2 680 0
	lis 7,.LC6@ha
	srwi 8,10,11
	lfs 0,.LC6@l(7)
	xoris 8,8,0x8000
	stw 9,8(1)
	stw 8,12(1)
	lis 8,.LC16@ha
	lfs 13,.LC16@l(8)
	addi 8,1,32
	lfd 11,8(1)
	fsub 12,11,0
	frsp 12,12
	fmuls 12,12,13
	fctiwz 12,12
	stfiwx 12,0,8
	.loc 2 681 0
	stw 9,16(1)
	.loc 2 680 0
	lwz 8,32(1)
	stb 8,0(4)
	.loc 2 681 0
	rlwinm 8,10,27,26,31
	xoris 8,8,0x8000
	.loc 2 682 0
	rlwinm 10,10,0,27,31
.LVL63:
	.loc 2 681 0
	stw 8,20(1)
	lis 8,.LC17@ha
	.loc 2 682 0
	xoris 10,10,0x8000
	.loc 2 681 0
	lfd 11,16(1)
	fsub 12,11,0
	lfs 11,.LC17@l(8)
	addi 8,1,36
	frsp 12,12
	fmuls 12,12,11
	fctiwz 12,12
	stfiwx 12,0,8
	.loc 2 682 0
	stw 9,24(1)
	stw 10,28(1)
	.loc 2 681 0
	lwz 8,36(1)
	.loc 2 682 0
	lfd 11,24(1)
	.loc 2 681 0
	stb 8,1(4)
	.loc 2 682 0
	addi 8,1,40
	fsub 0,11,0
	frsp 0,0
	fmuls 13,0,13
	fctiwz 13,13
	stfiwx 13,0,8
	lwz 9,40(1)
	.loc 2 684 0
	addi 1,1,48
	.cfi_def_cfa_offset 0
	.loc 2 682 0
	stb 9,2(4)
	.loc 2 683 0
	li 9,-1
	stb 9,3(4)
	.loc 2 684 0
	blr
	.cfi_endproc
.LFE92:
	.size	getUSHORT_5_6_5, .-getUSHORT_5_6_5
	.align 2
	.type	getUSHORT_5_6_5_REV, @function
getUSHORT_5_6_5_REV:
.LFB93:
	.loc 2 686 0
	.cfi_startproc
.LVL64:
	.loc 2 687 0
	lhz 10,0(3)
.LVL65:
	.loc 2 689 0
	lis 9,0x4330
	.loc 2 686 0
	stwu 1,-48(1)
	.cfi_def_cfa_offset 48
.LVL66:
	.loc 2 689 0
	lis 7,.LC6@ha
	srwi 8,10,11
	lfs 0,.LC6@l(7)
	xoris 8,8,0x8000
	stw 9,8(1)
	stw 8,12(1)
	lis 8,.LC16@ha
	lfs 13,.LC16@l(8)
	addi 8,1,32
	lfd 11,8(1)
	fsub 12,11,0
	frsp 12,12
	fmuls 12,12,13
	fctiwz 12,12
	stfiwx 12,0,8
	.loc 2 690 0
	stw 9,16(1)
	.loc 2 689 0
	lwz 8,32(1)
	stb 8,2(4)
	.loc 2 690 0
	rlwinm 8,10,27,26,31
	xoris 8,8,0x8000
	.loc 2 691 0
	rlwinm 10,10,0,27,31
.LVL67:
	.loc 2 690 0
	stw 8,20(1)
	lis 8,.LC17@ha
	.loc 2 691 0
	xoris 10,10,0x8000
	.loc 2 690 0
	lfd 11,16(1)
	fsub 12,11,0
	lfs 11,.LC17@l(8)
	addi 8,1,36
	frsp 12,12
	fmuls 12,12,11
	fctiwz 12,12
	stfiwx 12,0,8
	.loc 2 691 0
	stw 9,24(1)
	stw 10,28(1)
	.loc 2 690 0
	lwz 8,36(1)
	.loc 2 691 0
	lfd 11,24(1)
	.loc 2 690 0
	stb 8,1(4)
	.loc 2 691 0
	addi 8,1,40
	fsub 0,11,0
	frsp 0,0
	fmuls 13,0,13
	fctiwz 13,13
	stfiwx 13,0,8
	lwz 9,40(1)
	.loc 2 693 0
	addi 1,1,48
	.cfi_def_cfa_offset 0
	.loc 2 691 0
	stb 9,0(4)
	.loc 2 692 0
	li 9,-1
	stb 9,3(4)
	.loc 2 693 0
	blr
	.cfi_endproc
.LFE93:
	.size	getUSHORT_5_6_5_REV, .-getUSHORT_5_6_5_REV
	.align 2
	.type	getUSHORT_4_4_4_4, @function
getUSHORT_4_4_4_4:
.LFB94:
	.loc 2 695 0
	.cfi_startproc
.LVL68:
	.loc 2 696 0
	lhz 9,0(3)
.LVL69:
	.loc 2 698 0
	srwi 10,9,12
	mulli 10,10,17
	stb 10,0(4)
.LVL70:
	.loc 2 699 0
	rlwinm 10,9,24,28,31
	mulli 10,10,17
	stb 10,1(4)
	.loc 2 700 0
	rlwinm 10,9,28,28,31
	.loc 2 701 0
	rlwinm 9,9,0,28,31
.LVL71:
	.loc 2 700 0
	mulli 10,10,17
	.loc 2 701 0
	mulli 9,9,17
	.loc 2 700 0
	stb 10,2(4)
	.loc 2 701 0
	stb 9,3(4)
	blr
	.cfi_endproc
.LFE94:
	.size	getUSHORT_4_4_4_4, .-getUSHORT_4_4_4_4
	.align 2
	.type	getUSHORT_4_4_4_4_REV, @function
getUSHORT_4_4_4_4_REV:
.LFB95:
	.loc 2 704 0
	.cfi_startproc
.LVL72:
	.loc 2 705 0
	lhz 9,0(3)
.LVL73:
	.loc 2 707 0
	srwi 10,9,12
	mulli 10,10,17
	stb 10,3(4)
.LVL74:
	.loc 2 708 0
	rlwinm 10,9,24,28,31
	mulli 10,10,17
	stb 10,2(4)
	.loc 2 709 0
	rlwinm 10,9,28,28,31
	.loc 2 710 0
	rlwinm 9,9,0,28,31
.LVL75:
	.loc 2 709 0
	mulli 10,10,17
	.loc 2 710 0
	mulli 9,9,17
	.loc 2 709 0
	stb 10,1(4)
	.loc 2 710 0
	stb 9,0(4)
	blr
	.cfi_endproc
.LFE95:
	.size	getUSHORT_4_4_4_4_REV, .-getUSHORT_4_4_4_4_REV
	.align 2
	.type	getUSHORT_5_5_5_1, @function
getUSHORT_5_5_5_1:
.LFB96:
	.loc 2 713 0
	.cfi_startproc
.LVL76:
	.loc 2 714 0
	lhz 9,0(3)
.LVL77:
	.loc 2 716 0
	lis 10,0x4330
	.loc 2 713 0
	stwu 1,-48(1)
	.cfi_def_cfa_offset 48
.LVL78:
	.loc 2 716 0
	lis 7,.LC6@ha
	srwi 8,9,11
	lfs 13,.LC6@l(7)
	xoris 8,8,0x8000
	stw 10,8(1)
	stw 8,12(1)
	lis 8,.LC16@ha
	lfd 0,8(1)
	fsub 12,0,13
	lfs 0,.LC16@l(8)
	addi 8,1,32
	frsp 12,12
	fmuls 12,12,0
	fctiwz 12,12
	stfiwx 12,0,8
	.loc 2 717 0
	stw 10,16(1)
	.loc 2 716 0
	lwz 8,32(1)
	stb 8,0(4)
	.loc 2 717 0
	rlwinm 8,9,26,27,31
	xoris 8,8,0x8000
	stw 8,20(1)
	addi 8,1,36
	lfd 11,16(1)
	fsub 12,11,13
	frsp 12,12
	fmuls 12,12,0
	fctiwz 12,12
	stfiwx 12,0,8
	.loc 2 718 0
	stw 10,24(1)
	.loc 2 717 0
	lwz 8,36(1)
	stb 8,1(4)
	.loc 2 718 0
	rlwinm 8,9,31,27,31
	xoris 8,8,0x8000
	.loc 2 719 0
	rlwinm 9,9,0,31,31
.LVL79:
	.loc 2 718 0
	stw 8,28(1)
	addi 8,1,40
	.loc 2 719 0
	neg 9,9
	.loc 2 718 0
	lfd 11,24(1)
	fsub 13,11,13
	frsp 13,13
	fmuls 0,13,0
	fctiwz 0,0
	stfiwx 0,0,8
	.loc 2 719 0
	stb 9,3(4)
	.loc 2 718 0
	lwz 10,40(1)
	.loc 2 720 0
	addi 1,1,48
	.cfi_def_cfa_offset 0
	.loc 2 718 0
	stb 10,2(4)
	.loc 2 720 0
	blr
	.cfi_endproc
.LFE96:
	.size	getUSHORT_5_5_5_1, .-getUSHORT_5_5_5_1
	.align 2
	.type	getUSHORT_1_5_5_5_REV, @function
getUSHORT_1_5_5_5_REV:
.LFB97:
	.loc 2 722 0
	.cfi_startproc
.LVL80:
	.loc 2 723 0
	lhz 9,0(3)
.LVL81:
	.loc 2 726 0
	lis 7,.LC6@ha
	.loc 2 722 0
	stwu 1,-48(1)
	.cfi_def_cfa_offset 48
.LVL82:
	.loc 2 725 0
	srwi 10,9,15
	.loc 2 726 0
	rlwinm 8,9,22,27,31
	.loc 2 725 0
	neg 10,10
	.loc 2 726 0
	xoris 8,8,0x8000
	.loc 2 725 0
	stb 10,3(4)
	.loc 2 726 0
	lis 10,0x4330
	stw 8,12(1)
	lis 8,.LC16@ha
	stw 10,8(1)
	lfs 13,.LC6@l(7)
	lfd 0,8(1)
	fsub 12,0,13
	lfs 0,.LC16@l(8)
	addi 8,1,32
	frsp 12,12
	fmuls 12,12,0
	fctiwz 12,12
	stfiwx 12,0,8
	.loc 2 727 0
	stw 10,16(1)
	.loc 2 726 0
	lwz 8,32(1)
	stb 8,2(4)
	.loc 2 727 0
	rlwinm 8,9,27,27,31
	xoris 8,8,0x8000
	.loc 2 728 0
	rlwinm 9,9,0,27,31
.LVL83:
	.loc 2 727 0
	stw 8,20(1)
	.loc 2 728 0
	xoris 9,9,0x8000
	.loc 2 727 0
	addi 8,1,36
	lfd 11,16(1)
	fsub 12,11,13
	frsp 12,12
	fmuls 12,12,0
	fctiwz 12,12
	stfiwx 12,0,8
	.loc 2 728 0
	stw 9,28(1)
	stw 10,24(1)
	.loc 2 727 0
	lwz 8,36(1)
	.loc 2 728 0
	lfd 11,24(1)
	.loc 2 727 0
	stb 8,1(4)
	.loc 2 728 0
	addi 8,1,40
	fsub 13,11,13
	frsp 13,13
	fmuls 0,13,0
	fctiwz 0,0
	stfiwx 0,0,8
	lwz 9,40(1)
	.loc 2 729 0
	addi 1,1,48
	.cfi_def_cfa_offset 0
	.loc 2 728 0
	stb 9,0(4)
	.loc 2 729 0
	blr
	.cfi_endproc
.LFE97:
	.size	getUSHORT_1_5_5_5_REV, .-getUSHORT_1_5_5_5_REV
	.align 2
	.type	getUINT_8_8_8_8, @function
getUINT_8_8_8_8:
.LFB98:
	.loc 2 731 0
	.cfi_startproc
.LVL84:
	.loc 2 732 0
	lwz 9,0(3)
.LVL85:
	.loc 2 734 0
	srwi 10,9,24
	.loc 2 737 0
	stb 9,3(4)
	.loc 2 734 0
	stb 10,0(4)
	.loc 2 735 0
	rlwinm 10,9,16,24,31
	stb 10,1(4)
	.loc 2 736 0
	rlwinm 10,9,24,24,31
	stb 10,2(4)
	.loc 2 737 0
	blr
	.cfi_endproc
.LFE98:
	.size	getUINT_8_8_8_8, .-getUINT_8_8_8_8
	.align 2
	.type	getUINT_8_8_8_8_REV, @function
getUINT_8_8_8_8_REV:
.LFB99:
	.loc 2 740 0
	.cfi_startproc
.LVL86:
	.loc 2 741 0
	lwz 9,0(3)
.LVL87:
	.loc 2 743 0
	srwi 10,9,24
	.loc 2 746 0
	stb 9,0(4)
	.loc 2 743 0
	stb 10,3(4)
	.loc 2 744 0
	rlwinm 10,9,16,24,31
	stb 10,2(4)
	.loc 2 745 0
	rlwinm 10,9,24,24,31
	stb 10,1(4)
	.loc 2 746 0
	blr
	.cfi_endproc
.LFE99:
	.size	getUINT_8_8_8_8_REV, .-getUINT_8_8_8_8_REV
	.align 2
	.type	getUINT_10_10_10_2, @function
getUINT_10_10_10_2:
.LFB100:
	.loc 2 749 0
	.cfi_startproc
.LVL88:
	.loc 2 750 0
	lwz 9,0(3)
.LVL89:
	.loc 2 752 0
	srwi 10,9,24
	stb 10,0(4)
	.loc 2 753 0
	rlwinm 10,9,18,24,31
	stb 10,1(4)
	.loc 2 754 0
	rlwinm 10,9,28,24,31
	.loc 2 755 0
	rlwinm 9,9,0,30,31
.LVL90:
	.loc 2 754 0
	stb 10,2(4)
	.loc 2 755 0
	mulli 9,9,85
	stb 9,3(4)
	blr
	.cfi_endproc
.LFE100:
	.size	getUINT_10_10_10_2, .-getUINT_10_10_10_2
	.align 2
	.type	getUINT_2_10_10_10_REV, @function
getUINT_2_10_10_10_REV:
.LFB101:
	.loc 2 758 0
	.cfi_startproc
.LVL91:
	.loc 2 759 0
	lwz 9,0(3)
.LVL92:
	.loc 2 761 0
	srwi 10,9,30
	mulli 10,10,85
	stb 10,3(4)
	.loc 2 762 0
	rlwinm 10,9,10,24,31
	stb 10,2(4)
	.loc 2 763 0
	rlwinm 10,9,20,24,31
	.loc 2 764 0
	rlwinm 9,9,30,24,31
.LVL93:
	.loc 2 763 0
	stb 10,1(4)
	.loc 2 764 0
	stb 9,0(4)
	blr
	.cfi_endproc
.LFE101:
	.size	getUINT_2_10_10_10_REV, .-getUINT_2_10_10_10_REV
	.align 2
	.type	clamp, @function
clamp:
.LFB102:
	.loc 2 773 0
	.cfi_startproc
.LVL94:
	.loc 2 774 0
	lis 9,.LC0@ha
	lfs 13,0(3)
	lfs 0,.LC0@l(9)
	fcmpu 7,13,0
	bng- 7,.L49
	.loc 2 774 0 is_stmt 0 discriminator 1
	stfs 0,0(3)
.L49:
	.loc 2 775 0 is_stmt 1
	lis 9,.LC1@ha
	lfs 13,0(3)
	lfs 0,.LC1@l(9)
	fcmpu 7,13,0
	bnllr+ 7
	.loc 2 775 0 is_stmt 0 discriminator 1
	stfs 0,0(3)
	blr
	.cfi_endproc
.LFE102:
	.size	clamp, .-clamp
	.align 2
	.type	getRED, @function
getRED:
.LFB103:
	.loc 2 779 0 is_stmt 1
	.cfi_startproc
.LVL95:
	stwu 1,-40(1)
	.cfi_def_cfa_offset 40
	mflr 0
	.loc 2 781 0
	lis 10,.LANCHOR0@ha
	.loc 2 779 0
	mr 9,1
	stw 31,36(1)
	stw 0,44(1)
	.cfi_offset 65, 4
	.cfi_offset 31, -4
	.loc 2 779 0
	mr 31,4
	stwu 3,24(9)
	.loc 2 781 0
	addi 4,1,8
.LVL96:
	lwz 10,.LANCHOR0@l(10)
	mr 3,9
.LVL97:
	mtctr 10
	bctrl
.LVL98:
	.loc 2 782 0
	addi 3,1,8
	bl clamp
.LVL99:
	.loc 2 784 0
	lis 9,.LC9@ha
	lfs 13,8(1)
	.loc 2 788 0
	addi 11,1,40
	.loc 2 784 0
	lfs 0,.LC9@l(9)
	addi 9,1,28
	fmuls 0,13,0
	fctiwz 0,0
	stfiwx 0,0,9
	lwz 9,28(1)
	stb 9,0(31)
	.loc 2 785 0
	li 9,0
	stb 9,1(31)
	.loc 2 786 0
	stb 9,2(31)
	.loc 2 787 0
	li 9,-1
	stb 9,3(31)
	.loc 2 788 0
	b _restgpr_31_x
	.cfi_restore 31
	.cfi_restore 65
	.cfi_endproc
.LFE103:
	.size	getRED, .-getRED
	.align 2
	.type	getGREEN, @function
getGREEN:
.LFB104:
	.loc 2 790 0
	.cfi_startproc
.LVL100:
	stwu 1,-40(1)
	.cfi_def_cfa_offset 40
	mflr 0
	.loc 2 792 0
	lis 10,.LANCHOR0@ha
	.loc 2 790 0
	mr 9,1
	.loc 2 792 0
	lwz 10,.LANCHOR0@l(10)
	.loc 2 790 0
	stw 0,44(1)
	stw 31,36(1)
	.cfi_offset 65, 4
	.cfi_offset 31, -4
	.loc 2 792 0
	mtctr 10
	.loc 2 790 0
	stwu 3,24(9)
	mr 31,4
	.loc 2 792 0
	addi 4,1,8
.LVL101:
	mr 3,9
.LVL102:
	bctrl
.LVL103:
	.loc 2 793 0
	addi 3,1,8
	bl clamp
.LVL104:
	.loc 2 796 0
	lis 10,.LC9@ha
	lfs 13,8(1)
	.loc 2 795 0
	li 9,0
	.loc 2 796 0
	lfs 0,.LC9@l(10)
	addi 10,1,28
	.loc 2 795 0
	stb 9,0(31)
	.loc 2 799 0
	addi 11,1,40
	.loc 2 796 0
	fmuls 0,13,0
	fctiwz 0,0
	stfiwx 0,0,10
	lwz 10,28(1)
	.loc 2 797 0
	stb 9,2(31)
	.loc 2 798 0
	li 9,-1
	.loc 2 796 0
	stb 10,1(31)
	.loc 2 798 0
	stb 9,3(31)
	.loc 2 799 0
	b _restgpr_31_x
	.cfi_restore 31
	.cfi_restore 65
	.cfi_endproc
.LFE104:
	.size	getGREEN, .-getGREEN
	.align 2
	.type	getBLUE, @function
getBLUE:
.LFB105:
	.loc 2 801 0
	.cfi_startproc
.LVL105:
	stwu 1,-40(1)
	.cfi_def_cfa_offset 40
	mflr 0
	.loc 2 803 0
	lis 10,.LANCHOR0@ha
	.loc 2 801 0
	mr 9,1
	stw 31,36(1)
	stw 0,44(1)
	.cfi_offset 65, 4
	.cfi_offset 31, -4
	.loc 2 801 0
	mr 31,4
	stwu 3,24(9)
	.loc 2 803 0
	addi 4,1,8
.LVL106:
	lwz 10,.LANCHOR0@l(10)
	mr 3,9
.LVL107:
	mtctr 10
	bctrl
.LVL108:
	.loc 2 804 0
	addi 3,1,8
	bl clamp
.LVL109:
	.loc 2 807 0
	li 9,0
	stb 9,0(31)
	.loc 2 811 0
	addi 11,1,40
	.loc 2 808 0
	stb 9,1(31)
	.loc 2 809 0
	lis 9,.LC9@ha
	lfs 13,8(1)
	lfs 0,.LC9@l(9)
	addi 9,1,28
	fmuls 0,13,0
	fctiwz 0,0
	stfiwx 0,0,9
	lwz 9,28(1)
	stb 9,2(31)
	.loc 2 810 0
	li 9,-1
	stb 9,3(31)
	.loc 2 811 0
	b _restgpr_31_x
	.cfi_restore 31
	.cfi_restore 65
	.cfi_endproc
.LFE105:
	.size	getBLUE, .-getBLUE
	.align 2
	.type	getALPHA, @function
getALPHA:
.LFB106:
	.loc 2 813 0
	.cfi_startproc
.LVL110:
	stwu 1,-40(1)
	.cfi_def_cfa_offset 40
	mflr 0
	.loc 2 815 0
	lis 10,.LANCHOR0@ha
	.loc 2 813 0
	mr 9,1
	stw 31,36(1)
	stw 0,44(1)
	.cfi_offset 65, 4
	.cfi_offset 31, -4
	.loc 2 813 0
	mr 31,4
	stwu 3,24(9)
	.loc 2 815 0
	addi 4,1,8
.LVL111:
	lwz 10,.LANCHOR0@l(10)
	mr 3,9
.LVL112:
	mtctr 10
	bctrl
.LVL113:
	.loc 2 816 0
	addi 3,1,8
	bl clamp
.LVL114:
	.loc 2 818 0
	li 9,0
	stb 9,0(31)
	.loc 2 822 0
	addi 11,1,40
	.loc 2 819 0
	stb 9,1(31)
	.loc 2 820 0
	stb 9,2(31)
	.loc 2 821 0
	lis 9,.LC9@ha
	lfs 13,8(1)
	lfs 0,.LC9@l(9)
	addi 9,1,28
	fmuls 0,13,0
	fctiwz 0,0
	stfiwx 0,0,9
	lwz 9,28(1)
	stb 9,3(31)
	.loc 2 822 0
	b _restgpr_31_x
	.cfi_restore 31
	.cfi_restore 65
	.cfi_endproc
.LFE106:
	.size	getALPHA, .-getALPHA
	.align 2
	.type	getLUMINANCE, @function
getLUMINANCE:
.LFB107:
	.loc 2 824 0
	.cfi_startproc
.LVL115:
	stwu 1,-40(1)
	.cfi_def_cfa_offset 40
	mflr 0
	.loc 2 826 0
	lis 10,.LANCHOR0@ha
	.loc 2 824 0
	mr 9,1
	stw 31,36(1)
	stw 0,44(1)
	.cfi_offset 65, 4
	.cfi_offset 31, -4
	.loc 2 824 0
	mr 31,4
	stwu 3,24(9)
	.loc 2 826 0
	addi 4,1,8
.LVL116:
	lwz 10,.LANCHOR0@l(10)
	mr 3,9
.LVL117:
	mtctr 10
	bctrl
.LVL118:
	.loc 2 827 0
	addi 3,1,8
	bl clamp
.LVL119:
	.loc 2 829 0
	lis 9,.LC9@ha
	lfs 13,8(1)
	.loc 2 834 0
	addi 11,1,40
	.loc 2 829 0
	lfs 0,.LC9@l(9)
	addi 9,1,28
	fmuls 0,13,0
	fctiwz 0,0
	stfiwx 0,0,9
	lwz 9,28(1)
	rlwinm 9,9,0,0xff
	stb 9,0(31)
	.loc 2 830 0
	stb 9,1(31)
	.loc 2 831 0
	stb 9,2(31)
	.loc 2 832 0
	li 9,-1
	stb 9,3(31)
	.loc 2 834 0
	b _restgpr_31_x
	.cfi_restore 31
	.cfi_restore 65
	.cfi_endproc
.LFE107:
	.size	getLUMINANCE, .-getLUMINANCE
	.align 2
	.type	getLUMINANCE_ALPHA, @function
getLUMINANCE_ALPHA:
.LFB108:
	.loc 2 836 0
	.cfi_startproc
.LVL120:
	stwu 1,-56(1)
	.cfi_def_cfa_offset 56
	mflr 0
	stmw 29,44(1)
	.cfi_register 65, 0
	.cfi_offset 29, -12
	.cfi_offset 30, -8
	.cfi_offset 31, -4
	mr 30,1
	.loc 2 838 0
	lis 29,.LANCHOR0@ha
	.loc 2 836 0
	stw 0,60(1)
	.cfi_offset 65, 4
	.loc 2 838 0
	lwz 9,.LANCHOR0@l(29)
	.loc 2 836 0
	mr 31,4
	stwu 3,24(30)
	.loc 2 838 0
	addi 4,1,12
.LVL121:
	mtctr 9
	mr 3,30
.LVL122:
	bctrl
.LVL123:
	.loc 2 839 0
	lwz 9,.LANCHOR0@l(29)
	addi 4,1,8
	mr 3,30
	mtctr 9
	bctrl
.LVL124:
	.loc 2 840 0
	addi 3,1,12
	bl clamp
.LVL125:
	.loc 2 841 0
	addi 3,1,8
	bl clamp
.LVL126:
	.loc 2 843 0
	lis 9,.LC9@ha
	lfs 13,12(1)
	.loc 2 847 0
	addi 11,1,56
	.loc 2 843 0
	lfs 0,.LC9@l(9)
	addi 9,1,28
	fmuls 13,13,0
	fctiwz 13,13
	stfiwx 13,0,9
	.loc 2 846 0
	lfs 13,8(1)
	.loc 2 843 0
	lwz 9,28(1)
	.loc 2 846 0
	fmuls 0,13,0
	.loc 2 843 0
	rlwinm 9,9,0,0xff
	stb 9,0(31)
	.loc 2 846 0
	fctiwz 0,0
	.loc 2 844 0
	stb 9,1(31)
	.loc 2 845 0
	stb 9,2(31)
	.loc 2 846 0
	addi 9,1,32
	stfiwx 0,0,9
	lwz 9,32(1)
	stb 9,3(31)
	.loc 2 847 0
	b _restgpr_29_x
	.cfi_restore 31
	.cfi_restore 30
	.cfi_restore 29
	.cfi_restore 65
	.cfi_endproc
.LFE108:
	.size	getLUMINANCE_ALPHA, .-getLUMINANCE_ALPHA
	.align 2
	.type	getRGB, @function
getRGB:
.LFB110:
	.loc 2 866 0
	.cfi_startproc
.LVL127:
	stwu 1,-56(1)
	.cfi_def_cfa_offset 56
	mflr 0
	stmw 29,44(1)
	.cfi_register 65, 0
	.cfi_offset 29, -12
	.cfi_offset 30, -8
	.cfi_offset 31, -4
	mr 31,1
	.loc 2 868 0
	lis 29,.LANCHOR0@ha
	.loc 2 866 0
	stw 0,60(1)
	.cfi_offset 65, 4
	.loc 2 868 0
	lwz 9,.LANCHOR0@l(29)
	.loc 2 866 0
	mr 30,4
	stwu 3,24(31)
	.loc 2 868 0
	addi 4,1,16
.LVL128:
	mtctr 9
	mr 3,31
.LVL129:
	bctrl
.LVL130:
	.loc 2 869 0
	lwz 9,.LANCHOR0@l(29)
	mr 3,31
	addi 4,1,12
	mtctr 9
	bctrl
.LVL131:
	.loc 2 870 0
	lwz 9,.LANCHOR0@l(29)
	addi 4,1,8
	mr 3,31
	mtctr 9
	bctrl
.LVL132:
	.loc 2 872 0
	addi 3,1,16
	bl clamp
.LVL133:
	.loc 2 873 0
	addi 3,1,12
	bl clamp
.LVL134:
	.loc 2 874 0
	addi 3,1,8
	bl clamp
.LVL135:
	.loc 2 876 0
	lis 9,.LC9@ha
	lfs 13,16(1)
	.loc 2 880 0
	addi 11,1,56
	.loc 2 876 0
	lfs 0,.LC9@l(9)
	addi 9,1,28
	fmuls 13,13,0
	fctiwz 13,13
	stfiwx 13,0,9
	.loc 2 877 0
	lfs 13,12(1)
	.loc 2 876 0
	lwz 9,28(1)
	.loc 2 877 0
	fmuls 13,13,0
	.loc 2 876 0
	stb 9,0(30)
	.loc 2 877 0
	addi 9,1,32
	fctiwz 13,13
	stfiwx 13,0,9
	.loc 2 878 0
	lfs 13,8(1)
	.loc 2 877 0
	lwz 9,32(1)
	.loc 2 878 0
	fmuls 0,13,0
	.loc 2 877 0
	stb 9,1(30)
	.loc 2 878 0
	addi 9,1,36
	fctiwz 0,0
	stfiwx 0,0,9
	lwz 9,36(1)
	.loc 2 880 0
	.loc 2 878 0
	stb 9,2(30)
	.loc 2 879 0
	li 9,-1
	stb 9,3(30)
	.loc 2 880 0
	b _restgpr_29_x
	.cfi_restore 31
	.cfi_restore 30
	.cfi_restore 29
	.cfi_restore 65
	.cfi_endproc
.LFE110:
	.size	getRGB, .-getRGB
	.align 2
	.type	getRGBA, @function
getRGBA:
.LFB112:
	.loc 2 901 0
	.cfi_startproc
.LVL136:
	stwu 1,-64(1)
	.cfi_def_cfa_offset 64
	mflr 0
	stmw 29,52(1)
	.cfi_register 65, 0
	.cfi_offset 29, -12
	.cfi_offset 30, -8
	.cfi_offset 31, -4
	mr 31,1
	.loc 2 903 0
	lis 30,.LANCHOR0@ha
	.loc 2 901 0
	stw 0,68(1)
	.cfi_offset 65, 4
	.loc 2 903 0
	lwz 9,.LANCHOR0@l(30)
	.loc 2 901 0
	mr 29,4
	stwu 3,24(31)
	.loc 2 903 0
	addi 4,1,20
.LVL137:
	mtctr 9
	mr 3,31
.LVL138:
	bctrl
.LVL139:
	.loc 2 904 0
	lwz 9,.LANCHOR0@l(30)
	mr 3,31
	addi 4,1,16
	mtctr 9
	bctrl
.LVL140:
	.loc 2 905 0
	lwz 9,.LANCHOR0@l(30)
	mr 3,31
	addi 4,1,12
	mtctr 9
	bctrl
.LVL141:
	.loc 2 906 0
	lwz 9,.LANCHOR0@l(30)
	addi 4,1,8
	mr 3,31
	mtctr 9
	bctrl
.LVL142:
	.loc 2 908 0
	addi 3,1,20
	bl clamp
.LVL143:
	.loc 2 909 0
	addi 3,1,16
	bl clamp
.LVL144:
	.loc 2 910 0
	addi 3,1,12
	bl clamp
.LVL145:
	.loc 2 911 0
	addi 3,1,8
	bl clamp
.LVL146:
	.loc 2 913 0
	lis 9,.LC9@ha
	lfs 13,20(1)
	.loc 2 917 0
	addi 11,1,64
	.loc 2 913 0
	lfs 0,.LC9@l(9)
	addi 9,1,28
	fmuls 13,13,0
	fctiwz 13,13
	stfiwx 13,0,9
	.loc 2 914 0
	lfs 13,16(1)
	.loc 2 913 0
	lwz 9,28(1)
	.loc 2 914 0
	fmuls 13,13,0
	.loc 2 913 0
	stb 9,0(29)
	.loc 2 914 0
	addi 9,1,32
	fctiwz 13,13
	stfiwx 13,0,9
	.loc 2 915 0
	lfs 13,12(1)
	.loc 2 914 0
	lwz 9,32(1)
	.loc 2 915 0
	fmuls 13,13,0
	.loc 2 914 0
	stb 9,1(29)
	.loc 2 915 0
	addi 9,1,36
	fctiwz 13,13
	stfiwx 13,0,9
	.loc 2 916 0
	lfs 13,8(1)
	.loc 2 915 0
	lwz 9,36(1)
	.loc 2 916 0
	fmuls 0,13,0
	.loc 2 915 0
	stb 9,2(29)
	.loc 2 916 0
	addi 9,1,40
	fctiwz 0,0
	stfiwx 0,0,9
	lwz 9,40(1)
	.loc 2 917 0
	.loc 2 916 0
	stb 9,3(29)
	.loc 2 917 0
	b _restgpr_29_x
	.cfi_restore 31
	.cfi_restore 30
	.cfi_restore 29
	.cfi_restore 65
	.cfi_endproc
.LFE112:
	.size	getRGBA, .-getRGBA
	.align 2
	.type	putI8, @function
putI8:
.LFB114:
	.loc 2 943 0
	.cfi_startproc
.LVL147:
	mflr 0
	stwu 1,-16(1)
	.cfi_def_cfa_offset 16
	.cfi_register 65, 0
	mr 9,3
	stw 31,12(1)
	.cfi_offset 31, -4
	mr 31,4
	stw 0,20(1)
	.cfi_offset 65, 4
	.loc 2 944 0
	lbz 3,0(3)
.LVL148:
	lbz 4,1(9)
.LVL149:
	lbz 5,2(9)
	bl GetIlum
.LVL150:
.LBB1190:
.LBB1191:
	.loc 2 122 0
	lwz 9,0(31)
.LBE1191:
.LBE1190:
	.loc 2 945 0
	addi 11,1,16
.LBB1193:
.LBB1192:
	.loc 2 122 0
	addi 10,9,1
	stw 10,0(31)
	stb 3,0(9)
.LBE1192:
.LBE1193:
	.loc 2 945 0
	b _restgpr_31_x
	.cfi_restore 31
	.cfi_restore 65
	.cfi_endproc
.LFE114:
	.size	putI8, .-putI8
	.align 2
	.type	putA8, @function
putA8:
.LFB115:
	.loc 2 947 0
	.cfi_startproc
.LVL151:
.LBB1194:
.LBB1195:
	.loc 2 122 0
	lwz 9,0(4)
.LBE1195:
.LBE1194:
	.loc 2 948 0
	lbz 10,3(3)
.LVL152:
.LBB1197:
.LBB1196:
	.loc 2 122 0
	addi 8,9,1
	stw 8,0(4)
.LVL153:
	stb 10,0(9)
	blr
.LBE1196:
.LBE1197:
	.cfi_endproc
.LFE115:
	.size	putA8, .-putA8
	.align 2
	.type	putIA8, @function
putIA8:
.LFB117:
	.loc 2 955 0
	.cfi_startproc
.LVL154:
	mflr 0
	stwu 1,-16(1)
	.cfi_def_cfa_offset 16
	.cfi_register 65, 0
	stmw 30,8(1)
	.cfi_offset 30, -8
	.cfi_offset 31, -4
	mr 30,3
	stw 0,20(1)
	.cfi_offset 65, 4
	.loc 2 955 0
	mr 31,4
	.loc 2 956 0
	lbz 5,2(30)
	lbz 3,0(3)
.LVL155:
	lbz 4,1(30)
.LVL156:
	bl GetIlum
.LVL157:
.LBB1198:
.LBB1199:
	.loc 2 122 0
	lwz 9,0(31)
.LBE1199:
.LBE1198:
	.loc 2 958 0
	addi 11,1,16
.LBB1201:
.LBB1200:
	.loc 2 122 0
	addi 10,9,1
	stw 10,0(31)
	stb 3,0(9)
.LBE1200:
.LBE1201:
.LBB1202:
.LBB1203:
	lwz 9,0(31)
.LBE1203:
.LBE1202:
	.loc 2 957 0
	lbz 10,3(30)
.LVL158:
.LBB1205:
.LBB1204:
	.loc 2 122 0
	addi 8,9,1
	stw 8,0(31)
.LVL159:
	stb 10,0(9)
.LBE1204:
.LBE1205:
	.loc 2 958 0
	b _restgpr_30_x
	.cfi_restore 31
	.cfi_restore 30
	.cfi_restore 65
	.cfi_endproc
.LFE117:
	.size	putIA8, .-putIA8
	.align 2
	.type	putIA8A, @function
putIA8A:
.LFB118:
	.loc 2 960 0
	.cfi_startproc
.LVL160:
.LBB1206:
.LBB1207:
	.loc 2 122 0
	lwz 9,0(4)
.LBE1207:
.LBE1206:
	.loc 2 961 0
	lbz 10,3(3)
.LVL161:
.LBB1209:
.LBB1208:
	.loc 2 122 0
	addi 8,9,1
	stw 8,0(4)
.LVL162:
	stb 10,0(9)
.LBE1208:
.LBE1209:
.LBB1210:
.LBB1211:
	lwz 9,0(4)
.LBE1211:
.LBE1210:
	.loc 2 962 0
	lbz 10,3(3)
.LVL163:
.LBB1213:
.LBB1212:
	.loc 2 122 0
	addi 8,9,1
	stw 8,0(4)
.LVL164:
	stb 10,0(9)
	blr
.LBE1212:
.LBE1213:
	.cfi_endproc
.LFE118:
	.size	putIA8A, .-putIA8A
	.align 2
	.type	put5A3, @function
put5A3:
.LFB119:
	.loc 2 965 0
	.cfi_startproc
.LVL165:
	.loc 2 965 0
	mr 9,3
	.loc 2 966 0
	mr 3,4
.LVL166:
	lbz 5,1(9)
	.loc 2 967 0
	.loc 2 966 0
	lbz 4,0(9)
.LVL167:
	lbz 6,2(9)
	lbz 7,3(9)
	b Put5A3
.LVL168:
	.cfi_endproc
.LFE119:
	.size	put5A3, .-put5A3
	.align 2
	.type	put565, @function
put565:
.LFB120:
	.loc 2 969 0
	.cfi_startproc
.LVL169:
.LBB1216:
.LBB1217:
	.loc 2 130 0
	lbz 10,0(3)
	lbz 9,1(3)
	rlwinm 10,10,8,16,20
	rlwinm 9,9,3,21,26
	or 9,10,9
	lbz 10,2(3)
	srwi 10,10,3
	or 10,10,9
.LVL170:
	.loc 2 132 0
	lwz 9,0(4)
	addi 8,9,2
	stw 8,0(4)
.LVL171:
	sth 10,0(9)
	blr
.LBE1217:
.LBE1216:
	.cfi_endproc
.LFE120:
	.size	put565, .-put565
	.align 2
	.type	putAR, @function
putAR:
.LFB121:
	.loc 2 973 0
	.cfi_startproc
.LVL172:
.LBB1218:
.LBB1219:
	.loc 2 122 0
	lwz 9,0(4)
.LBE1219:
.LBE1218:
	.loc 2 974 0
	lbz 10,3(3)
.LVL173:
.LBB1221:
.LBB1220:
	.loc 2 122 0
	addi 8,9,1
	stw 8,0(4)
.LVL174:
	stb 10,0(9)
.LBE1220:
.LBE1221:
.LBB1222:
.LBB1223:
	lwz 9,0(4)
.LBE1223:
.LBE1222:
	.loc 2 975 0
	lbz 10,0(3)
.LVL175:
.LBB1225:
.LBB1224:
	.loc 2 122 0
	addi 8,9,1
	stw 8,0(4)
.LVL176:
	stb 10,0(9)
	blr
.LBE1224:
.LBE1225:
	.cfi_endproc
.LFE121:
	.size	putAR, .-putAR
	.align 2
	.type	putGB, @function
putGB:
.LFB122:
	.loc 2 978 0
	.cfi_startproc
.LVL177:
.LBB1226:
.LBB1227:
	.loc 2 122 0
	lwz 9,0(4)
.LBE1227:
.LBE1226:
	.loc 2 979 0
	lbz 10,1(3)
.LVL178:
.LBB1229:
.LBB1228:
	.loc 2 122 0
	addi 8,9,1
	stw 8,0(4)
.LVL179:
	stb 10,0(9)
.LBE1228:
.LBE1229:
.LBB1230:
.LBB1231:
	lwz 9,0(4)
.LBE1231:
.LBE1230:
	.loc 2 980 0
	lbz 10,2(3)
.LVL180:
.LBB1233:
.LBB1232:
	.loc 2 122 0
	addi 8,9,1
	stw 8,0(4)
.LVL181:
	stb 10,0(9)
	blr
.LBE1232:
.LBE1233:
	.cfi_endproc
.LFE122:
	.size	putGB, .-putGB
	.align 2
	.type	putIA4, @function
putIA4:
.LFB116:
	.loc 2 951 0
	.cfi_startproc
.LVL182:
	mflr 0
	stwu 1,-16(1)
	.cfi_def_cfa_offset 16
	.cfi_register 65, 0
	stmw 30,8(1)
	.cfi_offset 30, -8
	.cfi_offset 31, -4
	mr 31,3
	stw 0,20(1)
	.cfi_offset 65, 4
	.loc 2 951 0
	mr 30,4
	.loc 2 952 0
	lbz 3,0(3)
.LVL183:
	lbz 4,1(31)
.LVL184:
	lbz 5,2(31)
	bl GetIlum
.LVL185:
.LBB1236:
.LBB1237:
	.loc 2 115 0
	lbz 9,3(31)
	rlwinm 3,3,0,24,27
.LVL186:
.LBE1237:
.LBE1236:
	.loc 2 953 0
	addi 11,1,16
.LBB1239:
.LBB1238:
	.loc 2 115 0
	srwi 9,9,4
	or 3,3,9
.LVL187:
	.loc 2 116 0
	lwz 9,0(30)
	addi 10,9,1
	stw 10,0(30)
.LVL188:
	stb 3,0(9)
.LBE1238:
.LBE1239:
	.loc 2 953 0
	b _restgpr_30_x
	.cfi_restore 31
	.cfi_restore 30
	.cfi_restore 65
	.cfi_endproc
.LFE116:
	.size	putIA4, .-putIA4
	.align 2
	.globl glPixelTransferf
	.type	glPixelTransferf, @function
glPixelTransferf:
.LFB68:
	.loc 2 56 0
	.cfi_startproc
.LVL189:
	.loc 2 57 0
	addi 3,3,-3348
.LVL190:
	cmplwi 7,3,9
	bgt- 7,.L84
	lis 9,.L86@ha
	slwi 3,3,2
.LVL191:
	la 9,.L86@l(9)
	lwzx 10,9,3
	add 9,10,9
	mtctr 9
	bctr
	.section	.rodata
	.align 2
	.align 2
.L86:
	.long .L87-.L86
	.long .L87-.L86
	.long .L84-.L86
	.long .L84-.L86
	.long .L89-.L86
	.long .L89-.L86
	.long .L91-.L86
	.long .L91-.L86
	.long .L92-.L86
	.long .L93-.L86
	.section	".text"
.L87:
	.loc 2 60 0
	lis 9,Trans@ha
	stfs 1,Trans@l(9)
	blr
.L89:
	.loc 2 62 0
	lis 9,Trans+8@ha
	stfs 1,Trans+8@l(9)
	blr
.L91:
	.loc 2 64 0
	lis 9,Trans+16@ha
	stfs 1,Trans+16@l(9)
	blr
.L92:
	.loc 2 65 0
	lis 9,Trans+24@ha
	stfs 1,Trans+24@l(9)
	blr
.L93:
	.loc 2 66 0
	lis 9,Trans+28@ha
	stfs 1,Trans+28@l(9)
	blr
.L84:
	.loc 2 74 0
	lis 4,.LC18@ha
	li 3,1280
	la 4,.LC18@l(4)
	li 5,74
	.loc 2 77 0
	.loc 2 74 0
	b _glSetErrorEx
.LVL192:
	.cfi_endproc
.LFE68:
	.size	glPixelTransferf, .-glPixelTransferf
	.align 2
	.globl glPixelTransferi
	.type	glPixelTransferi, @function
glPixelTransferi:
.LFB67:
	.loc 2 51 0
	.cfi_startproc
.LVL193:
	stwu 1,-16(1)
	.cfi_def_cfa_offset 16
	.loc 2 52 0
	lis 9,0x4330
	xoris 4,4,0x8000
.LVL194:
	stw 9,8(1)
	lis 9,.LC6@ha
	stw 4,12(1)
	lfs 1,.LC6@l(9)
	lfd 0,8(1)
	.loc 2 53 0
	addi 1,1,16
	.cfi_def_cfa_offset 0
	.loc 2 52 0
	fsub 1,0,1
	frsp 1,1
	b glPixelTransferf
.LVL195:
	.cfi_endproc
.LFE67:
	.size	glPixelTransferi, .-glPixelTransferi
	.align 2
	.globl _glGetPixelTransferf
	.type	_glGetPixelTransferf, @function
_glGetPixelTransferf:
.LFB69:
	.loc 2 80 0
	.cfi_startproc
	stwu 1,-16(1)
	.cfi_def_cfa_offset 16
	mflr 0
	stmw 30,8(1)
	.cfi_register 65, 0
	.cfi_offset 30, -8
	.cfi_offset 31, -4
	.loc 2 81 0
	mr. 31,4
	.loc 2 80 0
	stw 0,20(1)
	.cfi_offset 65, 4
	.loc 2 80 0
	mr 30,3
	.loc 2 81 0
	bne+ 0,.L98
	.loc 2 83 0
	lis 4,.LC18@ha
	li 3,1281
	la 4,.LC18@l(4)
	li 5,83
	bl _glSetErrorEx
.L98:
	.loc 2 87 0
	addi 3,30,-3344
	cmplwi 7,3,15
	bgt- 7,.L99
	lis 9,.L101@ha
	slwi 3,3,2
	la 9,.L101@l(9)
	lwzx 10,9,3
	add 9,10,9
	mtctr 9
	bctr
	.section	.rodata
	.align 2
	.align 2
.L101:
	.long .L100-.L101
	.long .L100-.L101
	.long .L100-.L101
	.long .L100-.L101
	.long .L103-.L101
	.long .L103-.L101
	.long .L99-.L101
	.long .L99-.L101
	.long .L105-.L101
	.long .L105-.L101
	.long .L107-.L101
	.long .L107-.L101
	.long .L108-.L101
	.long .L109-.L101
	.long .L110-.L101
	.long .L100-.L101
	.section	".text"
.L103:
	.loc 2 90 0
	lis 9,Trans@ha
	lfs 0,Trans@l(9)
	b .L113
.L105:
	.loc 2 92 0
	lis 9,Trans+8@ha
	lfs 0,Trans+8@l(9)
	b .L113
.L107:
	.loc 2 94 0
	lis 9,Trans+16@ha
	lfs 0,Trans+16@l(9)
	b .L113
.L108:
	.loc 2 95 0
	lis 9,Trans+24@ha
	lfs 0,Trans+24@l(9)
	b .L113
.L109:
	.loc 2 96 0
	lis 9,Trans+28@ha
	lfs 0,Trans+28@l(9)
	b .L113
.L110:
	.loc 2 97 0
	lis 9,.LC0@ha
	lfs 0,.LC0@l(9)
.L113:
	stfs 0,0(31)
	b .L97
.L100:
	.loc 2 102 0
	li 9,0
	stw 9,0(31)
	b .L97
.L99:
	.loc 2 108 0
	lwz 0,20(1)
	.loc 2 104 0
	lis 4,.LC18@ha
	.loc 2 108 0
	lmw 30,8(1)
	.loc 2 104 0
	li 3,1280
	.loc 2 108 0
	mtlr 0
	.cfi_remember_state
	.cfi_restore 65
	.loc 2 104 0
	la 4,.LC18@l(4)
	li 5,104
	.loc 2 108 0
	addi 1,1,16
	.cfi_restore 31
	.cfi_restore 30
	.cfi_def_cfa_offset 0
	.loc 2 104 0
	b _glSetErrorEx
.L97:
	.cfi_restore_state
	.loc 2 108 0
	addi 11,1,16
	b _restgpr_30_x
	.cfi_restore 31
	.cfi_restore 30
	.cfi_restore 65
	.cfi_endproc
.LFE69:
	.size	_glGetPixelTransferf, .-_glGetPixelTransferf
	.align 2
	.globl PlaceII
	.type	PlaceII, @function
PlaceII:
.LFB74:
	.loc 2 153 0
	.cfi_startproc
.LVL196:
	.loc 2 154 0
	cmpwi 0,6,0
	beq- 0,.L116
	cmplwi 7,6,1
	bnelr- 7
.LVL197:
.LBB1246:
.LBB1247:
	.loc 2 122 0
	lwz 9,0(5)
	addi 10,9,1
	stw 10,0(5)
	stb 3,0(9)
.LVL198:
.LBE1247:
.LBE1246:
.LBB1248:
.LBB1249:
	lwz 9,0(5)
	addi 10,9,1
	stw 10,0(5)
	stb 3,0(9)
	blr
.LVL199:
.L116:
.LBE1249:
.LBE1248:
.LBB1250:
.LBB1251:
	.loc 2 116 0
	lwz 9,0(5)
	.loc 2 115 0
	rlwinm 3,3,0,0,27
.LVL200:
	srwi 4,4,4
.LVL201:
	.loc 2 116 0
	addi 10,9,1
	.loc 2 115 0
	or 4,3,4
	.loc 2 116 0
	stw 10,0(5)
	stb 4,0(9)
	blr
.LBE1251:
.LBE1250:
	.cfi_endproc
.LFE74:
	.size	PlaceII, .-PlaceII
	.align 2
	.globl PlaceIA
	.type	PlaceIA, @function
PlaceIA:
.LFB75:
	.loc 2 162 0
	.cfi_startproc
.LVL202:
	.loc 2 163 0
	cmplwi 7,6,2
	beq- 7,.L120
	bgt+ 7,.L121
	cmplwi 7,6,1
	bnelr- 7
.LVL203:
.LBB1262:
.LBB1263:
	.loc 2 122 0
	lwz 9,0(5)
	addi 10,9,1
	stw 10,0(5)
	stb 3,0(9)
	blr
.LVL204:
.L121:
.LBE1263:
.LBE1262:
	.loc 2 163 0
	cmplwi 7,6,3
	beq- 7,.L123
	cmplwi 7,6,39
	beq+ 7,.L125
	blr
.L120:
.LVL205:
.LBB1264:
.LBB1265:
	.loc 2 116 0
	lwz 9,0(5)
	.loc 2 115 0
	srwi 4,4,4
.LVL206:
	rlwinm 3,3,0,0,27
.LVL207:
	.loc 2 116 0
	addi 10,9,1
	.loc 2 115 0
	or 4,4,3
	.loc 2 116 0
	stw 10,0(5)
	b .L126
.LVL208:
.L123:
.LBE1265:
.LBE1264:
.LBB1266:
.LBB1267:
	.loc 2 122 0
	lwz 9,0(5)
	addi 10,9,1
	stw 10,0(5)
	stb 3,0(9)
.LVL209:
.L125:
.LBE1267:
.LBE1266:
.LBB1268:
.LBB1269:
	lwz 9,0(5)
	addi 10,9,1
	stw 10,0(5)
.LVL210:
.L126:
	stb 4,0(9)
	blr
.LBE1269:
.LBE1268:
	.cfi_endproc
.LFE75:
	.size	PlaceIA, .-PlaceIA
	.align 2
	.globl Offset
	.type	Offset, @function
Offset:
.LFB77:
	.loc 2 178 0
	.cfi_startproc
.LVL211:
	cmplwi 7,4,39
	.loc 2 178 0
	li 9,0
	bgt- 7,.L128
	lis 9,.LANCHOR1@ha
	la 9,.LANCHOR1@l(9)
	lbzx 9,9,4
.L128:
.LVL212:
.LBB1270:
.LBB1271:
	.loc 1 343 0
	lwz 10,0(3)
	add 9,10,9
.LVL213:
	stw 9,0(3)
	blr
.LBE1271:
.LBE1270:
	.cfi_endproc
.LFE77:
	.size	Offset, .-Offset
	.align 2
	.globl ReadValue
	.type	ReadValue, @function
ReadValue:
.LFB86:
	.loc 2 268 0
	.cfi_startproc
.LVL214:
	.loc 2 269 0
	addi 4,4,-5120
.LVL215:
	.loc 2 268 0
	stwu 1,-72(1)
	.cfi_def_cfa_offset 72
	.loc 2 269 0
	cmplwi 7,4,6
	bgt- 7,.L130
	lis 9,.L133@ha
	slwi 4,4,2
.LVL216:
	la 9,.L133@l(9)
	lwzx 10,9,4
	add 9,10,9
	mtctr 9
.LBB1285:
	.loc 2 317 0
	lwz 9,0(3)
.LBE1285:
	.loc 2 269 0
	bctr
	.section	.rodata
	.align 2
	.align 2
.L133:
	.long .L132-.L133
	.long .L134-.L133
	.long .L135-.L133
	.long .L136-.L133
	.long .L137-.L133
	.long .L138-.L133
	.long .L139-.L133
	.section	".text"
.L134:
.LVL217:
.LBB1286:
	.loc 2 274 0
	addi 10,9,1
	stw 10,0(3)
.LVL218:
	.loc 2 275 0
	lbz 9,0(9)
.LVL219:
	xoris 9,9,0x8000
	stw 9,12(1)
.LVL220:
	lis 9,0x4330
.LVL221:
	stw 9,8(1)
	lis 9,.LC6@ha
	lfs 0,.LC6@l(9)
	lis 9,.LC9@ha
	lfd 13,8(1)
	fsub 0,13,0
	lfs 13,.LC9@l(9)
	frsp 0,0
	b .L147
.LVL222:
.L132:
.LBE1286:
.LBB1287:
	.loc 2 281 0
	addi 10,9,1
	stw 10,0(3)
	lis 10,.LC6@ha
.LBB1288:
.LBB1289:
	.loc 2 18 0
	lfs 0,.LC6@l(10)
.LBE1289:
.LBE1288:
	.loc 2 281 0
	lbz 9,0(9)
.LVL223:
.LBB1291:
.LBB1290:
	.loc 2 16 0
	extsb. 9,9
	.loc 2 18 0
	xoris 9,9,0x8000
	.loc 2 16 0
	blt- 0,.L140
	.loc 2 18 0
	stw 9,20(1)
	lis 9,0x4330
.LVL224:
	stw 9,16(1)
	lis 9,.LC7@ha
	lfd 13,16(1)
	fsub 0,13,0
	lfs 13,.LC7@l(9)
	frsp 0,0
	b .L147
.LVL225:
.L140:
	.loc 2 22 0
	stw 9,28(1)
	lis 9,0x4330
.LVL226:
	stw 9,24(1)
	lis 9,.LC8@ha
	lfd 13,24(1)
	fsub 0,13,0
	lfs 13,.LC8@l(9)
	frsp 0,0
	b .L146
.LVL227:
.L136:
.LBE1290:
.LBE1291:
.LBE1287:
.LBB1292:
	.loc 2 288 0
	addi 10,9,2
	stw 10,0(3)
.LVL228:
	.loc 2 289 0
	lhz 9,0(9)
.LVL229:
	xoris 9,9,0x8000
	stw 9,36(1)
.LVL230:
	lis 9,0x4330
.LVL231:
	stw 9,32(1)
	lis 9,.LC6@ha
	lfs 0,.LC6@l(9)
	lis 9,.LC12@ha
	lfd 13,32(1)
	fsub 0,13,0
	lfs 13,.LC12@l(9)
	frsp 0,0
	b .L147
.LVL232:
.L135:
.LBE1292:
.LBB1293:
	.loc 2 295 0
	addi 10,9,2
	stw 10,0(3)
	lis 10,.LC6@ha
.LBB1294:
.LBB1295:
	.loc 2 30 0
	lfs 0,.LC6@l(10)
.LBE1295:
.LBE1294:
	.loc 2 295 0
	lha 9,0(9)
.LVL233:
.LBB1297:
.LBB1296:
	.loc 2 28 0
	cmpwi 7,9,0
	.loc 2 30 0
	xoris 9,9,0x8000
	.loc 2 28 0
	blt- 7,.L142
	.loc 2 30 0
	stw 9,44(1)
	lis 9,0x4330
	stw 9,40(1)
	lis 9,.LC10@ha
	lfd 13,40(1)
	fsub 0,13,0
	lfs 13,.LC10@l(9)
	frsp 0,0
.LVL234:
.L147:
	fdivs 0,0,13
	b .L145
.LVL235:
.L142:
	.loc 2 34 0
	stw 9,52(1)
	lis 9,0x4330
	stw 9,48(1)
	lis 9,.LC11@ha
	lfd 13,48(1)
	fsub 0,13,0
	lfs 13,.LC11@l(9)
	frsp 0,0
	b .L146
.LVL236:
.L138:
.LBE1296:
.LBE1297:
.LBE1293:
.LBB1298:
	.loc 2 303 0
	addi 10,9,4
	stw 10,0(3)
.LVL237:
	.loc 2 304 0
	lwz 9,0(9)
.LVL238:
	stw 9,60(1)
	lis 9,0x4330
.LVL239:
	stw 9,56(1)
	lis 9,.LC3@ha
	lfs 0,.LC3@l(9)
	lis 9,.LC13@ha
	lfd 13,56(1)
	fsub 0,13,0
	lfs 13,.LC13@l(9)
	frsp 0,0
	b .L146
.LVL240:
.L137:
.LBE1298:
.LBB1299:
	.loc 2 310 0
	addi 10,9,4
	stw 10,0(3)
.LVL241:
.LBB1300:
.LBB1301:
	.loc 2 46 0
	lwz 9,0(9)
.LVL242:
	xoris 9,9,0x8000
.LVL243:
	stw 9,68(1)
.LVL244:
	lis 9,0x4330
.LVL245:
	stw 9,64(1)
	lis 9,.LC6@ha
	lfs 0,.LC6@l(9)
	lis 9,.LC14@ha
	lfd 13,64(1)
	fsub 0,13,0
	lfs 13,.LC14@l(9)
	frsp 0,0
.LVL246:
.L146:
	fmuls 0,0,13
	b .L145
.L139:
.LVL247:
.LBE1301:
.LBE1300:
.LBE1299:
.LBB1302:
	.loc 2 317 0
	addi 10,9,4
	stw 10,0(3)
	lfs 0,0(9)
.LVL248:
.L145:
	.loc 2 318 0
	stfs 0,0(5)
.LVL249:
.L130:
.LBE1302:
	.loc 2 322 0
	addi 1,1,72
	.cfi_def_cfa_offset 0
	blr
	.cfi_endproc
.LFE86:
	.size	ReadValue, .-ReadValue
	.align 2
	.globl pixel_offset
	.type	pixel_offset, @function
pixel_offset:
.LFB87:
	.loc 2 325 0
	.cfi_startproc
.LVL250:
	.loc 2 329 0
	cmplwi 7,5,32820
	bgt- 7,.L150
	cmplwi 7,5,32819
	bge- 7,.L151
	cmplwi 7,5,5122
	blt- 7,.L164
	cmplwi 7,5,5123
	ble- 7,.L151
	cmplwi 7,5,5126
	b .L175
.L150:
	cmplwi 7,5,33638
	bgt- 7,.L153
	cmplwi 7,5,33635
	bge- 7,.L151
	cmplwi 7,5,32822
	b .L175
.L153:
	cmplwi 7,5,33640
.L175:
	bgt- 7,.L164
.LVL251:
	.loc 2 354 0
	li 11,4
	.loc 2 355 0
	b .L149
.LVL252:
.L151:
	.loc 2 345 0
	li 11,2
	b .L149
.L164:
	.loc 2 335 0
	li 11,1
.LVL253:
.L149:
	.loc 2 361 0
	cmplwi 7,3,6408
	beq- 7,.L155
	bgt+ 7,.L156
	cmplwi 7,3,6403
	blt- 7,.L154
	cmplwi 7,3,6406
	bgt+ 7,.L158
	b .L165
.L156:
	cmplwi 7,3,6410
	.loc 2 368 0
	li 7,2
.LVL254:
	.loc 2 361 0
	beq- 7,.L157
	blt- 7,.L165
	xoris 7,3,0xffff
	cmpwi 7,7,-32544
	beq 7,.L158
	xoris 7,3,0xffff
	cmpwi 7,7,-32543
	beq 7,.L155
.L154:
	.loc 2 327 0
	li 7,0
	b .L157
.L158:
.LVL255:
	.loc 2 370 0
	li 7,3
	b .L157
.LVL256:
.L155:
	.loc 2 372 0
	li 7,4
	b .L157
.LVL257:
.L165:
	.loc 2 367 0
	li 7,1
.LVL258:
.L157:
	.loc 2 375 0
	cmplwi 7,5,32818
	blt- 7,.L161
	cmplwi 7,5,32822
	ble- 7,.L166
	addis 5,5,0xffff
.LVL259:
	addi 5,5,31902
.LVL260:
	cmplwi 7,5,6
	bgt- 7,.L161
.LVL261:
.L166:
	.loc 2 389 0
	li 7,1
.LVL262:
.L161:
	.loc 2 394 0
	lwz 5,4(10)
	cmpwi 7,5,0
	ble- 7,.L162
	.loc 2 396 0
	mr 6,5
.LVL263:
.L162:
	.loc 2 399 0
	mullw 7,7,11
.LVL264:
	.loc 2 401 0
	lwz 5,16(10)
	.loc 2 399 0
	mullw 6,6,7
.LVL265:
	.loc 2 401 0
	divwu 0,6,5
	mullw 0,0,5
.LVL266:
	.loc 2 403 0
	subf. 3,0,6
.LVL267:
	beq- 0,.L163
	.loc 2 405 0
	add 6,6,5
.LVL268:
	subf 6,3,6
.LVL269:
.L163:
	.loc 2 408 0
	lwz 3,12(10)
.LVL270:
	lwz 5,8(10)
	add 8,8,3
.LVL271:
	add 5,9,5
	mullw 7,7,8
	mullw 6,6,5
.LVL272:
	add 3,6,7
	.loc 2 409 0
	add 3,4,3
	blr
	.cfi_endproc
.LFE87:
	.size	pixel_offset, .-pixel_offset
	.align 2
	.globl ReadCompositeColor
	.type	ReadCompositeColor, @function
ReadCompositeColor:
.LFB88:
	.loc 2 412 0
	.cfi_startproc
.LVL273:
	.loc 2 414 0
	addis 3,3,0xffff
.LVL274:
	.loc 2 412 0
	stwu 1,-360(1)
	.cfi_def_cfa_offset 360
	.loc 2 414 0
	addi 3,3,32544
.LVL275:
	cmplwi 7,3,1
	bgt- 7,.L179
	mr 10,6
.LBB1303:
	.loc 2 420 0
	mr 6,8
.LVL276:
	.loc 2 421 0
	mr 8,10
.LVL277:
.L179:
.LBE1303:
	.loc 2 427 0
	xoris 10,4,0xffff
	cmpwi 7,10,-31902
	beq 7,.L181
	cmplwi 7,4,33634
	li 10,0
	bgt- 7,.L182
	ori 10,10,32820
	cmpw 7,4,10
	beq- 7,.L183
	cmplwi 7,4,32820
	li 10,0
	bgt- 7,.L184
	ori 10,10,32818
	cmpw 7,4,10
	beq- 7,.L185
	xoris 10,4,0xffff
	cmpwi 7,10,-32717
	bne 7,.L177
.LBB1304:
	.loc 2 471 0
	lhz 5,0(5)
.LVL278:
	.loc 2 473 0
	lis 10,0x4330
	stw 10,104(1)
	lis 3,.LC6@ha
.LVL279:
	srwi 4,5,12
.LVL280:
	lfs 13,.LC6@l(3)
	xoris 4,4,0x8000
	stw 4,108(1)
	lis 4,.LC22@ha
	lfd 0,104(1)
	fsub 12,0,13
	lfs 0,.LC22@l(4)
	frsp 12,12
	fdivs 12,12,0
	stfs 12,0(6)
	.loc 2 474 0
	rlwinm 6,5,24,28,31
.LVL281:
	xoris 6,6,0x8000
	stw 10,112(1)
	stw 6,116(1)
	lfd 11,112(1)
	fsub 12,11,13
	frsp 12,12
	fdivs 12,12,0
	stfs 12,0(7)
	.loc 2 475 0
	rlwinm 7,5,28,28,31
.LVL282:
	xoris 7,7,0x8000
	stw 10,120(1)
	stw 7,124(1)
	.loc 2 476 0
	rlwinm 5,5,0,28,31
.LVL283:
	xoris 5,5,0x8000
	.loc 2 475 0
	lfd 11,120(1)
	fsub 12,11,13
	frsp 12,12
	fdivs 12,12,0
	stfs 12,0(8)
	.loc 2 476 0
	stw 5,132(1)
	stw 10,128(1)
	lfd 12,128(1)
	b .L203
.LVL284:
.L184:
.LBE1304:
	.loc 2 427 0
	ori 10,10,32821
	cmpw 7,4,10
	beq- 7,.L187
	xoris 10,4,0xffff
	cmpwi 7,10,-32714
	bne 7,.L177
.LBB1305:
	.loc 2 531 0
	lwz 5,0(5)
.LVL285:
	.loc 2 533 0
	lis 10,0x4330
	stw 10,296(1)
	lis 3,.LC3@ha
	srwi 4,5,22
.LVL286:
	lfs 0,.LC3@l(3)
	stw 4,300(1)
	lis 4,.LC23@ha
	lfd 13,296(1)
	fsub 12,13,0
	lfs 13,.LC23@l(4)
	frsp 12,12
	fdivs 12,12,13
	stfs 12,0(6)
	.loc 2 534 0
	rlwinm 6,5,20,22,31
.LVL287:
	stw 10,304(1)
	stw 6,308(1)
	lfd 11,304(1)
	fsub 12,11,0
	frsp 12,12
	fdivs 12,12,13
	stfs 12,0(7)
	.loc 2 535 0
	rlwinm 7,5,30,22,31
.LVL288:
	stw 10,312(1)
	.loc 2 536 0
	rlwinm 5,5,0,30,31
.LVL289:
	.loc 2 535 0
	stw 7,316(1)
	lfd 11,312(1)
	fsub 12,11,0
	frsp 12,12
	fdivs 13,12,13
	stfs 13,0(8)
	.loc 2 536 0
	stw 10,320(1)
	lis 10,.LC4@ha
	stw 5,324(1)
	lfs 13,.LC4@l(10)
	lfd 12,320(1)
	fsub 0,12,0
	frsp 0,0
	fdivs 0,0,13
	b .L199
.LVL290:
.L182:
.LBE1305:
	.loc 2 427 0
	ori 10,10,33637
	cmpw 7,4,10
	beq- 7,.L189
	cmplwi 7,4,33637
	li 10,0
	bgt+ 7,.L190
	ori 10,10,33635
	cmpw 7,4,10
	beq- 7,.L191
	xoris 10,4,0xffff
	cmpwi 7,10,-31900
	bne 7,.L177
.LBB1306:
	.loc 2 461 0
	lhz 5,0(5)
.LVL291:
	.loc 2 463 0
	lis 10,0x4330
	stw 10,80(1)
	lis 3,.LC6@ha
	srwi 4,5,11
.LVL292:
	lfs 0,.LC6@l(3)
	xoris 4,4,0x8000
	stw 4,84(1)
	lis 4,.LC20@ha
	lfd 13,80(1)
	fsub 12,13,0
	lfs 13,.LC20@l(4)
	frsp 12,12
	fdivs 12,12,13
	stfs 12,0(8)
	.loc 2 464 0
	rlwinm 8,5,27,26,31
.LVL293:
	xoris 8,8,0x8000
	stw 10,88(1)
	stw 8,92(1)
	lis 8,.LC21@ha
	.loc 2 465 0
	rlwinm 5,5,0,27,31
.LVL294:
	.loc 2 464 0
	lfd 11,88(1)
	.loc 2 465 0
	xoris 5,5,0x8000
	.loc 2 464 0
	fsub 12,11,0
	lfs 11,.LC21@l(8)
	frsp 12,12
	fdivs 12,12,11
	stfs 12,0(7)
	.loc 2 465 0
	stw 5,100(1)
	stw 10,96(1)
	lfd 12,96(1)
	fsub 0,12,0
	b .L202
.LVL295:
.L190:
.LBE1306:
	.loc 2 427 0
	ori 10,10,33639
	cmpw 7,4,10
	beq- 7,.L193
	cmplwi 7,4,33639
	blt- 7,.L194
	xoris 10,4,0xffff
	cmpwi 7,10,-31896
	bne 7,.L177
.LBB1307:
	.loc 2 541 0
	lwz 5,0(5)
.LVL296:
	.loc 2 543 0
	lis 10,0x4330
	stw 10,328(1)
	lis 3,.LC3@ha
	srwi 4,5,30
.LVL297:
	lfs 0,.LC3@l(3)
	stw 4,332(1)
	lis 4,.LC4@ha
	lfs 12,.LC4@l(4)
	lfd 11,328(1)
	fsub 13,11,0
	frsp 13,13
	fdivs 13,13,12
	stfs 13,0(9)
	.loc 2 544 0
	rlwinm 9,5,12,22,31
.LVL298:
	stw 9,340(1)
	lis 9,.LC23@ha
	stw 10,336(1)
	lfd 13,336(1)
	fsub 12,13,0
	lfs 13,.LC23@l(9)
	.loc 2 545 0
	rlwinm 9,5,22,22,31
	.loc 2 546 0
	rlwinm 5,5,0,22,31
.LVL299:
	.loc 2 544 0
	frsp 12,12
	fdivs 12,12,13
	stfs 12,0(8)
	.loc 2 545 0
	stw 9,348(1)
	stw 10,344(1)
	lfd 11,344(1)
	fsub 12,11,0
	frsp 12,12
	fdivs 12,12,13
	stfs 12,0(7)
	.loc 2 546 0
	stw 5,356(1)
	stw 10,352(1)
	lfd 12,352(1)
	b .L200
.LVL300:
.L185:
.LBE1307:
.LBB1308:
	.loc 2 431 0
	lbz 5,0(5)
.LVL301:
	.loc 2 433 0
	lis 10,0x4330
	stw 10,8(1)
	lis 3,.LC6@ha
	rlwinm 4,5,27,30,31
.LVL302:
	lfs 0,.LC6@l(3)
	xoris 4,4,0x8000
	stw 4,12(1)
	lis 4,.LC19@ha
	lfs 13,.LC19@l(4)
	lfd 11,8(1)
	fsub 12,11,0
	frsp 12,12
	fdivs 12,12,13
	stfs 12,0(6)
	.loc 2 434 0
	rlwinm 6,5,30,29,31
.LVL303:
	xoris 6,6,0x8000
	stw 10,16(1)
	stw 6,20(1)
	.loc 2 435 0
	rlwinm 5,5,0,30,31
.LVL304:
	xoris 5,5,0x8000
	.loc 2 434 0
	lfd 11,16(1)
	fsub 12,11,0
	frsp 12,12
	fdivs 13,12,13
	stfs 13,0(7)
	.loc 2 435 0
	stw 10,24(1)
	lis 10,.LC4@ha
	stw 5,28(1)
	lfs 13,.LC4@l(10)
	lfd 12,24(1)
	fsub 0,12,0
	frsp 0,0
	fdivs 0,0,13
	stfs 0,0(8)
	b .L198
.LVL305:
.L181:
.LBE1308:
.LBB1309:
	.loc 2 441 0
	lbz 5,0(5)
.LVL306:
	.loc 2 443 0
	lis 10,0x4330
	stw 10,32(1)
	lis 3,.LC6@ha
	srwi 4,5,6
.LVL307:
	lfs 0,.LC6@l(3)
	xoris 4,4,0x8000
	stw 4,36(1)
	lis 4,.LC4@ha
	lfs 12,.LC4@l(4)
	lfd 11,32(1)
	fsub 13,11,0
	frsp 13,13
	fdivs 13,13,12
	stfs 13,0(8)
	.loc 2 444 0
	rlwinm 8,5,29,29,31
.LVL308:
	xoris 8,8,0x8000
	stw 10,40(1)
	stw 8,44(1)
	lis 8,.LC19@ha
	.loc 2 445 0
	rlwinm 5,5,0,29,31
.LVL309:
	.loc 2 444 0
	lfd 13,40(1)
	.loc 2 445 0
	xoris 5,5,0x8000
	.loc 2 444 0
	fsub 12,13,0
	lfs 13,.LC19@l(8)
	frsp 12,12
	fdivs 12,12,13
	stfs 12,0(7)
	.loc 2 445 0
	stw 5,52(1)
	stw 10,48(1)
	lfd 11,48(1)
	fsub 0,11,0
.L202:
	frsp 0,0
	fdivs 13,0,13
	stfs 13,0(6)
.LVL310:
.L198:
	.loc 2 446 0
	lis 10,.LC0@ha
	lfs 0,.LC0@l(10)
.LVL311:
.L199:
	stfs 0,0(9)
.LBE1309:
	.loc 2 448 0
	b .L177
.LVL312:
.L191:
.LBB1310:
	.loc 2 451 0
	lhz 5,0(5)
.LVL313:
	.loc 2 453 0
	lis 10,0x4330
	stw 10,56(1)
	lis 3,.LC6@ha
	srwi 4,5,11
.LVL314:
	lfs 0,.LC6@l(3)
	xoris 4,4,0x8000
	stw 4,60(1)
	lis 4,.LC20@ha
	lfd 13,56(1)
	fsub 12,13,0
	lfs 13,.LC20@l(4)
	frsp 12,12
	fdivs 12,12,13
	stfs 12,0(6)
	.loc 2 454 0
	rlwinm 6,5,27,26,31
.LVL315:
	xoris 6,6,0x8000
	stw 10,64(1)
	stw 6,68(1)
	lis 6,.LC21@ha
	.loc 2 455 0
	rlwinm 5,5,0,27,31
.LVL316:
	.loc 2 454 0
	lfd 11,64(1)
	.loc 2 455 0
	xoris 5,5,0x8000
	.loc 2 454 0
	fsub 12,11,0
	lfs 11,.LC21@l(6)
	frsp 12,12
	fdivs 12,12,11
	stfs 12,0(7)
	.loc 2 455 0
	stw 5,76(1)
	stw 10,72(1)
	lfd 12,72(1)
	fsub 0,12,0
	frsp 0,0
	fdivs 13,0,13
	stfs 13,0(8)
	b .L198
.LVL317:
.L189:
.LBE1310:
.LBB1311:
	.loc 2 481 0
	lhz 5,0(5)
.LVL318:
	.loc 2 483 0
	lis 10,0x4330
	stw 10,136(1)
	lis 3,.LC6@ha
	srwi 4,5,12
.LVL319:
	lfs 13,.LC6@l(3)
	xoris 4,4,0x8000
	stw 4,140(1)
	lis 4,.LC22@ha
	lfd 0,136(1)
	fsub 12,0,13
	lfs 0,.LC22@l(4)
	frsp 12,12
	fdivs 12,12,0
	stfs 12,0(9)
	.loc 2 484 0
	rlwinm 9,5,24,28,31
.LVL320:
	xoris 9,9,0x8000
	stw 10,144(1)
	stw 9,148(1)
	.loc 2 485 0
	rlwinm 9,5,28,28,31
	xoris 9,9,0x8000
	.loc 2 486 0
	rlwinm 5,5,0,28,31
.LVL321:
	.loc 2 484 0
	lfd 11,144(1)
	.loc 2 486 0
	xoris 5,5,0x8000
	.loc 2 484 0
	fsub 12,11,13
	frsp 12,12
	fdivs 12,12,0
	stfs 12,0(8)
	.loc 2 485 0
	stw 9,156(1)
	stw 10,152(1)
	lfd 11,152(1)
	fsub 12,11,13
	frsp 12,12
	fdivs 12,12,0
	stfs 12,0(7)
	.loc 2 486 0
	stw 5,164(1)
	stw 10,160(1)
	lfd 12,160(1)
	b .L201
.LVL322:
.L183:
.LBE1311:
.LBB1312:
	.loc 2 491 0
	lhz 5,0(5)
.LVL323:
	.loc 2 493 0
	lis 10,0x4330
	stw 10,168(1)
	lis 3,.LC6@ha
	srwi 4,5,11
.LVL324:
	lfs 0,.LC6@l(3)
	xoris 4,4,0x8000
	stw 4,172(1)
	lis 4,.LC20@ha
	lfd 13,168(1)
	fsub 12,13,0
	lfs 13,.LC20@l(4)
	frsp 12,12
	fdivs 12,12,13
	stfs 12,0(6)
	.loc 2 494 0
	rlwinm 6,5,26,27,31
.LVL325:
	xoris 6,6,0x8000
	stw 10,176(1)
	stw 6,180(1)
	lfd 11,176(1)
	fsub 12,11,0
	frsp 12,12
	fdivs 12,12,13
	stfs 12,0(7)
	.loc 2 495 0
	rlwinm 7,5,31,27,31
.LVL326:
	xoris 7,7,0x8000
	stw 10,184(1)
	stw 7,188(1)
	.loc 2 496 0
	rlwinm 5,5,0,31,31
.LVL327:
	xoris 5,5,0x8000
	.loc 2 495 0
	lfd 11,184(1)
	fsub 12,11,0
	frsp 12,12
	fdivs 13,12,13
	stfs 13,0(8)
	.loc 2 496 0
	stw 5,196(1)
	stw 10,192(1)
	lfd 12,192(1)
	fsub 0,12,0
	frsp 0,0
	b .L199
.LVL328:
.L194:
.LBE1312:
.LBB1313:
	.loc 2 501 0
	lhz 5,0(5)
.LVL329:
	.loc 2 503 0
	lis 10,0x4330
	stw 10,200(1)
	lis 3,.LC6@ha
	srwi 4,5,15
.LVL330:
	lfs 0,.LC6@l(3)
	xoris 4,4,0x8000
	stw 4,204(1)
	lfd 11,200(1)
	fsub 13,11,0
	frsp 13,13
	stfs 13,0(9)
	.loc 2 504 0
	rlwinm 9,5,22,27,31
.LVL331:
	xoris 9,9,0x8000
	stw 10,208(1)
	stw 9,212(1)
	lis 9,.LC20@ha
	lfd 13,208(1)
	fsub 12,13,0
	lfs 13,.LC20@l(9)
	.loc 2 505 0
	rlwinm 9,5,27,27,31
	.loc 2 506 0
	rlwinm 5,5,0,27,31
.LVL332:
	.loc 2 505 0
	xoris 9,9,0x8000
	.loc 2 506 0
	xoris 5,5,0x8000
	.loc 2 504 0
	frsp 12,12
	fdivs 12,12,13
	stfs 12,0(8)
	.loc 2 505 0
	stw 9,220(1)
	stw 10,216(1)
	lfd 11,216(1)
	fsub 12,11,0
	frsp 12,12
	fdivs 12,12,13
	stfs 12,0(7)
	.loc 2 506 0
	stw 5,228(1)
	stw 10,224(1)
	lfd 12,224(1)
	b .L200
.LVL333:
.L187:
.LBE1313:
.LBB1314:
	.loc 2 511 0
	lwz 5,0(5)
.LVL334:
	.loc 2 513 0
	lis 10,0x4330
	stw 10,232(1)
	lis 3,.LC3@ha
	srwi 4,5,24
.LVL335:
	lfs 13,.LC3@l(3)
	stw 4,236(1)
	lis 4,.LC9@ha
	lfd 0,232(1)
	fsub 12,0,13
	lfs 0,.LC9@l(4)
	frsp 12,12
	fdivs 12,12,0
	stfs 12,0(6)
	.loc 2 514 0
	rlwinm 6,5,16,24,31
.LVL336:
	stw 6,244(1)
	stw 10,240(1)
	lfd 11,240(1)
	fsub 12,11,13
	frsp 12,12
	fdivs 12,12,0
	stfs 12,0(7)
	.loc 2 515 0
	rlwinm 7,5,24,24,31
.LVL337:
	stw 7,252(1)
	.loc 2 516 0
	rlwinm 5,5,0,24,31
.LVL338:
	.loc 2 515 0
	stw 10,248(1)
	lfd 11,248(1)
	fsub 12,11,13
	frsp 12,12
	fdivs 12,12,0
	stfs 12,0(8)
	.loc 2 516 0
	stw 5,260(1)
	stw 10,256(1)
	lfd 12,256(1)
.L203:
	fsub 13,12,13
	frsp 13,13
	fdivs 0,13,0
	b .L199
.LVL339:
.L193:
.LBE1314:
.LBB1315:
	.loc 2 521 0
	lwz 5,0(5)
.LVL340:
	.loc 2 523 0
	lis 10,0x4330
	stw 10,264(1)
	lis 3,.LC3@ha
	srwi 4,5,24
.LVL341:
	lfs 13,.LC3@l(3)
	stw 4,268(1)
	lis 4,.LC9@ha
	lfd 0,264(1)
	fsub 12,0,13
	lfs 0,.LC9@l(4)
	frsp 12,12
	fdivs 12,12,0
	stfs 12,0(9)
	.loc 2 524 0
	rlwinm 9,5,16,24,31
.LVL342:
	stw 9,276(1)
	.loc 2 525 0
	rlwinm 9,5,24,24,31
	.loc 2 524 0
	stw 10,272(1)
	.loc 2 526 0
	rlwinm 5,5,0,24,31
.LVL343:
	.loc 2 524 0
	lfd 11,272(1)
	fsub 12,11,13
	frsp 12,12
	fdivs 12,12,0
	stfs 12,0(8)
	.loc 2 525 0
	stw 9,284(1)
	stw 10,280(1)
	lfd 11,280(1)
	fsub 12,11,13
	frsp 12,12
	fdivs 12,12,0
	stfs 12,0(7)
	.loc 2 526 0
	stw 5,292(1)
	stw 10,288(1)
	lfd 12,288(1)
.L201:
	fsub 13,12,13
	frsp 13,13
	fdivs 0,13,0
	stfs 0,0(6)
.LBE1315:
	.loc 2 528 0
	b .L177
.L200:
.LBB1316:
	.loc 2 546 0
	fsub 0,12,0
	frsp 0,0
	fdivs 13,0,13
	stfs 13,0(6)
.LVL344:
.L177:
.LBE1316:
	.loc 2 552 0
	addi 1,1,360
	.cfi_def_cfa_offset 0
	blr
	.cfi_endproc
.LFE88:
	.size	ReadCompositeColor, .-ReadCompositeColor
	.align 2
	.globl ReadColor
	.type	ReadColor, @function
ReadColor:
.LFB89:
	.loc 2 555 0
	.cfi_startproc
.LVL345:
	stwu 1,-40(1)
	.cfi_def_cfa_offset 40
.LVL346:
	mflr 0
	stmw 26,16(1)
	.cfi_register 65, 0
	.cfi_offset 26, -24
	.cfi_offset 27, -20
	.cfi_offset 28, -16
	.cfi_offset 29, -12
	.cfi_offset 30, -8
	.cfi_offset 31, -4
	mr 30,6
	mr 27,7
	.loc 2 556 0
	mr 6,10
.LVL347:
	.loc 2 555 0
	mr 28,8
	mr 29,9
	.loc 2 556 0
	lwz 7,48(1)
.LVL348:
	lis 10,unpack@ha
.LVL349:
	lwz 8,52(1)
.LVL350:
	.loc 2 555 0
	mr 31,5
	.loc 2 556 0
	lwz 9,56(1)
.LVL351:
	la 10,unpack@l(10)
	.loc 2 555 0
	stw 0,44(1)
	.cfi_offset 65, 4
	.loc 2 555 0
	mr 26,3
	stw 4,8(1)
	.loc 2 556 0
	bl pixel_offset
.LVL352:
	.loc 2 558 0
	cmplwi 7,31,32818
	.loc 2 556 0
	mr 5,3
	stw 3,8(1)
	.loc 2 558 0
	blt- 7,.L205
	cmplwi 7,31,32822
	ble- 7,.L206
	addis 9,31,0xffff
	addi 9,9,31902
	cmplwi 7,9,6
	bgt+ 7,.L205
.L206:
	.loc 2 572 0
	mr 3,26
	mr 4,31
	mr 6,30
	mr 7,27
	mr 8,28
	mr 9,29
	bl ReadCompositeColor
.LVL353:
	.loc 2 573 0
	b .L204
.L205:
	.loc 2 578 0
	cmplwi 7,26,6407
	beq- 7,.L208
	bgt- 7,.L209
	cmplwi 7,26,6404
	beq- 7,.L210
	bgt+ 7,.L211
	cmplwi 7,26,6403
	bne- 7,.L204
	.loc 2 581 0
	addi 3,1,8
.LVL354:
	mr 4,31
	mr 5,30
	bl ReadValue
.LVL355:
	.loc 2 582 0
	li 9,0
	stw 9,0(27)
	.loc 2 583 0
	stw 9,0(28)
	b .L223
.L211:
	.loc 2 578 0
	cmplwi 7,26,6405
	beq- 7,.L213
	cmplwi 7,26,6406
	bne- 7,.L204
	.loc 2 599 0
	li 9,0
	stw 9,0(30)
	.loc 2 600 0
	stw 9,0(27)
	.loc 2 601 0
	stw 9,0(28)
	b .L222
.L209:
	.loc 2 578 0
	cmplwi 7,26,6410
	beq- 7,.L215
	bgt- 7,.L216
	cmplwi 7,26,6408
	beq- 7,.L217
	cmplwi 7,26,6409
	bne- 7,.L204
	.loc 2 629 0
	addi 3,1,8
.LVL356:
	mr 4,31
	mr 5,30
	bl ReadValue
.LVL357:
	.loc 2 630 0
	lfs 0,0(30)
	stfs 0,0(27)
	.loc 2 631 0
	lfs 0,0(30)
	stfs 0,0(28)
	b .L223
.L216:
	.loc 2 578 0
	xoris 9,26,0xffff
	cmpwi 7,9,-32544
	beq 7,.L219
	xoris 9,26,0xffff
	cmpwi 7,9,-32543
	bne 7,.L204
	.loc 2 623 0
	addi 3,1,8
.LVL358:
	mr 4,31
	mr 5,28
	bl ReadValue
.LVL359:
	.loc 2 624 0
	addi 3,1,8
.LVL360:
	mr 4,31
	mr 5,27
	bl ReadValue
.LVL361:
	.loc 2 625 0
	addi 3,1,8
.LVL362:
	mr 4,31
	mr 5,30
	b .L225
.LVL363:
.L210:
	.loc 2 587 0
	li 26,0
.LVL364:
	.loc 2 588 0
	addi 3,1,8
.LVL365:
	.loc 2 587 0
	stw 26,0(30)
	.loc 2 588 0
	mr 4,31
	mr 5,27
	bl ReadValue
.LVL366:
	.loc 2 589 0
	stw 26,0(28)
	b .L223
.LVL367:
.L213:
	.loc 2 593 0
	li 9,0
	stw 9,0(30)
	.loc 2 594 0
	stw 9,0(27)
	b .L226
.L208:
	.loc 2 605 0
	addi 3,1,8
.LVL368:
	mr 4,31
	mr 5,30
	bl ReadValue
.LVL369:
	.loc 2 606 0
	addi 3,1,8
.LVL370:
	mr 4,31
	mr 5,27
	bl ReadValue
.LVL371:
.L226:
	.loc 2 607 0
	addi 3,1,8
.LVL372:
	mr 4,31
	mr 5,28
	b .L224
.LVL373:
.L219:
	.loc 2 611 0
	addi 3,1,8
.LVL374:
	mr 4,31
	mr 5,28
	bl ReadValue
.LVL375:
	.loc 2 612 0
	addi 3,1,8
.LVL376:
	mr 4,31
	mr 5,27
	bl ReadValue
.LVL377:
	.loc 2 613 0
	addi 3,1,8
.LVL378:
	mr 4,31
	mr 5,30
.LVL379:
.L224:
	bl ReadValue
.LVL380:
	b .L223
.L217:
	.loc 2 617 0
	addi 3,1,8
.LVL381:
	mr 4,31
	mr 5,30
	bl ReadValue
.LVL382:
	.loc 2 618 0
	addi 3,1,8
.LVL383:
	mr 4,31
	mr 5,27
	bl ReadValue
.LVL384:
	.loc 2 619 0
	addi 3,1,8
.LVL385:
	mr 4,31
	mr 5,28
.LVL386:
.L225:
	.loc 2 625 0
	bl ReadValue
.LVL387:
	b .L222
.LVL388:
.L223:
	.loc 2 632 0
	lis 9,.LC0@ha
	lfs 0,.LC0@l(9)
	stfs 0,0(29)
	.loc 2 633 0
	b .L204
.LVL389:
.L215:
	.loc 2 635 0
	addi 3,1,8
.LVL390:
	mr 4,31
	mr 5,30
	bl ReadValue
.LVL391:
	.loc 2 636 0
	lfs 0,0(30)
	stfs 0,0(27)
	.loc 2 637 0
	lfs 0,0(30)
	stfs 0,0(28)
.L222:
	.loc 2 638 0
	addi 3,1,8
.LVL392:
	mr 4,31
	mr 5,29
	bl ReadValue
.LVL393:
.L204:
	.loc 2 643 0
	addi 11,1,40
.LVL394:
	b _restgpr_26_x
	.cfi_restore 31
	.cfi_restore 30
	.cfi_restore 29
	.cfi_restore 28
	.cfi_restore 27
	.cfi_restore 26
	.cfi_restore 65
	.cfi_endproc
.LFE89:
	.size	ReadColor, .-ReadColor
	.align 2
	.globl setSrcColorFunc
	.type	setSrcColorFunc, @function
setSrcColorFunc:
.LFB113:
	.loc 2 920 0
	.cfi_startproc
.LVL395:
	.loc 2 921 0
	addi 3,3,-5120
.LVL396:
	cmplwi 7,3,6
	bgtlr- 7
	lis 9,.L230@ha
	slwi 3,3,2
.LVL397:
	la 9,.L230@l(9)
	lwzx 10,9,3
	add 10,10,9
	lis 9,.LANCHOR0@ha
	mtctr 10
	bctr
	.section	.rodata
	.align 2
	.align 2
.L230:
	.long .L229-.L230
	.long .L231-.L230
	.long .L232-.L230
	.long .L233-.L230
	.long .L234-.L230
	.long .L235-.L230
	.long .L236-.L230
	.section	".text"
.L231:
	.loc 2 924 0
	lis 10,getUBYTE@ha
	la 10,getUBYTE@l(10)
	b .L237
.L229:
	.loc 2 926 0
	lis 10,getBYTE@ha
	la 10,getBYTE@l(10)
	b .L237
.L232:
	.loc 2 928 0
	lis 10,getSHORT@ha
	la 10,getSHORT@l(10)
	b .L237
.L233:
	.loc 2 930 0
	lis 10,getUSHORT@ha
	la 10,getUSHORT@l(10)
	b .L237
.L235:
	.loc 2 932 0
	lis 10,getUINT@ha
	la 10,getUINT@l(10)
	b .L237
.L234:
	.loc 2 934 0
	lis 10,getINT@ha
	la 10,getINT@l(10)
	b .L237
.L236:
	.loc 2 936 0
	lis 10,getFLOAT@ha
	la 10,getFLOAT@l(10)
.L237:
	stw 10,.LANCHOR0@l(9)
	blr
	.cfi_endproc
.LFE113:
	.size	setSrcColorFunc, .-setSrcColorFunc
	.align 2
	.globl TransferPixelsFast
	.type	TransferPixelsFast, @function
TransferPixelsFast:
.LFB129:
	.loc 2 1067 0
	.cfi_startproc
.LVL398:
	stwu 1,-144(1)
	.cfi_def_cfa_offset 144
.LVL399:
	mfcr 12
	mflr 0
	stw 3,24(1)
	lwz 3,156(1)
.LVL400:
	stmw 14,72(1)
	.cfi_register 70, 12
	.cfi_register 65, 0
	.cfi_offset 14, -72
	.cfi_offset 15, -68
	.cfi_offset 16, -64
	.cfi_offset 17, -60
	.cfi_offset 18, -56
	.cfi_offset 19, -52
	.cfi_offset 20, -48
	.cfi_offset 21, -44
	.cfi_offset 22, -40
	.cfi_offset 23, -36
	.cfi_offset 24, -32
	.cfi_offset 25, -28
	.cfi_offset 26, -24
	.cfi_offset 27, -20
	.cfi_offset 28, -16
	.cfi_offset 29, -12
	.cfi_offset 30, -8
	.cfi_offset 31, -4
	mr 19,4
	.loc 2 1072 0
	cmplwi 7,3,32820
	.loc 2 1067 0
	stw 0,148(1)
	stw 12,68(1)
	.cfi_offset 65, 4
	.cfi_offset 70, -76
	.loc 2 1067 0
	mr 31,6
	mr 27,8
	lwz 18,152(1)
	lwz 26,160(1)
	lwz 25,164(1)
	.loc 2 1072 0
	bgt- 7,.L240
	cmplwi 7,3,32819
	bge- 7,.L241
	cmplwi 7,3,5122
	blt- 7,.L2756
	cmplwi 7,3,5123
	ble- 7,.L241
	cmplwi 7,3,5126
	b .L3149
.L240:
	cmplwi 7,3,33638
	bgt- 7,.L243
	cmplwi 7,3,33635
	bge- 7,.L241
	cmplwi 7,3,32822
	b .L3149
.L243:
	cmplwi 7,3,33640
.LVL401:
.L3149:
	bgt- 7,.L2756
.LVL402:
	.loc 2 1097 0
	li 29,4
	.loc 2 1098 0
	b .L239
.LVL403:
.L241:
	.loc 2 1088 0
	li 29,2
	b .L239
.L2756:
	.loc 2 1078 0
	li 29,1
.LVL404:
.L239:
	.loc 2 1104 0
	cmplwi 7,18,6408
	beq- 7,.L245
	bgt+ 7,.L246
	cmplwi 7,18,6403
	blt- 7,.L2757
	cmplwi 7,18,6406
	bgt+ 7,.L248
	b .L247
.L246:
	cmplwi 7,18,6410
	beq- 7,.L2758
	blt- 7,.L247
	xoris 9,18,0xffff
.LVL405:
	cmpwi 7,9,-32544
	beq 7,.L248
	xoris 9,18,0xffff
	cmpwi 7,9,-32543
	beq 7,.L245
	b .L2757
.LVL406:
.L247:
	.loc 2 1110 0
	li 9,1
.LVL407:
	b .L244
.L248:
.LVL408:
	.loc 2 1113 0
	li 9,3
	b .L244
.LVL409:
.L245:
	.loc 2 1115 0
	li 9,4
	b .L244
.LVL410:
.L2757:
	.loc 2 1070 0
	li 9,0
.LVL411:
.L244:
	.loc 2 1120 0
	addis 20,18,0xffff
	addi 20,20,32544
	.loc 2 1124 0
	subfic 20,20,1
	li 20,0
	adde 20,20,20
	b .L249
.LVL412:
.L2758:
	.loc 2 1111 0
	li 9,2
.LVL413:
	.loc 2 1118 0
	li 20,0
.LVL414:
.L249:
	.loc 2 1128 0
	cmplwi 7,3,32818
	blt- 7,.L251
	cmplwi 7,3,32822
	ble- 7,.L252
	addis 8,3,0xffff
.LVL415:
	addi 8,8,31902
	cmplwi 7,8,6
	bgt- 7,.L251
.L252:
	.loc 2 1142 0
	li 9,1
.L251:
.LVL416:
	.loc 2 1149 0
	lis 8,unpack@ha
	la 8,unpack@l(8)
	lwz 6,4(8)
.LVL417:
	cmpwi 7,6,0
	ble- 7,.L253
	.loc 2 1151 0
	mr 5,6
.LVL418:
.L253:
	.loc 2 1154 0
	mullw 29,9,29
.LVL419:
	.loc 2 1156 0
	lwz 9,16(8)
.LVL420:
	.loc 2 1154 0
	mullw 30,5,29
.LVL421:
	.loc 2 1156 0
	divwu 6,30,9
	mullw 6,6,9
.LVL422:
	.loc 2 1158 0
	subf. 4,6,30
.LVL423:
	beq- 0,.L254
	.loc 2 1160 0
	add 30,30,9
.LVL424:
	subf 30,4,30
.LVL425:
.L254:
	.loc 2 1165 0
	lwz 9,8(8)
	cmplwi 7,19,39
	lwz 15,12(8)
	li 28,0
	mullw 9,30,9
	mullw 15,29,15
	add 15,9,15
	add 15,10,15
.LVL426:
	bgt- 7,.L255
	lis 9,.LANCHOR1@ha
	la 9,.LANCHOR1@l(9)
	add 9,9,19
	lbz 28,40(9)
.L255:
.LVL427:
	.loc 2 1319 0
	cmplwi 7,19,5
	.loc 2 1186 0
	lwz 24,168(1)
	.loc 2 1187 0
	lwz 23,172(1)
	.loc 2 1189 0
	divwu 22,5,31
	.loc 2 1186 0
	add 24,26,24
.LVL428:
	.loc 2 1187 0
	add 23,25,23
.LVL429:
	.loc 2 1190 0
	divwu 21,7,27
.LVL430:
	.loc 2 1319 0
	bne+ 7,.L256
	.loc 2 1319 0 is_stmt 0 discriminator 1
	xoris 9,3,0xffff
	cmpwi 7,9,-32716
	bne 7,.L257
	.loc 2 1321 0 is_stmt 1
	cmpwi 7,20,0
.LBB2461:
	.loc 2 1323 0
	li 4,0
.LVL431:
	li 20,0
.LVL432:
	mullw 0,28,31
	mullw 18,30,27
.LVL433:
	mullw 17,29,31
.LBE2461:
	.loc 2 1321 0
	bne- 7,.L259
.LVL434:
.L260:
	.loc 2 1323 0 discriminator 1
	cmpw 7,20,21
	blt+ 7,$+8
	b .L238
	.loc 2 1323 0 is_stmt 0
	li 11,0
	li 9,0
	li 3,0
	add 16,4,27
.L273:
.LVL435:
	.loc 2 1323 0 discriminator 1
	cmpw 7,3,22
	bge- 7,.L271
	add 6,9,31
	add 7,11,15
	stw 6,32(1)
	.loc 2 1323 0
	mr 8,4
	stw 7,28(1)
	li 10,0
.L272:
	.loc 2 1323 0 discriminator 1
	cmplw 7,8,16
	beq- 7,.L3153
.LVL436:
.LBB2476:
	.loc 2 1323 0 discriminator 2
	cmplw 7,8,23
	ble+ 7,$+8
	b .L238
	cmplw 7,8,25
	blt- 7,.L262
.LBB2462:
.LBB2463:
.LBB2464:
	.loc 2 1009 0 is_stmt 1
	lwz 6,32(1)
.LBE2464:
.LBE2463:
.LBE2462:
	.loc 2 1323 0
	mr 5,9
	li 19,0
.LBB2471:
.LBB2467:
.LBB2465:
	.loc 2 1009 0
	subf 7,9,6
	addi 7,7,1
	mtctr 7
	b .L263
.L262:
.LVL437:
.LBE2465:
.LBE2467:
.LBE2471:
.LBB2472:
.LBB2473:
	.loc 1 343 0 discriminator 1
	lwz 7,24(1)
	add 7,7,0
	stw 7,24(1)
.LBE2473:
.LBE2472:
	.loc 2 1323 0 discriminator 1
	b .L264
.LVL438:
.L269:
.LBB2474:
	.loc 2 1323 0 is_stmt 0 discriminator 2
	cmplw 7,5,26
	lwz 7,24(1)
	bge- 7,.L3154
.L265:
.LVL439:
.LBB2468:
.LBB2469:
	.loc 1 343 0 is_stmt 1
	add 7,7,28
	stw 7,24(1)
.LVL440:
.L267:
	add 19,19,29
	addi 5,5,1
.LVL441:
.L263:
.LBE2469:
.LBE2468:
.LBE2474:
	.loc 2 1323 0 discriminator 1
	bdnz .L269
	b .L264
.LVL442:
.L3154:
.LBB2475:
	.loc 2 1323 0 is_stmt 0 discriminator 2
	cmplw 7,5,24
	bgt+ 7,.L265
.LVL443:
	lwz 12,28(1)
	add 6,10,12
.LBB2470:
.LBB2466:
	.loc 2 1009 0 is_stmt 1 discriminator 1
	addi 12,7,2
	.loc 2 1005 0 discriminator 1
	lhzx 6,6,19
.LVL444:
	.loc 2 1009 0 discriminator 1
	stw 12,24(1)
	.loc 2 1007 0 discriminator 1
	andi. 14,6,1
	beq+ 0,.L268
	.loc 2 1009 0
	srwi 6,6,1
	li 12,-32768
	or 6,6,12
	sth 6,0(7)
.LVL445:
	b .L267
.LVL446:
.L268:
	.loc 2 1013 0
	rlwinm 14,6,29,24,27
	rlwinm 12,6,28,20,23
	or 12,14,12
	rlwinm 6,6,31,27,30
	or 12,12,6
	sth 12,0(7)
.LVL447:
	b .L267
.LVL448:
.L264:
	add 10,10,30
	addi 8,8,1
.LVL449:
	b .L272
.LVL450:
.L3153:
.LBE2466:
.LBE2470:
.LBE2475:
.LBE2476:
	.loc 2 1323 0 discriminator 3
	addi 3,3,1
.LVL451:
	add 9,9,31
	add 11,11,17
	b .L273
.L271:
	addi 20,20,1
.LVL452:
	mr 4,16
	add 15,15,18
	b .L260
.LVL453:
.L283:
	.loc 2 1327 0 discriminator 3
	addi 20,20,1
.LVL454:
	mr 4,16
	add 15,15,18
.LVL455:
.L259:
	.loc 2 1327 0 is_stmt 0 discriminator 1
	cmpw 7,20,21
	blt+ 7,$+8
	b .L238
	.loc 2 1327 0
	li 11,0
	li 8,0
	li 3,0
	add 16,4,27
.L285:
.LVL456:
	.loc 2 1327 0 discriminator 1
	cmpw 7,3,22
	bge- 7,.L283
	add 6,8,31
	add 9,11,15
	stw 6,32(1)
	.loc 2 1327 0
	mr 7,4
	stw 9,28(1)
	li 10,0
.L284:
	.loc 2 1327 0 discriminator 1
	cmplw 7,7,16
	beq- 7,.L3155
.LVL457:
.LBB2477:
	.loc 2 1327 0 discriminator 2
	cmplw 7,7,23
	ble+ 7,$+8
	b .L238
	cmplw 7,7,25
	blt- 7,.L274
.LBB2478:
.LBB2479:
.LBB2480:
	.loc 2 1025 0 is_stmt 1
	lwz 12,32(1)
.LBE2480:
.LBE2479:
.LBE2478:
	.loc 2 1327 0
	mr 5,8
	li 19,0
.LBB2487:
.LBB2483:
.LBB2481:
	.loc 2 1025 0
	subf 9,8,12
	addi 9,9,1
	mtctr 9
	b .L275
.L274:
.LVL458:
.LBE2481:
.LBE2483:
.LBE2487:
.LBB2488:
.LBB2489:
	.loc 1 343 0 discriminator 1
	lwz 9,24(1)
	add 9,9,0
	stw 9,24(1)
.LBE2489:
.LBE2488:
	.loc 2 1327 0 discriminator 1
	b .L276
.LVL459:
.L281:
.LBB2490:
	.loc 2 1327 0 is_stmt 0 discriminator 2
	cmplw 7,5,26
	lwz 6,24(1)
	bge- 7,.L3156
.L277:
.LVL460:
.LBB2484:
.LBB2485:
	.loc 1 343 0 is_stmt 1
	add 6,6,28
	stw 6,24(1)
.LVL461:
.L279:
	add 19,19,29
	addi 5,5,1
.LVL462:
.L275:
.LBE2485:
.LBE2484:
.LBE2490:
	.loc 2 1327 0 discriminator 1
	bdnz .L281
	b .L276
.LVL463:
.L3156:
.LBB2491:
	.loc 2 1327 0 is_stmt 0 discriminator 2
	cmplw 7,5,24
	bgt+ 7,.L277
.LVL464:
	lwz 14,28(1)
.LBB2486:
.LBB2482:
	.loc 2 1025 0 is_stmt 1 discriminator 1
	addi 12,6,2
	stw 12,24(1)
	add 9,10,14
	.loc 2 1021 0 discriminator 1
	lhzx 9,9,19
.LVL465:
	.loc 2 1023 0 discriminator 1
	andi. 12,9,1
	beq+ 0,.L280
	.loc 2 1025 0
	srwi 12,9,11
	li 14,-32768
.LVL466:
	or 12,12,14
	mtlr 12
	rlwinm 12,9,9,17,21
	rlwinm 9,9,31,22,26
	mflr 14
	or 12,14,12
	b .L3151
.LVL467:
.L280:
	.loc 2 1029 0
	rlwinm 12,9,29,24,27
	mtlr 12
	rlwinm 12,9,6,20,23
	srwi 9,9,12
	mflr 14
.LVL468:
	or 12,14,12
.L3151:
	or 12,12,9
	sth 12,0(6)
.LVL469:
	b .L279
.LVL470:
.L276:
	add 10,10,30
	addi 7,7,1
.LVL471:
	b .L284
.LVL472:
.L3155:
.LBE2482:
.LBE2486:
.LBE2491:
.LBE2477:
	.loc 2 1327 0 discriminator 3
	addi 3,3,1
.LVL473:
	add 8,8,31
	add 11,11,17
	b .L285
.LVL474:
.L257:
	.loc 2 1332 0 discriminator 1
	xoris 9,3,0xffff
	cmpwi 7,9,-31898
	bne 7,.L286
	.loc 2 1334 0
	cmpwi 7,20,0
	mullw 0,28,31
	mullw 18,30,27
.LVL475:
	mullw 17,29,31
	beq- 7,.L287
.LBB2492:
	.loc 2 1340 0
	li 5,0
.LVL476:
	li 11,0
	b .L288
.LVL477:
.L287:
.LBE2492:
.LBB2501:
	.loc 2 1336 0
	li 4,0
.LVL478:
	li 20,0
.LVL479:
.L289:
.LBE2501:
	.loc 2 1336 0 is_stmt 0 discriminator 1
	cmpw 7,20,21
	blt+ 7,$+8
	b .L238
	.loc 2 1336 0
	li 11,0
	li 8,0
	li 3,0
	add 16,4,27
.L301:
.LVL480:
	.loc 2 1336 0 discriminator 1
	cmpw 7,3,22
	bge- 7,.L299
	add 6,8,31
	add 9,11,15
	stw 6,32(1)
	.loc 2 1336 0
	mr 7,4
	stw 9,28(1)
	li 10,0
.L300:
	.loc 2 1336 0 discriminator 1
	cmplw 7,7,16
	beq- 7,.L3157
.LVL481:
.LBB2516:
	.loc 2 1336 0 discriminator 2
	cmplw 7,7,23
	ble+ 7,$+8
	b .L238
	cmplw 7,7,25
	blt- 7,.L290
.LBB2502:
.LBB2503:
.LBB2504:
	.loc 2 1041 0 is_stmt 1
	lwz 12,32(1)
.LBE2504:
.LBE2503:
.LBE2502:
	.loc 2 1336 0
	mr 5,8
	li 19,0
.LBB2511:
.LBB2507:
.LBB2505:
	.loc 2 1041 0
	subf 9,8,12
	addi 9,9,1
	mtctr 9
	b .L291
.L290:
.LVL482:
.LBE2505:
.LBE2507:
.LBE2511:
.LBB2512:
.LBB2513:
	.loc 1 343 0 discriminator 1
	lwz 9,24(1)
	add 9,9,0
	stw 9,24(1)
.LBE2513:
.LBE2512:
	.loc 2 1336 0 discriminator 1
	b .L292
.LVL483:
.L297:
.LBB2514:
	.loc 2 1336 0 is_stmt 0 discriminator 2
	cmplw 7,5,26
	lwz 6,24(1)
	bge- 7,.L3158
.L293:
.LVL484:
.LBB2508:
.LBB2509:
	.loc 1 343 0 is_stmt 1
	add 6,6,28
	stw 6,24(1)
.LVL485:
.L295:
	add 19,19,29
	addi 5,5,1
.LVL486:
.L291:
.LBE2509:
.LBE2508:
.LBE2514:
	.loc 2 1336 0 discriminator 1
	bdnz .L297
	b .L292
.LVL487:
.L3158:
.LBB2515:
	.loc 2 1336 0 is_stmt 0 discriminator 2
	cmplw 7,5,24
	bgt+ 7,.L293
.LVL488:
	lwz 14,28(1)
	add 9,10,14
.LBB2510:
.LBB2506:
	.loc 2 1037 0 is_stmt 1 discriminator 1
	lhzx 9,9,19
.LVL489:
	.loc 2 1039 0 discriminator 1
	extsh. 12,9
	bge+ 0,.L296
	.loc 2 1041 0
	addi 14,6,2
.LVL490:
	stw 14,24(1)
	rlwinm 14,9,22,27,31
	rlwinm 9,9,10,17,21
	or 9,14,9
	li 14,-31776
	and 12,12,14
	or 9,9,12
	sth 9,0(6)
.LVL491:
	b .L295
.LVL492:
.L296:
	.loc 2 1045 0
	addi 12,6,2
	stw 12,24(1)
	rlwinm 12,9,29,24,27
	mtlr 12
	rlwinm 12,9,7,20,23
	rlwinm 9,9,22,27,30
	mflr 14
.LVL493:
	or 12,14,12
	or 12,12,9
	sth 12,0(6)
.LVL494:
	b .L295
.LVL495:
.L292:
	add 10,10,30
	addi 7,7,1
.LVL496:
	b .L300
.LVL497:
.L3157:
.LBE2506:
.LBE2510:
.LBE2515:
.LBE2516:
	.loc 2 1336 0 discriminator 3
	addi 3,3,1
.LVL498:
	add 8,8,31
	add 11,11,17
	b .L301
.L299:
	addi 20,20,1
.LVL499:
	mr 4,16
	add 15,15,18
	b .L289
.LVL500:
.L311:
	.loc 2 1340 0 discriminator 3
	addi 11,11,1
.LVL501:
	mr 5,16
	add 15,15,18
.LVL502:
.L288:
	.loc 2 1340 0 is_stmt 0 discriminator 1
	cmpw 7,11,21
	blt+ 7,$+8
	b .L238
	.loc 2 1340 0
	li 3,0
	li 9,0
	li 4,0
	add 16,5,27
.L313:
.LVL503:
	.loc 2 1340 0 discriminator 1
	cmpw 7,4,22
	bge- 7,.L311
	add 6,3,15
	.loc 2 1340 0
	mr 10,5
	stw 6,28(1)
	li 20,0
	add 12,9,31
.L312:
	.loc 2 1340 0 discriminator 1
	cmplw 7,10,16
	beq- 7,.L3159
.LVL504:
.LBB2517:
	.loc 2 1340 0 discriminator 2
	cmplw 7,10,23
	ble+ 7,$+8
	b .L238
	cmplw 7,10,25
	blt- 7,.L302
	subf 8,9,12
	.loc 2 1340 0
	mr 7,9
	addi 8,8,1
	li 19,0
	mtctr 8
	b .L303
.L302:
.LVL505:
.LBB2493:
.LBB2494:
	.loc 1 343 0 is_stmt 1 discriminator 1
	lwz 8,24(1)
	add 8,8,0
	stw 8,24(1)
.LBE2494:
.LBE2493:
	.loc 2 1340 0 discriminator 1
	b .L304
.LVL506:
.L309:
.LBB2495:
	.loc 2 1340 0 is_stmt 0 discriminator 2
	cmplw 7,7,26
	lwz 8,24(1)
	bge- 7,.L3160
.L305:
.LVL507:
.LBB2496:
.LBB2497:
	.loc 1 343 0 is_stmt 1
	add 8,8,28
	stw 8,24(1)
.LVL508:
.L307:
	add 19,19,29
	addi 7,7,1
.LVL509:
.L303:
.LBE2497:
.LBE2496:
.LBE2495:
	.loc 2 1340 0 discriminator 1
	bdnz .L309
	b .L304
.LVL510:
.L3160:
.LBB2500:
	.loc 2 1340 0 is_stmt 0 discriminator 2
	cmplw 7,7,24
	bgt+ 7,.L305
.LVL511:
	lwz 14,28(1)
	add 6,20,14
.LBB2498:
.LBB2499:
	.loc 2 1057 0 is_stmt 1 discriminator 1
	addi 14,8,2
	.loc 2 1053 0 discriminator 1
	lhzx 6,6,19
.LVL512:
	.loc 2 1057 0 discriminator 1
	stw 14,24(1)
	.loc 2 1055 0 discriminator 1
	andi. 14,6,32768
	bne- 0,.L3152
	.loc 2 1061 0
	rlwinm 14,6,31,28,31
	rlwinm 6,6,29,20,27
	or 6,6,14
.L3152:
	sth 6,0(8)
.LVL513:
	b .L307
.LVL514:
.L304:
	add 20,20,30
	addi 10,10,1
.LVL515:
	b .L312
.LVL516:
.L3159:
.LBE2499:
.LBE2498:
.LBE2500:
.LBE2517:
	.loc 2 1340 0 discriminator 3
	addi 4,4,1
.LVL517:
	add 9,9,31
	add 3,3,17
	b .L313
.LVL518:
.L256:
	.loc 2 1345 0
	cmplwi 7,19,4
	bne+ 7,.L286
	.loc 2 1345 0 is_stmt 0 discriminator 1
	xoris 9,3,0xffff
	cmpwi 7,9,-31901
	bne 7,.L314
	.loc 2 1347 0 is_stmt 1
	cmpwi 7,20,0
	mullw 18,28,31
.LVL519:
	mullw 17,30,27
	mullw 16,29,31
	beq- 7,.L315
.LBB2518:
	.loc 2 1353 0
	li 6,0
	li 3,0
.LVL520:
	b .L316
.LVL521:
.L315:
.LBE2518:
.LBB2527:
	.loc 2 1349 0
	li 7,0
.LVL522:
	li 4,0
.LVL523:
.L317:
.LBE2527:
	.loc 2 1349 0 is_stmt 0 discriminator 1
	cmpw 7,4,21
	blt+ 7,$+8
	b .L238
	.loc 2 1349 0
	li 5,0
	li 9,0
	li 6,0
	add 0,7,27
.L328:
.LVL524:
	.loc 2 1349 0 discriminator 1
	cmpw 7,6,22
	bge- 7,.L326
	.loc 2 1349 0
	mr 10,7
	li 3,0
	add 14,9,31
	add 19,5,15
.L327:
	.loc 2 1349 0 discriminator 1
	cmplw 7,10,0
	beq- 7,.L3161
.LVL525:
.LBB2536:
	.loc 2 1349 0 discriminator 2
	cmplw 7,10,23
	ble+ 7,$+8
	b .L238
	cmplw 7,10,25
	blt- 7,.L318
	subf 20,9,14
	.loc 2 1349 0
	mr 8,9
	addi 20,20,1
	li 11,0
	mtctr 20
	b .L319
.L318:
.LVL526:
.LBB2528:
.LBB2529:
	.loc 1 343 0 is_stmt 1 discriminator 1
	lwz 8,24(1)
	add 8,8,18
	stw 8,24(1)
.LBE2529:
.LBE2528:
	.loc 2 1349 0 discriminator 1
	b .L320
.LVL527:
.L324:
.LBB2530:
	.loc 2 1349 0 is_stmt 0 discriminator 2
	cmplw 7,8,26
	lwz 20,24(1)
	bge- 7,.L3162
.L321:
.LVL528:
.LBB2531:
.LBB2532:
	.loc 1 343 0 is_stmt 1
	add 20,20,28
	stw 20,24(1)
.LVL529:
.L323:
	add 11,11,29
	addi 8,8,1
.LVL530:
.L319:
.LBE2532:
.LBE2531:
.LBE2530:
	.loc 2 1349 0 discriminator 1
	bdnz .L324
	b .L320
.LVL531:
.L3162:
.LBB2535:
	.loc 2 1349 0 is_stmt 0 discriminator 2
	cmplw 7,8,24
	bgt+ 7,.L321
.LVL532:
.LBB2533:
.LBB2534:
	.loc 2 997 0 is_stmt 1 discriminator 1
	addi 12,20,2
	stw 12,24(1)
	add 12,3,19
	lhzx 12,12,11
	sth 12,0(20)
	b .L323
.LVL533:
.L320:
	add 3,3,30
	addi 10,10,1
.LVL534:
	b .L327
.LVL535:
.L3161:
.LBE2534:
.LBE2533:
.LBE2535:
.LBE2536:
	.loc 2 1349 0 discriminator 3
	addi 6,6,1
.LVL536:
	add 9,9,31
	add 5,5,16
	b .L328
.L326:
	addi 4,4,1
.LVL537:
	mr 7,0
	add 15,15,17
	b .L317
.LVL538:
.L337:
	.loc 2 1353 0 discriminator 3
	addi 3,3,1
.LVL539:
	mr 6,19
	add 15,15,17
.LVL540:
.L316:
	.loc 2 1353 0 is_stmt 0 discriminator 1
	cmpw 7,3,21
	blt+ 7,$+8
	b .L238
	.loc 2 1353 0
	li 4,0
	li 9,0
	li 5,0
	add 19,6,27
.L339:
.LVL541:
	.loc 2 1353 0 discriminator 1
	cmpw 7,5,22
	bge- 7,.L337
	add 0,9,31
	add 7,4,15
	stw 0,32(1)
	.loc 2 1353 0
	mr 8,6
	stw 7,28(1)
	li 10,0
.L338:
	.loc 2 1353 0 discriminator 1
	cmplw 7,8,19
	beq- 7,.L3163
.LVL542:
.LBB2537:
	.loc 2 1353 0 discriminator 2
	cmplw 7,8,23
	ble+ 7,$+8
	b .L238
	cmplw 7,8,25
	blt- 7,.L329
	lwz 12,32(1)
	.loc 2 1353 0
	mr 7,9
	li 11,0
	subf 20,9,12
	addi 20,20,1
	mtctr 20
	b .L330
.L329:
.LVL543:
.LBB2519:
.LBB2520:
	.loc 1 343 0 is_stmt 1 discriminator 1
	lwz 7,24(1)
	add 7,7,18
	stw 7,24(1)
.LBE2520:
.LBE2519:
	.loc 2 1353 0 discriminator 1
	b .L331
.LVL544:
.L335:
.LBB2521:
	.loc 2 1353 0 is_stmt 0 discriminator 2
	cmplw 7,7,26
	lwz 20,24(1)
	bge- 7,.L3164
.L332:
.LVL545:
.LBB2522:
.LBB2523:
	.loc 1 343 0 is_stmt 1
	add 20,20,28
	stw 20,24(1)
.LVL546:
.L334:
	add 11,11,29
	addi 7,7,1
.LVL547:
.L330:
.LBE2523:
.LBE2522:
.LBE2521:
	.loc 2 1353 0 discriminator 1
	bdnz .L335
	b .L331
.LVL548:
.L3164:
.LBB2526:
	.loc 2 1353 0 is_stmt 0 discriminator 2
	cmplw 7,7,24
	bgt+ 7,.L332
.LVL549:
	lwz 14,28(1)
	add 12,10,14
.LBB2524:
.LBB2525:
	.loc 2 988 0 is_stmt 1 discriminator 1
	lhzx 0,12,11
.LVL550:
	.loc 2 990 0 discriminator 1
	addi 12,20,2
.LVL551:
	stw 12,24(1)
	rlwinm 12,0,0,21,26
	mtlr 12
	srwi 12,0,11
	slwi 0,0,11
	mflr 14
.LVL552:
	or 12,14,12
	or 0,12,0
	sth 0,0(20)
.LVL553:
	b .L334
.LVL554:
.L331:
	add 10,10,30
	addi 8,8,1
.LVL555:
	b .L338
.LVL556:
.L3163:
.LBE2525:
.LBE2524:
.LBE2526:
.LBE2537:
	.loc 2 1353 0 discriminator 3
	addi 5,5,1
.LVL557:
	add 9,9,31
	add 4,4,16
	b .L339
.LVL558:
.L314:
	.loc 2 1358 0 discriminator 1
	xoris 9,3,0xffff
	cmpwi 7,9,-31900
	bne 7,.L286
	.loc 2 1360 0
	cmpwi 7,20,0
.LBB2538:
	.loc 2 1362 0
	li 7,0
.LVL559:
	li 4,0
.LVL560:
	mullw 20,28,31
.LVL561:
	mullw 19,30,27
.LVL562:
	mullw 18,29,31
.LVL563:
.LBE2538:
	.loc 2 1360 0
	bne- 7,.L341
.LVL564:
.L342:
	.loc 2 1362 0 discriminator 1
	cmpw 7,4,21
	blt+ 7,$+8
	b .L238
	.loc 2 1362 0 is_stmt 0
	li 5,0
	li 9,0
	li 6,0
	add 17,7,27
.L353:
.LVL565:
	.loc 2 1362 0 discriminator 1
	cmpw 7,6,22
	bge- 7,.L351
	add 0,9,31
	add 8,5,15
	stw 0,32(1)
	.loc 2 1362 0
	mr 10,7
	stw 8,28(1)
	li 3,0
.L352:
	.loc 2 1362 0 discriminator 1
	cmplw 7,10,17
	beq- 7,.L3165
.LVL566:
.LBB2547:
	.loc 2 1362 0 discriminator 2
	cmplw 7,10,23
	ble+ 7,$+8
	b .L238
	cmplw 7,10,25
	blt- 7,.L343
	lwz 12,32(1)
	.loc 2 1362 0
	mr 8,9
	li 11,0
	subf 16,9,12
	addi 16,16,1
	mtctr 16
	b .L344
.L343:
.LVL567:
.LBB2539:
.LBB2540:
	.loc 1 343 0 is_stmt 1 discriminator 1
	lwz 8,24(1)
	add 8,8,20
	stw 8,24(1)
.LBE2540:
.LBE2539:
	.loc 2 1362 0 discriminator 1
	b .L345
.LVL568:
.L349:
.LBB2541:
	.loc 2 1362 0 is_stmt 0 discriminator 2
	cmplw 7,8,26
	bge- 7,.L3166
.L346:
.LVL569:
.LBB2542:
.LBB2543:
	.loc 1 343 0 is_stmt 1
	lwz 0,24(1)
	add 0,0,28
	stw 0,24(1)
.LVL570:
.L348:
	add 11,11,29
	addi 8,8,1
.LVL571:
.L344:
.LBE2543:
.LBE2542:
.LBE2541:
	.loc 2 1362 0 discriminator 1
	bdnz .L349
	b .L345
.LVL572:
.L3166:
.LBB2546:
	.loc 2 1362 0 is_stmt 0 discriminator 2
	cmplw 7,8,24
	bgt+ 7,.L346
.LVL573:
	lwz 14,28(1)
	add 16,3,14
.LBB2544:
.LBB2545:
	.loc 2 988 0 is_stmt 1 discriminator 1
	lhzx 0,16,11
.LVL574:
	.loc 2 990 0 discriminator 1
	lwz 16,24(1)
.LVL575:
	addi 12,16,2
	stw 12,24(1)
	rlwinm 12,0,0,21,26
	mtlr 12
	srwi 12,0,11
	slwi 0,0,11
	mflr 14
.LVL576:
	or 12,14,12
	or 0,12,0
	sth 0,0(16)
.LVL577:
	b .L348
.LVL578:
.L345:
	add 3,3,30
	addi 10,10,1
.LVL579:
	b .L352
.LVL580:
.L3165:
.LBE2545:
.LBE2544:
.LBE2546:
.LBE2547:
	.loc 2 1362 0 discriminator 3
	addi 6,6,1
.LVL581:
	add 9,9,31
	add 5,5,18
	b .L353
.L351:
	addi 4,4,1
.LVL582:
	mr 7,17
	add 15,15,19
	b .L342
.L362:
	.loc 2 1366 0 discriminator 3
	addi 4,4,1
.LVL583:
	mr 7,0
	add 15,15,19
.LVL584:
.L341:
	.loc 2 1366 0 is_stmt 0 discriminator 1
	cmpw 7,4,21
	blt+ 7,$+8
	b .L238
	.loc 2 1366 0
	li 5,0
	li 9,0
	li 6,0
	add 0,7,27
.L364:
.LVL585:
	.loc 2 1366 0 discriminator 1
	cmpw 7,6,22
	bge- 7,.L362
	.loc 2 1366 0
	mr 10,7
	li 3,0
	add 14,9,31
	add 16,5,15
.L363:
	.loc 2 1366 0 discriminator 1
	cmplw 7,10,0
	beq- 7,.L3167
.LVL586:
.LBB2548:
	.loc 2 1366 0 discriminator 2
	cmplw 7,10,23
	ble+ 7,$+8
	b .L238
	cmplw 7,10,25
	blt- 7,.L354
	subf 17,9,14
	.loc 2 1366 0
	mr 8,9
	addi 17,17,1
	li 11,0
	mtctr 17
	b .L355
.L354:
.LVL587:
.LBB2549:
.LBB2550:
	.loc 1 343 0 is_stmt 1 discriminator 1
	lwz 8,24(1)
	add 8,8,20
	stw 8,24(1)
.LBE2550:
.LBE2549:
	.loc 2 1366 0 discriminator 1
	b .L356
.LVL588:
.L360:
.LBB2551:
	.loc 2 1366 0 is_stmt 0 discriminator 2
	cmplw 7,8,26
.LBB2552:
.LBB2553:
	.loc 1 343 0 is_stmt 1 discriminator 2
	lwz 17,24(1)
.LBE2553:
.LBE2552:
	.loc 2 1366 0 discriminator 2
	bge- 7,.L3168
.L357:
.LVL589:
.LBB2555:
.LBB2554:
	.loc 1 343 0
	add 17,17,28
	stw 17,24(1)
.LVL590:
.L359:
	add 11,11,29
	addi 8,8,1
.LVL591:
.L355:
.LBE2554:
.LBE2555:
.LBE2551:
	.loc 2 1366 0 discriminator 1
	bdnz .L360
	b .L356
.LVL592:
.L3168:
.LBB2558:
	.loc 2 1366 0 is_stmt 0 discriminator 2
	cmplw 7,8,24
	bgt+ 7,.L357
.LVL593:
.LBB2556:
.LBB2557:
	.loc 2 997 0 is_stmt 1 discriminator 1
	addi 12,17,2
	stw 12,24(1)
	add 12,3,16
	lhzx 12,12,11
	sth 12,0(17)
	b .L359
.LVL594:
.L356:
	add 3,3,30
	addi 10,10,1
.LVL595:
	b .L363
.LVL596:
.L3167:
.LBE2557:
.LBE2556:
.LBE2558:
.LBE2548:
	.loc 2 1366 0 discriminator 3
	addi 6,6,1
.LVL597:
	add 9,9,31
	add 5,5,18
	b .L364
.LVL598:
.L286:
	.loc 2 1371 0
	xoris 9,3,0xffff
	cmpwi 7,9,-32714
	beq 7,.L366
	cmplwi 7,3,32822
	li 9,0
	bgt+ 7,.L367
	ori 9,9,32818
	cmpw 7,3,9
	beq- 7,.L368
	cmplwi 7,3,32818
	bgt+ 7,.L369
	addi 9,3,-5120
	cmplwi 7,9,6
	bgt- 7,$+8
	b .L3133
	b .L238
.L369:
	xoris 9,3,0xffff
	cmpwi 7,9,-32716
	beq 7,.L371
	cmplwi 7,3,32820
	ble+ 7,.L3134
	b .L3169
.L367:
	ori 9,9,33637
	cmpw 7,3,9
	beq- 7,.L374
	cmplwi 7,3,33637
	li 9,0
	bgt- 7,.L375
	ori 9,9,33635
	cmpw 7,3,9
	beq- 7,.L376
	cmplwi 7,3,33635
	bgt- 7,.L377
	xoris 9,3,0xffff
	cmpwi 7,9,-31902
	beq 7,.L378
	b .L238
.L375:
	ori 9,9,33639
	cmpw 7,3,9
	beq- 7,.L379
	cmplwi 7,3,33639
	blt- 7,.L380
	xoris 9,3,0xffff
	cmpwi 7,9,-31896
	bne 7,$+8
	b .L381
	b .L238
.L368:
	.loc 2 1373 0
	cmplwi 7,19,4
	beq- 7,.L382
	bgt- 7,.L383
	cmplwi 7,19,2
	beq- 7,.L384
	bgt- 7,.L385
	cmplwi 7,19,1
	beq+ 7,$+8
	b .L238
	mullw 10,29,31
.LVL599:
	mr 17,15
.LBB2559:
	li 16,0
.LBB2560:
	cmpwi 4,20,0
.LBE2560:
	mullw 8,28,31
	stw 10,40(1)
	li 10,0
	mullw 9,30,27
	stw 8,44(1)
	stw 9,32(1)
	b .L395
.LVL600:
.L383:
.LBE2559:
	cmplwi 7,19,6
	beq- 7,.L387
	blt- 7,.L388
	cmplwi 7,19,39
	beq+ 7,$+8
	b .L238
	mullw 10,30,27
.LVL601:
	mr 17,15
.LBB2567:
	li 16,0
.LBB2568:
	cmpwi 4,20,0
.LBE2568:
	mullw 9,28,31
	stw 10,32(1)
	li 10,0
	mullw 12,29,31
	stw 9,44(1)
	stw 12,40(1)
	b .L390
.LVL602:
.L387:
.LBE2567:
.LBB2575:
	mullw 14,28,31
	li 19,0
.LVL603:
.LBB2576:
	cmpwi 4,20,0
	mullw 0,30,27
.LBE2576:
	stw 14,28(1)
	li 14,0
	mullw 6,29,31
	stw 0,44(1)
	stw 6,40(1)
	b .L391
.LVL604:
.L388:
.LBE2575:
.LBB2583:
	mullw 7,28,31
.LVL605:
	mr 17,15
	li 16,0
	li 10,0
.LVL606:
.LBB2584:
	cmpwi 4,20,0
	mullw 8,30,27
.LBE2584:
	stw 7,44(1)
	mullw 9,29,31
	stw 8,32(1)
	stw 9,40(1)
	b .L392
.LVL607:
.L382:
.LBE2583:
.LBB2591:
	mullw 10,28,31
.LVL608:
	mr 17,15
	li 16,0
.LBB2592:
	cmpwi 4,20,0
	mullw 12,30,27
.LBE2592:
	stw 10,44(1)
	li 10,0
	mullw 14,29,31
	stw 12,32(1)
	stw 14,40(1)
	b .L393
.LVL609:
.L384:
.LBE2591:
.LBB2599:
	mullw 0,28,31
	mr 17,15
	li 16,0
	li 10,0
.LVL610:
.LBB2600:
	cmpwi 4,20,0
	mullw 6,30,27
.LBE2600:
	stw 0,44(1)
	mullw 7,29,31
.LVL611:
	stw 6,32(1)
	stw 7,40(1)
	b .L394
.LVL612:
.L405:
	lwz 9,32(1)
.LBE2599:
	.loc 2 1373 0 is_stmt 0 discriminator 3
	addi 10,10,1
.LVL613:
	lwz 16,28(1)
	add 17,17,9
.LVL614:
.L395:
	.loc 2 1373 0 discriminator 1
	cmpw 7,10,21
	blt+ 7,$+8
	b .L238
	add 12,16,27
	.loc 2 1373 0
	mr 14,17
	stw 12,28(1)
	li 15,0
	li 20,0
.LVL615:
.L408:
	.loc 2 1373 0 discriminator 1
	cmpw 7,20,22
	bge- 7,.L405
	add 8,15,31
	.loc 2 1373 0
	mr 19,16
	stw 8,36(1)
	mr 5,14
.L406:
	.loc 2 1373 0 discriminator 1
	lwz 6,28(1)
	cmplw 7,19,6
	beq- 7,.L3170
.LVL616:
.LBB2607:
	.loc 2 1373 0 discriminator 2
	cmplw 7,19,23
	ble+ 7,$+8
	b .L238
	cmplw 7,19,25
	blt- 7,.L396
	.loc 2 1373 0
	mr 18,15
	li 11,0
	b .L397
.L396:
.LVL617:
.LBB2563:
.LBB2564:
	.loc 1 343 0 is_stmt 1 discriminator 1
	lwz 4,24(1)
	lwz 12,44(1)
	add 4,4,12
	stw 4,24(1)
.LBE2564:
.LBE2563:
	.loc 2 1373 0 discriminator 1
	b .L398
.LVL618:
.L403:
.LBB2565:
	.loc 2 1373 0 is_stmt 0 discriminator 2
	cmplw 7,18,26
	bge- 7,.L3171
.L399:
.LVL619:
.LBB2561:
.LBB2562:
	.loc 1 343 0 is_stmt 1
	lwz 4,24(1)
	add 4,4,28
	stw 4,24(1)
.LVL620:
.L401:
	add 11,11,29
	addi 18,18,1
.LVL621:
.L397:
.LBE2562:
.LBE2561:
.LBE2565:
	.loc 2 1373 0 discriminator 1
	lwz 0,36(1)
	cmplw 7,18,0
	bne+ 7,.L403
	b .L398
.LVL622:
.L3171:
.LBB2566:
	.loc 2 1373 0 is_stmt 0 discriminator 2
	cmplw 7,18,24
	bgt+ 7,.L399
	.loc 2 1373 0 discriminator 1
	add 3,11,5
	addi 4,1,8
	stw 5,48(1)
	stw 10,60(1)
	stw 11,52(1)
	bl getUBYTE_3_3_2
.LVL623:
	lwz 5,48(1)
	lwz 10,60(1)
	lwz 11,52(1)
	beq- 4,.L402
	lbz 3,8(1)
.LVL624:
	lbz 4,10(1)
	stb 3,10(1)
	stb 4,8(1)
.LVL625:
.L402:
	.loc 2 1373 0 discriminator 2
	addi 3,1,8
	addi 4,1,24
	stw 5,48(1)
	stw 10,60(1)
	stw 11,52(1)
	bl putI8
.LVL626:
	lwz 11,52(1)
	lwz 10,60(1)
	lwz 5,48(1)
	b .L401
.LVL627:
.L398:
	add 5,5,30
	addi 19,19,1
.LVL628:
	b .L406
.LVL629:
.L3170:
	lwz 7,40(1)
.LBE2566:
.LBE2607:
	.loc 2 1373 0 discriminator 3
	addi 20,20,1
.LVL630:
	add 15,15,31
	add 14,14,7
	b .L408
.L418:
	lwz 12,32(1)
	addi 10,10,1
.LVL631:
	lwz 16,28(1)
	add 17,17,12
.LVL632:
.L390:
	.loc 2 1373 0 discriminator 1
	cmpw 7,10,21
	blt+ 7,$+8
	b .L238
	add 0,16,27
	.loc 2 1373 0
	mr 14,17
	stw 0,28(1)
	li 15,0
	li 20,0
.LVL633:
.L421:
	.loc 2 1373 0 discriminator 1
	cmpw 7,20,22
	bge- 7,.L418
	add 9,15,31
	.loc 2 1373 0
	mr 19,16
	stw 9,36(1)
	mr 5,14
.L419:
	.loc 2 1373 0 discriminator 1
	lwz 7,28(1)
	cmplw 7,19,7
	beq- 7,.L3172
.LVL634:
.LBB2608:
	.loc 2 1373 0 discriminator 2
	cmplw 7,19,23
	ble+ 7,$+8
	b .L238
	cmplw 7,19,25
	blt- 7,.L409
	.loc 2 1373 0
	mr 18,15
	li 11,0
	b .L410
.L409:
.LVL635:
.LBB2571:
.LBB2572:
	.loc 1 343 0 is_stmt 1 discriminator 1
	lwz 4,24(1)
	lwz 0,44(1)
	add 4,4,0
	stw 4,24(1)
.LBE2572:
.LBE2571:
	.loc 2 1373 0 discriminator 1
	b .L411
.LVL636:
.L416:
.LBB2573:
	.loc 2 1373 0 is_stmt 0 discriminator 2
	cmplw 7,18,26
	bge- 7,.L3173
.L412:
.LVL637:
.LBB2569:
.LBB2570:
	.loc 1 343 0 is_stmt 1
	lwz 4,24(1)
	add 4,4,28
	stw 4,24(1)
.LVL638:
.L414:
	add 11,11,29
	addi 18,18,1
.LVL639:
.L410:
.LBE2570:
.LBE2569:
.LBE2573:
	.loc 2 1373 0 discriminator 1
	lwz 6,36(1)
	cmplw 7,18,6
	bne+ 7,.L416
	b .L411
.LVL640:
.L3173:
.LBB2574:
	.loc 2 1373 0 is_stmt 0 discriminator 2
	cmplw 7,18,24
	bgt+ 7,.L412
	.loc 2 1373 0 discriminator 1
	add 3,11,5
	addi 4,1,8
	stw 5,48(1)
	stw 10,60(1)
	stw 11,52(1)
	bl getUBYTE_3_3_2
.LVL641:
	lwz 5,48(1)
	lwz 10,60(1)
	lwz 11,52(1)
	beq- 4,.L415
	lbz 3,8(1)
.LVL642:
	lbz 4,10(1)
	stb 3,10(1)
	stb 4,8(1)
.LVL643:
.L415:
	.loc 2 1373 0 discriminator 2
	addi 3,1,8
	addi 4,1,24
	stw 5,48(1)
	stw 10,60(1)
	stw 11,52(1)
	bl putA8
.LVL644:
	lwz 11,52(1)
	lwz 10,60(1)
	lwz 5,48(1)
	b .L414
.LVL645:
.L411:
	add 5,5,30
	addi 19,19,1
.LVL646:
	b .L419
.LVL647:
.L3172:
	lwz 8,40(1)
.LBE2574:
.LBE2608:
	.loc 2 1373 0 discriminator 3
	addi 20,20,1
.LVL648:
	add 15,15,31
	add 14,14,8
	b .L421
.L431:
	lwz 14,32(1)
	addi 10,10,1
.LVL649:
	lwz 16,28(1)
	add 17,17,14
.LVL650:
.L394:
	.loc 2 1373 0 discriminator 1
	cmpw 7,10,21
	blt+ 7,$+8
	b .L238
	add 0,16,27
	.loc 2 1373 0
	mr 14,17
	stw 0,28(1)
	li 15,0
	li 20,0
.LVL651:
.L433:
	.loc 2 1373 0 discriminator 1
	cmpw 7,20,22
	bge- 7,.L431
	add 12,15,31
	.loc 2 1373 0
	mr 19,16
	stw 12,36(1)
	mr 5,14
.L432:
	.loc 2 1373 0 discriminator 1
	lwz 8,28(1)
	cmplw 7,19,8
	beq- 7,.L3174
.LVL652:
.LBB2609:
	.loc 2 1373 0 discriminator 2
	cmplw 7,19,23
	ble+ 7,$+8
	b .L238
	cmplw 7,19,25
	blt- 7,.L422
	.loc 2 1373 0
	mr 18,15
	li 11,0
	b .L423
.L422:
.LVL653:
.LBB2603:
.LBB2604:
	.loc 1 343 0 is_stmt 1 discriminator 1
	lwz 4,24(1)
	lwz 6,44(1)
	add 4,4,6
	stw 4,24(1)
.LBE2604:
.LBE2603:
	.loc 2 1373 0 discriminator 1
	b .L424
.LVL654:
.L429:
.LBB2605:
	.loc 2 1373 0 is_stmt 0 discriminator 2
	cmplw 7,18,26
	bge- 7,.L3175
.L425:
.LVL655:
.LBB2601:
.LBB2602:
	.loc 1 343 0 is_stmt 1
	lwz 4,24(1)
	add 4,4,28
	stw 4,24(1)
.LVL656:
.L427:
	add 11,11,29
	addi 18,18,1
.LVL657:
.L423:
.LBE2602:
.LBE2601:
.LBE2605:
	.loc 2 1373 0 discriminator 1
	lwz 7,36(1)
	cmplw 7,18,7
	bne+ 7,.L429
	b .L424
.LVL658:
.L3175:
.LBB2606:
	.loc 2 1373 0 is_stmt 0 discriminator 2
	cmplw 7,18,24
	bgt+ 7,.L425
	.loc 2 1373 0 discriminator 1
	add 3,11,5
	addi 4,1,8
	stw 5,48(1)
	stw 10,60(1)
	stw 11,52(1)
	bl getUBYTE_3_3_2
.LVL659:
	lwz 5,48(1)
	lwz 10,60(1)
	lwz 11,52(1)
	beq- 4,.L428
	lbz 3,8(1)
.LVL660:
	lbz 4,10(1)
	stb 3,10(1)
	stb 4,8(1)
.LVL661:
.L428:
	.loc 2 1373 0 discriminator 2
	addi 3,1,8
	addi 4,1,24
	stw 5,48(1)
	stw 10,60(1)
	stw 11,52(1)
	bl putIA4
.LVL662:
	lwz 11,52(1)
	lwz 10,60(1)
	lwz 5,48(1)
	b .L427
.LVL663:
.L424:
	add 5,5,30
	addi 19,19,1
.LVL664:
	b .L432
.LVL665:
.L3174:
	lwz 9,40(1)
.LBE2606:
.LBE2609:
	.loc 2 1373 0 discriminator 3
	addi 20,20,1
.LVL666:
	add 15,15,31
	add 14,14,9
	b .L433
.LVL667:
.L385:
	mullw 6,28,31
	.loc 2 1373 0 discriminator 4
	cmplwi 7,18,6406
	mullw 7,30,27
.LVL668:
	stw 6,28(1)
	mullw 8,29,31
	stw 7,40(1)
	stw 8,44(1)
	bne- 7,.L3135
	mr 17,15
.LBB2610:
	.loc 2 1373 0
	li 16,0
	li 10,0
.LVL669:
.LBB2611:
	cmpwi 4,20,0
	b .L436
.LVL670:
.L3135:
	mr 14,15
.LBE2611:
.LBE2610:
.LBB2618:
	li 17,0
	li 10,0
.LVL671:
.LBB2619:
	cmpwi 4,20,0
	b .L437
.LVL672:
.L447:
	lwz 8,40(1)
.LBE2619:
.LBE2618:
	.loc 2 1373 0 discriminator 3
	addi 10,10,1
.LVL673:
	lwz 16,32(1)
	add 17,17,8
.LVL674:
.L436:
	.loc 2 1373 0 discriminator 1
	cmpw 7,10,21
	blt+ 7,$+8
	b .L238
	add 9,16,27
	.loc 2 1373 0
	mr 20,17
	stw 9,32(1)
	li 15,0
	li 14,0
.LVL675:
.L449:
	.loc 2 1373 0 discriminator 1
	cmpw 7,14,22
	bge- 7,.L447
	add 7,15,31
	.loc 2 1373 0
	mr 19,16
	stw 7,36(1)
	mr 5,20
.L448:
	.loc 2 1373 0 discriminator 1
	lwz 0,32(1)
	cmplw 7,19,0
	beq- 7,.L3176
.LVL676:
.LBB2626:
	.loc 2 1373 0 discriminator 2
	cmplw 7,19,23
	ble+ 7,$+8
	b .L238
	cmplw 7,19,25
	blt- 7,.L438
	.loc 2 1373 0
	mr 18,15
	li 11,0
	b .L439
.L438:
.LVL677:
.LBB2614:
.LBB2615:
	.loc 1 343 0 is_stmt 1 discriminator 1
	lwz 4,24(1)
	lwz 9,28(1)
	add 4,4,9
	stw 4,24(1)
.LBE2615:
.LBE2614:
	.loc 2 1373 0 discriminator 1
	b .L440
.LVL678:
.L445:
.LBB2616:
	.loc 2 1373 0 is_stmt 0 discriminator 2
	cmplw 7,18,26
	bge- 7,.L3177
.L441:
.LVL679:
.LBB2612:
.LBB2613:
	.loc 1 343 0 is_stmt 1
	lwz 4,24(1)
	add 4,4,28
	stw 4,24(1)
.LVL680:
.L443:
	add 11,11,29
	addi 18,18,1
.LVL681:
.L439:
.LBE2613:
.LBE2612:
.LBE2616:
	.loc 2 1373 0 discriminator 1
	lwz 12,36(1)
	cmplw 7,18,12
	bne+ 7,.L445
	b .L440
.LVL682:
.L3177:
.LBB2617:
	.loc 2 1373 0 is_stmt 0 discriminator 2
	cmplw 7,18,24
	bgt+ 7,.L441
	.loc 2 1373 0 discriminator 1
	add 3,11,5
	addi 4,1,8
	stw 5,48(1)
	stw 10,60(1)
	stw 11,52(1)
	bl getUBYTE_3_3_2
.LVL683:
	lwz 5,48(1)
	lwz 10,60(1)
	lwz 11,52(1)
	beq- 4,.L444
	lbz 3,8(1)
.LVL684:
	lbz 4,10(1)
	stb 3,10(1)
	stb 4,8(1)
.LVL685:
.L444:
	.loc 2 1373 0 discriminator 2
	addi 3,1,8
	addi 4,1,24
	stw 5,48(1)
	stw 10,60(1)
	stw 11,52(1)
	bl putIA8A
.LVL686:
	lwz 11,52(1)
	lwz 10,60(1)
	lwz 5,48(1)
	b .L443
.LVL687:
.L440:
	add 5,5,30
	addi 19,19,1
.LVL688:
	b .L448
.LVL689:
.L3176:
	lwz 6,44(1)
.LBE2617:
.LBE2626:
	.loc 2 1373 0 discriminator 3
	addi 14,14,1
.LVL690:
	add 15,15,31
	add 20,20,6
	b .L449
.LVL691:
.L459:
	lwz 9,40(1)
	addi 10,10,1
.LVL692:
	lwz 17,32(1)
	add 14,14,9
.LVL693:
.L437:
	.loc 2 1373 0 discriminator 1
	cmpw 7,10,21
	blt+ 7,$+8
	b .L238
	add 12,17,27
	.loc 2 1373 0
	mr 16,14
	stw 12,32(1)
	li 15,0
	li 20,0
.LVL694:
.L461:
	.loc 2 1373 0 discriminator 1
	cmpw 7,20,22
	bge- 7,.L459
	add 8,15,31
	.loc 2 1373 0
	mr 19,17
	stw 8,36(1)
	mr 5,16
.L460:
	.loc 2 1373 0 discriminator 1
	lwz 6,32(1)
	cmplw 7,19,6
	beq- 7,.L3178
.LVL695:
.LBB2627:
	.loc 2 1373 0 discriminator 2
	cmplw 7,19,23
	ble+ 7,$+8
	b .L238
	cmplw 7,19,25
	blt- 7,.L450
	.loc 2 1373 0
	mr 18,15
	li 11,0
	b .L451
.L450:
.LVL696:
.LBB2622:
.LBB2623:
	.loc 1 343 0 is_stmt 1 discriminator 1
	lwz 4,24(1)
	lwz 12,28(1)
	add 4,4,12
	stw 4,24(1)
.LBE2623:
.LBE2622:
	.loc 2 1373 0 discriminator 1
	b .L452
.LVL697:
.L457:
.LBB2624:
	.loc 2 1373 0 is_stmt 0 discriminator 2
	cmplw 7,18,26
	bge- 7,.L3179
.L453:
.LVL698:
.LBB2620:
.LBB2621:
	.loc 1 343 0 is_stmt 1
	lwz 4,24(1)
	add 4,4,28
	stw 4,24(1)
.LVL699:
.L455:
	add 11,11,29
	addi 18,18,1
.LVL700:
.L451:
.LBE2621:
.LBE2620:
.LBE2624:
	.loc 2 1373 0 discriminator 1
	lwz 0,36(1)
	cmplw 7,18,0
	bne+ 7,.L457
	b .L452
.LVL701:
.L3179:
.LBB2625:
	.loc 2 1373 0 is_stmt 0 discriminator 2
	cmplw 7,18,24
	bgt+ 7,.L453
	.loc 2 1373 0 discriminator 1
	add 3,11,5
	addi 4,1,8
	stw 5,48(1)
	stw 10,60(1)
	stw 11,52(1)
	bl getUBYTE_3_3_2
.LVL702:
	lwz 5,48(1)
	lwz 10,60(1)
	lwz 11,52(1)
	beq- 4,.L456
	lbz 3,8(1)
.LVL703:
	lbz 4,10(1)
	stb 3,10(1)
	stb 4,8(1)
.LVL704:
.L456:
	.loc 2 1373 0 discriminator 2
	addi 3,1,8
	addi 4,1,24
	stw 5,48(1)
	stw 10,60(1)
	stw 11,52(1)
	bl putIA8
.LVL705:
	lwz 11,52(1)
	lwz 10,60(1)
	lwz 5,48(1)
	b .L455
.LVL706:
.L452:
	add 5,5,30
	addi 19,19,1
.LVL707:
	b .L460
.LVL708:
.L3178:
	lwz 7,44(1)
.LBE2625:
.LBE2627:
	.loc 2 1373 0 discriminator 3
	addi 20,20,1
.LVL709:
	add 15,15,31
	add 16,16,7
	b .L461
.L471:
	lwz 12,32(1)
	addi 10,10,1
.LVL710:
	lwz 16,28(1)
	add 17,17,12
.LVL711:
.L392:
	.loc 2 1373 0 discriminator 1
	cmpw 7,10,21
	blt+ 7,$+8
	b .L238
	add 0,16,27
	.loc 2 1373 0
	mr 14,17
	stw 0,28(1)
	li 15,0
	li 20,0
.LVL712:
.L473:
	.loc 2 1373 0 discriminator 1
	cmpw 7,20,22
	bge- 7,.L471
	add 9,15,31
	.loc 2 1373 0
	mr 19,16
	stw 9,36(1)
	mr 5,14
.L472:
	.loc 2 1373 0 discriminator 1
	lwz 7,28(1)
	cmplw 7,19,7
	beq- 7,.L3180
.LVL713:
.LBB2628:
	.loc 2 1373 0 discriminator 2
	cmplw 7,19,23
	ble+ 7,$+8
	b .L238
	cmplw 7,19,25
	blt- 7,.L462
	.loc 2 1373 0
	mr 18,15
	li 11,0
	b .L463
.L462:
.LVL714:
.LBB2587:
.LBB2588:
	.loc 1 343 0 is_stmt 1 discriminator 1
	lwz 4,24(1)
	lwz 0,44(1)
	add 4,4,0
	stw 4,24(1)
.LBE2588:
.LBE2587:
	.loc 2 1373 0 discriminator 1
	b .L464
.LVL715:
.L469:
.LBB2589:
	.loc 2 1373 0 is_stmt 0 discriminator 2
	cmplw 7,18,26
	bge- 7,.L3181
.L465:
.LVL716:
.LBB2585:
.LBB2586:
	.loc 1 343 0 is_stmt 1
	lwz 4,24(1)
	add 4,4,28
	stw 4,24(1)
.LVL717:
.L467:
	add 11,11,29
	addi 18,18,1
.LVL718:
.L463:
.LBE2586:
.LBE2585:
.LBE2589:
	.loc 2 1373 0 discriminator 1
	lwz 6,36(1)
	cmplw 7,18,6
	bne+ 7,.L469
	b .L464
.LVL719:
.L3181:
.LBB2590:
	.loc 2 1373 0 is_stmt 0 discriminator 2
	cmplw 7,18,24
	bgt+ 7,.L465
	.loc 2 1373 0 discriminator 1
	add 3,11,5
	addi 4,1,8
	stw 5,48(1)
	stw 10,60(1)
	stw 11,52(1)
	bl getUBYTE_3_3_2
.LVL720:
	lwz 5,48(1)
	lwz 10,60(1)
	lwz 11,52(1)
	beq- 4,.L468
	lbz 3,8(1)
.LVL721:
	lbz 4,10(1)
	stb 3,10(1)
	stb 4,8(1)
.LVL722:
.L468:
	.loc 2 1373 0 discriminator 2
	addi 3,1,8
	addi 4,1,24
	stw 5,48(1)
	stw 10,60(1)
	stw 11,52(1)
	bl put5A3
.LVL723:
	lwz 11,52(1)
	lwz 10,60(1)
	lwz 5,48(1)
	b .L467
.LVL724:
.L464:
	add 5,5,30
	addi 19,19,1
.LVL725:
	b .L472
.LVL726:
.L3180:
	lwz 8,40(1)
.LBE2590:
.LBE2628:
	.loc 2 1373 0 discriminator 3
	addi 20,20,1
.LVL727:
	add 15,15,31
	add 14,14,8
	b .L473
.L483:
	lwz 14,32(1)
	addi 10,10,1
.LVL728:
	lwz 16,28(1)
	add 17,17,14
.LVL729:
.L393:
	.loc 2 1373 0 discriminator 1
	cmpw 7,10,21
	blt+ 7,$+8
	b .L238
	add 0,16,27
	.loc 2 1373 0
	mr 14,17
	stw 0,28(1)
	li 15,0
	li 20,0
.LVL730:
.L485:
	.loc 2 1373 0 discriminator 1
	cmpw 7,20,22
	bge- 7,.L483
	add 12,15,31
	.loc 2 1373 0
	mr 19,16
	stw 12,36(1)
	mr 5,14
.L484:
	.loc 2 1373 0 discriminator 1
	lwz 8,28(1)
	cmplw 7,19,8
	beq- 7,.L3182
.LVL731:
.LBB2629:
	.loc 2 1373 0 discriminator 2
	cmplw 7,19,23
	ble+ 7,$+8
	b .L238
	cmplw 7,19,25
	blt- 7,.L474
	.loc 2 1373 0
	mr 18,15
	li 11,0
	b .L475
.L474:
.LVL732:
.LBB2595:
.LBB2596:
	.loc 1 343 0 is_stmt 1 discriminator 1
	lwz 4,24(1)
	lwz 6,44(1)
	add 4,4,6
	stw 4,24(1)
.LBE2596:
.LBE2595:
	.loc 2 1373 0 discriminator 1
	b .L476
.LVL733:
.L481:
.LBB2597:
	.loc 2 1373 0 is_stmt 0 discriminator 2
	cmplw 7,18,26
	bge- 7,.L3183
.L477:
.LVL734:
.LBB2593:
.LBB2594:
	.loc 1 343 0 is_stmt 1
	lwz 4,24(1)
	add 4,4,28
	stw 4,24(1)
.LVL735:
.L479:
	add 11,11,29
	addi 18,18,1
.LVL736:
.L475:
.LBE2594:
.LBE2593:
.LBE2597:
	.loc 2 1373 0 discriminator 1
	lwz 7,36(1)
	cmplw 7,18,7
	bne+ 7,.L481
	b .L476
.LVL737:
.L3183:
.LBB2598:
	.loc 2 1373 0 is_stmt 0 discriminator 2
	cmplw 7,18,24
	bgt+ 7,.L477
	.loc 2 1373 0 discriminator 1
	add 3,11,5
	addi 4,1,8
	stw 5,48(1)
	stw 10,60(1)
	stw 11,52(1)
	bl getUBYTE_3_3_2
.LVL738:
	lwz 5,48(1)
	lwz 10,60(1)
	lwz 11,52(1)
	beq- 4,.L480
	lbz 3,8(1)
.LVL739:
	lbz 4,10(1)
	stb 3,10(1)
	stb 4,8(1)
.LVL740:
.L480:
	.loc 2 1373 0 discriminator 2
	addi 3,1,8
	addi 4,1,24
	stw 5,48(1)
	stw 10,60(1)
	stw 11,52(1)
	bl put565
.LVL741:
	lwz 11,52(1)
	lwz 10,60(1)
	lwz 5,48(1)
	b .L479
.LVL742:
.L476:
	add 5,5,30
	addi 19,19,1
.LVL743:
	b .L484
.LVL744:
.L3182:
	lwz 9,40(1)
.LBE2598:
.LBE2629:
	.loc 2 1373 0 discriminator 3
	addi 20,20,1
.LVL745:
	add 15,15,31
	add 14,14,9
	b .L485
.LVL746:
.L505:
	lwz 8,44(1)
	addi 14,14,1
.LVL747:
	mr 19,17
	add 15,15,8
.LVL748:
.L391:
	.loc 2 1373 0 discriminator 1
	cmpw 7,14,21
	blt+ 7,$+8
	b .L238
	.loc 2 1373 0
	mr 18,15
	li 20,0
	li 16,0
	add 17,19,27
.L507:
.LVL749:
	.loc 2 1373 0 discriminator 1
	cmpw 7,16,22
	bge- 7,.L505
	add 7,20,31
	.loc 2 1373 0
	mr 9,19
	stw 7,32(1)
	mr 8,18
.L506:
	.loc 2 1373 0 discriminator 1
	cmplw 7,9,17
	beq- 7,.L3184
.LVL750:
.LBB2630:
	.loc 2 1373 0 discriminator 2
	cmplw 7,9,23
	ble+ 7,$+8
	b .L238
	cmplw 7,9,25
	blt- 7,.L486
	.loc 2 1373 0
	mr 10,20
	li 7,0
	b .L487
.L486:
.LVL751:
.LBB2579:
.LBB2580:
	.loc 1 343 0 is_stmt 1 discriminator 1
	lwz 10,24(1)
	lwz 6,28(1)
	add 10,10,6
	stw 10,24(1)
.LBE2580:
.LBE2579:
	.loc 2 1373 0 discriminator 1
	b .L488
.LVL752:
.L493:
.LBB2581:
	.loc 2 1373 0 is_stmt 0 discriminator 2
	cmplw 7,10,26
	bge- 7,.L3185
.L489:
.LVL753:
.LBB2577:
.LBB2578:
	.loc 1 343 0 is_stmt 1
	lwz 6,24(1)
	add 6,6,28
	stw 6,24(1)
.LVL754:
.L491:
	add 7,7,29
	addi 10,10,1
.L487:
.LBE2578:
.LBE2577:
.LBE2581:
	.loc 2 1373 0 discriminator 1
	lwz 12,32(1)
	cmplw 7,10,12
	bne+ 7,.L493
	b .L488
.LVL755:
.L3185:
.LBB2582:
	.loc 2 1373 0 is_stmt 0 discriminator 2
	cmplw 7,10,24
	bgt+ 7,.L489
	.loc 2 1373 0 discriminator 1
	add 3,7,8
	addi 4,1,8
	stw 7,52(1)
	stw 8,48(1)
	stw 9,56(1)
	stw 10,60(1)
	bl getUBYTE_3_3_2
.LVL756:
	lwz 7,52(1)
	lwz 8,48(1)
	lwz 9,56(1)
	lwz 10,60(1)
	beq- 4,.L492
	lbz 5,8(1)
.LVL757:
	lbz 6,10(1)
	stb 5,10(1)
	stb 6,8(1)
.LVL758:
.L492:
	.loc 2 1373 0 discriminator 2
	addi 3,1,8
	addi 4,1,24
	stw 7,52(1)
	stw 8,48(1)
	stw 9,56(1)
	stw 10,60(1)
	bl putAR
.LVL759:
	lwz 10,60(1)
	lwz 9,56(1)
	lwz 8,48(1)
	lwz 7,52(1)
	b .L491
.L488:
	add 8,8,30
	addi 9,9,1
	b .L506
.L3184:
	add 0,20,31
.LBE2582:
.LBE2630:
	.loc 2 1373 0
	mr 10,19
	stw 0,36(1)
	li 8,0
.L495:
	.loc 2 1373 0 discriminator 1
	cmplw 7,10,17
	beq- 7,.L3186
.LVL760:
.LBB2631:
	.loc 2 1373 0 discriminator 2
	cmplw 7,10,25
	blt- 7,.L496
	add 6,8,18
	.loc 2 1373 0
	mr 9,20
	li 7,0
	stw 6,32(1)
	b .L497
.L496:
.LVL761:
.LBB2632:
.LBB2633:
	.loc 1 343 0 is_stmt 1 discriminator 1
	lwz 9,24(1)
	lwz 7,28(1)
	add 9,9,7
	stw 9,24(1)
.LBE2633:
.LBE2632:
	.loc 2 1373 0 discriminator 1
	b .L498
.LVL762:
.L503:
.LBB2634:
	.loc 2 1373 0 is_stmt 0 discriminator 2
	cmplw 7,9,26
	bge- 7,.L3187
.L499:
.LVL763:
.LBB2635:
.LBB2636:
	.loc 1 343 0 is_stmt 1
	lwz 6,24(1)
	add 6,6,28
	stw 6,24(1)
.LVL764:
.L501:
	add 7,7,29
	addi 9,9,1
.L497:
.LBE2636:
.LBE2635:
.LBE2634:
	.loc 2 1373 0 discriminator 1
	lwz 0,36(1)
	cmplw 7,9,0
	bne+ 7,.L503
	b .L498
.LVL765:
.L3187:
.LBB2637:
	.loc 2 1373 0 is_stmt 0 discriminator 2
	cmplw 7,9,24
	bgt+ 7,.L499
	.loc 2 1373 0 discriminator 1
	lwz 12,32(1)
	addi 4,1,8
	stw 7,52(1)
	add 3,7,12
	stw 8,48(1)
	stw 9,56(1)
	stw 10,60(1)
	bl getUBYTE_3_3_2
.LVL766:
	lwz 7,52(1)
	lwz 8,48(1)
	lwz 9,56(1)
	lwz 10,60(1)
	beq- 4,.L502
	lbz 5,8(1)
.LVL767:
	lbz 6,10(1)
	stb 5,10(1)
	stb 6,8(1)
.LVL768:
.L502:
	.loc 2 1373 0 discriminator 2
	addi 3,1,8
	addi 4,1,24
	stw 7,52(1)
	stw 8,48(1)
	stw 9,56(1)
	stw 10,60(1)
	bl putGB
.LVL769:
	lwz 10,60(1)
	lwz 9,56(1)
	lwz 8,48(1)
	lwz 7,52(1)
	b .L501
.L498:
	add 8,8,30
	addi 10,10,1
	b .L495
.L3186:
	lwz 6,40(1)
.LBE2637:
.LBE2631:
	.loc 2 1373 0 discriminator 3
	addi 16,16,1
.LVL770:
	add 20,20,31
	add 18,18,6
	b .L507
.LVL771:
.L378:
	.loc 2 1375 0 is_stmt 1
	cmplwi 7,19,4
	beq- 7,.L508
	bgt- 7,.L509
	cmplwi 7,19,2
	beq- 7,.L510
	cmplwi 7,19,2
	bgt- 7,.L511
	cmplwi 7,19,1
	beq+ 7,$+8
	b .L238
	mullw 10,29,31
.LVL772:
	mr 17,15
.LBB2638:
	li 16,0
.LBB2639:
	cmpwi 4,20,0
.LBE2639:
	mullw 8,28,31
	stw 10,40(1)
	li 10,0
	mullw 9,30,27
	stw 8,44(1)
	stw 9,32(1)
	b .L521
.LVL773:
.L509:
.LBE2638:
	cmplwi 7,19,6
	beq- 7,.L513
	cmplwi 7,19,6
	blt- 7,.L514
	cmplwi 7,19,39
	beq+ 7,$+8
	b .L238
	mullw 10,30,27
.LVL774:
	mr 17,15
.LBB2646:
	li 16,0
.LBB2647:
	cmpwi 4,20,0
.LBE2647:
	mullw 9,28,31
	stw 10,32(1)
	li 10,0
	mullw 12,29,31
	stw 9,44(1)
	stw 12,40(1)
	b .L516
.LVL775:
.L513:
.LBE2646:
.LBB2654:
	mullw 14,28,31
	li 19,0
.LVL776:
.LBB2655:
	cmpwi 4,20,0
	mullw 0,30,27
.LBE2655:
	stw 14,28(1)
	li 14,0
	mullw 6,29,31
	stw 0,44(1)
	stw 6,40(1)
	b .L517
.LVL777:
.L514:
.LBE2654:
.LBB2662:
	mullw 7,28,31
.LVL778:
	mr 17,15
	li 16,0
	li 10,0
.LVL779:
.LBB2663:
	cmpwi 4,20,0
	mullw 8,30,27
.LBE2663:
	stw 7,44(1)
	mullw 9,29,31
	stw 8,32(1)
	stw 9,40(1)
	b .L518
.LVL780:
.L508:
.LBE2662:
.LBB2670:
	mullw 10,28,31
.LVL781:
	mr 17,15
	li 16,0
.LBB2671:
	cmpwi 4,20,0
	mullw 12,30,27
.LBE2671:
	stw 10,44(1)
	li 10,0
	mullw 14,29,31
	stw 12,32(1)
	stw 14,40(1)
	b .L519
.LVL782:
.L510:
.LBE2670:
.LBB2678:
	mullw 0,28,31
	mr 17,15
	li 16,0
	li 10,0
.LVL783:
.LBB2679:
	cmpwi 4,20,0
	mullw 6,30,27
.LBE2679:
	stw 0,44(1)
	mullw 7,29,31
.LVL784:
	stw 6,32(1)
	stw 7,40(1)
	b .L520
.LVL785:
.L531:
	lwz 9,32(1)
.LBE2678:
	.loc 2 1375 0 is_stmt 0 discriminator 3
	addi 10,10,1
.LVL786:
	lwz 16,28(1)
	add 17,17,9
.LVL787:
.L521:
	.loc 2 1375 0 discriminator 1
	cmpw 7,10,21
	blt+ 7,$+8
	b .L238
	add 12,16,27
	.loc 2 1375 0
	mr 14,17
	stw 12,28(1)
	li 15,0
	li 20,0
.LVL788:
.L533:
	.loc 2 1375 0 discriminator 1
	cmpw 7,20,22
	bge- 7,.L531
	add 8,15,31
	.loc 2 1375 0
	mr 19,16
	stw 8,36(1)
	mr 5,14
.L532:
	.loc 2 1375 0 discriminator 1
	lwz 6,28(1)
	cmplw 7,19,6
	beq- 7,.L3188
.LVL789:
.LBB2686:
	.loc 2 1375 0 discriminator 2
	cmplw 7,19,23
	ble+ 7,$+8
	b .L238
	cmplw 7,19,25
	blt- 7,.L522
	.loc 2 1375 0
	mr 18,15
	li 11,0
	b .L523
.L522:
.LVL790:
.LBB2642:
.LBB2643:
	.loc 1 343 0 is_stmt 1 discriminator 1
	lwz 4,24(1)
	lwz 12,44(1)
	add 4,4,12
	stw 4,24(1)
.LBE2643:
.LBE2642:
	.loc 2 1375 0 discriminator 1
	b .L524
.LVL791:
.L529:
.LBB2644:
	.loc 2 1375 0 is_stmt 0 discriminator 2
	cmplw 7,18,26
	bge- 7,.L3189
.L525:
.LVL792:
.LBB2640:
.LBB2641:
	.loc 1 343 0 is_stmt 1
	lwz 4,24(1)
	add 4,4,28
	stw 4,24(1)
.LVL793:
.L527:
	add 11,11,29
	addi 18,18,1
.LVL794:
.L523:
.LBE2641:
.LBE2640:
.LBE2644:
	.loc 2 1375 0 discriminator 1
	lwz 0,36(1)
	cmplw 7,18,0
	bne+ 7,.L529
	b .L524
.LVL795:
.L3189:
.LBB2645:
	.loc 2 1375 0 is_stmt 0 discriminator 2
	cmplw 7,18,24
	bgt+ 7,.L525
	.loc 2 1375 0 discriminator 1
	add 3,11,5
	addi 4,1,8
	stw 5,48(1)
	stw 10,60(1)
	stw 11,52(1)
	bl getUBYTE_2_3_3_REV
.LVL796:
	lwz 5,48(1)
	lwz 10,60(1)
	lwz 11,52(1)
	beq- 4,.L528
	lbz 3,8(1)
.LVL797:
	lbz 4,10(1)
	stb 3,10(1)
	stb 4,8(1)
.LVL798:
.L528:
	.loc 2 1375 0 discriminator 2
	addi 3,1,8
	addi 4,1,24
	stw 5,48(1)
	stw 10,60(1)
	stw 11,52(1)
	bl putI8
.LVL799:
	lwz 11,52(1)
	lwz 10,60(1)
	lwz 5,48(1)
	b .L527
.LVL800:
.L524:
	add 5,5,30
	addi 19,19,1
.LVL801:
	b .L532
.LVL802:
.L3188:
	lwz 7,40(1)
.LBE2645:
.LBE2686:
	.loc 2 1375 0 discriminator 3
	addi 20,20,1
.LVL803:
	add 15,15,31
	add 14,14,7
	b .L533
.L543:
	lwz 12,32(1)
	addi 10,10,1
.LVL804:
	lwz 16,28(1)
	add 17,17,12
.LVL805:
.L516:
	.loc 2 1375 0 discriminator 1
	cmpw 7,10,21
	blt+ 7,$+8
	b .L238
	add 0,16,27
	.loc 2 1375 0
	mr 14,17
	stw 0,28(1)
	li 15,0
	li 20,0
.LVL806:
.L545:
	.loc 2 1375 0 discriminator 1
	cmpw 7,20,22
	bge- 7,.L543
	add 9,15,31
	.loc 2 1375 0
	mr 19,16
	stw 9,36(1)
	mr 5,14
.L544:
	.loc 2 1375 0 discriminator 1
	lwz 7,28(1)
	cmplw 7,19,7
	beq- 7,.L3190
.LVL807:
.LBB2687:
	.loc 2 1375 0 discriminator 2
	cmplw 7,19,23
	ble+ 7,$+8
	b .L238
	cmplw 7,19,25
	blt- 7,.L534
	.loc 2 1375 0
	mr 18,15
	li 11,0
	b .L535
.L534:
.LVL808:
.LBB2650:
.LBB2651:
	.loc 1 343 0 is_stmt 1 discriminator 1
	lwz 4,24(1)
	lwz 0,44(1)
	add 4,4,0
	stw 4,24(1)
.LBE2651:
.LBE2650:
	.loc 2 1375 0 discriminator 1
	b .L536
.LVL809:
.L541:
.LBB2652:
	.loc 2 1375 0 is_stmt 0 discriminator 2
	cmplw 7,18,26
	bge- 7,.L3191
.L537:
.LVL810:
.LBB2648:
.LBB2649:
	.loc 1 343 0 is_stmt 1
	lwz 4,24(1)
	add 4,4,28
	stw 4,24(1)
.LVL811:
.L539:
	add 11,11,29
	addi 18,18,1
.LVL812:
.L535:
.LBE2649:
.LBE2648:
.LBE2652:
	.loc 2 1375 0 discriminator 1
	lwz 6,36(1)
	cmplw 7,18,6
	bne+ 7,.L541
	b .L536
.LVL813:
.L3191:
.LBB2653:
	.loc 2 1375 0 is_stmt 0 discriminator 2
	cmplw 7,18,24
	bgt+ 7,.L537
	.loc 2 1375 0 discriminator 1
	add 3,11,5
	addi 4,1,8
	stw 5,48(1)
	stw 10,60(1)
	stw 11,52(1)
	bl getUBYTE_2_3_3_REV
.LVL814:
	lwz 5,48(1)
	lwz 10,60(1)
	lwz 11,52(1)
	beq- 4,.L540
	lbz 3,8(1)
.LVL815:
	lbz 4,10(1)
	stb 3,10(1)
	stb 4,8(1)
.LVL816:
.L540:
	.loc 2 1375 0 discriminator 2
	addi 3,1,8
	addi 4,1,24
	stw 5,48(1)
	stw 10,60(1)
	stw 11,52(1)
	bl putA8
.LVL817:
	lwz 11,52(1)
	lwz 10,60(1)
	lwz 5,48(1)
	b .L539
.LVL818:
.L536:
	add 5,5,30
	addi 19,19,1
.LVL819:
	b .L544
.LVL820:
.L3190:
	lwz 8,40(1)
.LBE2653:
.LBE2687:
	.loc 2 1375 0 discriminator 3
	addi 20,20,1
.LVL821:
	add 15,15,31
	add 14,14,8
	b .L545
.L555:
	lwz 14,32(1)
	addi 10,10,1
.LVL822:
	lwz 16,28(1)
	add 17,17,14
.LVL823:
.L520:
	.loc 2 1375 0 discriminator 1
	cmpw 7,10,21
	blt+ 7,$+8
	b .L238
	add 0,16,27
	.loc 2 1375 0
	mr 14,17
	stw 0,28(1)
	li 15,0
	li 20,0
.LVL824:
.L557:
	.loc 2 1375 0 discriminator 1
	cmpw 7,20,22
	bge- 7,.L555
	add 12,15,31
	.loc 2 1375 0
	mr 19,16
	stw 12,36(1)
	mr 5,14
.L556:
	.loc 2 1375 0 discriminator 1
	lwz 8,28(1)
	cmplw 7,19,8
	beq- 7,.L3192
.LVL825:
.LBB2688:
	.loc 2 1375 0 discriminator 2
	cmplw 7,19,23
	ble+ 7,$+8
	b .L238
	cmplw 7,19,25
	blt- 7,.L546
	.loc 2 1375 0
	mr 18,15
	li 11,0
	b .L547
.L546:
.LVL826:
.LBB2682:
.LBB2683:
	.loc 1 343 0 is_stmt 1 discriminator 1
	lwz 4,24(1)
	lwz 6,44(1)
	add 4,4,6
	stw 4,24(1)
.LBE2683:
.LBE2682:
	.loc 2 1375 0 discriminator 1
	b .L548
.LVL827:
.L553:
.LBB2684:
	.loc 2 1375 0 is_stmt 0 discriminator 2
	cmplw 7,18,26
	bge- 7,.L3193
.L549:
.LVL828:
.LBB2680:
.LBB2681:
	.loc 1 343 0 is_stmt 1
	lwz 4,24(1)
	add 4,4,28
	stw 4,24(1)
.LVL829:
.L551:
	add 11,11,29
	addi 18,18,1
.LVL830:
.L547:
.LBE2681:
.LBE2680:
.LBE2684:
	.loc 2 1375 0 discriminator 1
	lwz 7,36(1)
	cmplw 7,18,7
	bne+ 7,.L553
	b .L548
.LVL831:
.L3193:
.LBB2685:
	.loc 2 1375 0 is_stmt 0 discriminator 2
	cmplw 7,18,24
	bgt+ 7,.L549
	.loc 2 1375 0 discriminator 1
	add 3,11,5
	addi 4,1,8
	stw 5,48(1)
	stw 10,60(1)
	stw 11,52(1)
	bl getUBYTE_2_3_3_REV
.LVL832:
	lwz 5,48(1)
	lwz 10,60(1)
	lwz 11,52(1)
	beq- 4,.L552
	lbz 3,8(1)
.LVL833:
	lbz 4,10(1)
	stb 3,10(1)
	stb 4,8(1)
.LVL834:
.L552:
	.loc 2 1375 0 discriminator 2
	addi 3,1,8
	addi 4,1,24
	stw 5,48(1)
	stw 10,60(1)
	stw 11,52(1)
	bl putIA4
.LVL835:
	lwz 11,52(1)
	lwz 10,60(1)
	lwz 5,48(1)
	b .L551
.LVL836:
.L548:
	add 5,5,30
	addi 19,19,1
.LVL837:
	b .L556
.LVL838:
.L3192:
	lwz 9,40(1)
.LBE2685:
.LBE2688:
	.loc 2 1375 0 discriminator 3
	addi 20,20,1
.LVL839:
	add 15,15,31
	add 14,14,9
	b .L557
.LVL840:
.L511:
	mullw 6,28,31
	.loc 2 1375 0 discriminator 4
	cmplwi 7,18,6406
	mullw 7,30,27
.LVL841:
	stw 6,28(1)
	mullw 8,29,31
	stw 7,40(1)
	stw 8,44(1)
	bne- 7,.L3136
	mr 17,15
.LBB2689:
	.loc 2 1375 0
	li 16,0
	li 10,0
.LVL842:
.LBB2690:
	cmpwi 4,20,0
	b .L560
.LVL843:
.L3136:
	mr 14,15
.LBE2690:
.LBE2689:
.LBB2697:
	li 17,0
	li 10,0
.LVL844:
.LBB2698:
	cmpwi 4,20,0
	b .L561
.LVL845:
.L571:
	lwz 8,40(1)
.LBE2698:
.LBE2697:
	.loc 2 1375 0 discriminator 3
	addi 10,10,1
.LVL846:
	lwz 16,32(1)
	add 17,17,8
.LVL847:
.L560:
	.loc 2 1375 0 discriminator 1
	cmpw 7,10,21
	blt+ 7,$+8
	b .L238
	add 9,16,27
	.loc 2 1375 0
	mr 20,17
	stw 9,32(1)
	li 15,0
	li 14,0
.LVL848:
.L573:
	.loc 2 1375 0 discriminator 1
	cmpw 7,14,22
	bge- 7,.L571
	add 7,15,31
	.loc 2 1375 0
	mr 19,16
	stw 7,36(1)
	mr 5,20
.L572:
	.loc 2 1375 0 discriminator 1
	lwz 0,32(1)
	cmplw 7,19,0
	beq- 7,.L3194
.LVL849:
.LBB2705:
	.loc 2 1375 0 discriminator 2
	cmplw 7,19,23
	ble+ 7,$+8
	b .L238
	cmplw 7,19,25
	blt- 7,.L562
	.loc 2 1375 0
	mr 18,15
	li 11,0
	b .L563
.L562:
.LVL850:
.LBB2693:
.LBB2694:
	.loc 1 343 0 is_stmt 1 discriminator 1
	lwz 4,24(1)
	lwz 9,28(1)
	add 4,4,9
	stw 4,24(1)
.LBE2694:
.LBE2693:
	.loc 2 1375 0 discriminator 1
	b .L564
.LVL851:
.L569:
.LBB2695:
	.loc 2 1375 0 is_stmt 0 discriminator 2
	cmplw 7,18,26
	bge- 7,.L3195
.L565:
.LVL852:
.LBB2691:
.LBB2692:
	.loc 1 343 0 is_stmt 1
	lwz 4,24(1)
	add 4,4,28
	stw 4,24(1)
.LVL853:
.L567:
	add 11,11,29
	addi 18,18,1
.LVL854:
.L563:
.LBE2692:
.LBE2691:
.LBE2695:
	.loc 2 1375 0 discriminator 1
	lwz 12,36(1)
	cmplw 7,18,12
	bne+ 7,.L569
	b .L564
.LVL855:
.L3195:
.LBB2696:
	.loc 2 1375 0 is_stmt 0 discriminator 2
	cmplw 7,18,24
	bgt+ 7,.L565
	.loc 2 1375 0 discriminator 1
	add 3,11,5
	addi 4,1,8
	stw 5,48(1)
	stw 10,60(1)
	stw 11,52(1)
	bl getUBYTE_2_3_3_REV
.LVL856:
	lwz 5,48(1)
	lwz 10,60(1)
	lwz 11,52(1)
	beq- 4,.L568
	lbz 3,8(1)
.LVL857:
	lbz 4,10(1)
	stb 3,10(1)
	stb 4,8(1)
.LVL858:
.L568:
	.loc 2 1375 0 discriminator 2
	addi 3,1,8
	addi 4,1,24
	stw 5,48(1)
	stw 10,60(1)
	stw 11,52(1)
	bl putIA8A
.LVL859:
	lwz 11,52(1)
	lwz 10,60(1)
	lwz 5,48(1)
	b .L567
.LVL860:
.L564:
	add 5,5,30
	addi 19,19,1
.LVL861:
	b .L572
.LVL862:
.L3194:
	lwz 6,44(1)
.LBE2696:
.LBE2705:
	.loc 2 1375 0 discriminator 3
	addi 14,14,1
.LVL863:
	add 15,15,31
	add 20,20,6
	b .L573
.LVL864:
.L583:
	lwz 9,40(1)
	addi 10,10,1
.LVL865:
	lwz 17,32(1)
	add 14,14,9
.LVL866:
.L561:
	.loc 2 1375 0 discriminator 1
	cmpw 7,10,21
	blt+ 7,$+8
	b .L238
	add 12,17,27
	.loc 2 1375 0
	mr 16,14
	stw 12,32(1)
	li 15,0
	li 20,0
.LVL867:
.L585:
	.loc 2 1375 0 discriminator 1
	cmpw 7,20,22
	bge- 7,.L583
	add 8,15,31
	.loc 2 1375 0
	mr 19,17
	stw 8,36(1)
	mr 5,16
.L584:
	.loc 2 1375 0 discriminator 1
	lwz 6,32(1)
	cmplw 7,19,6
	beq- 7,.L3196
.LVL868:
.LBB2706:
	.loc 2 1375 0 discriminator 2
	cmplw 7,19,23
	ble+ 7,$+8
	b .L238
	cmplw 7,19,25
	blt- 7,.L574
	.loc 2 1375 0
	mr 18,15
	li 11,0
	b .L575
.L574:
.LVL869:
.LBB2701:
.LBB2702:
	.loc 1 343 0 is_stmt 1 discriminator 1
	lwz 4,24(1)
	lwz 12,28(1)
	add 4,4,12
	stw 4,24(1)
.LBE2702:
.LBE2701:
	.loc 2 1375 0 discriminator 1
	b .L576
.LVL870:
.L581:
.LBB2703:
	.loc 2 1375 0 is_stmt 0 discriminator 2
	cmplw 7,18,26
	bge- 7,.L3197
.L577:
.LVL871:
.LBB2699:
.LBB2700:
	.loc 1 343 0 is_stmt 1
	lwz 4,24(1)
	add 4,4,28
	stw 4,24(1)
.LVL872:
.L579:
	add 11,11,29
	addi 18,18,1
.LVL873:
.L575:
.LBE2700:
.LBE2699:
.LBE2703:
	.loc 2 1375 0 discriminator 1
	lwz 0,36(1)
	cmplw 7,18,0
	bne+ 7,.L581
	b .L576
.LVL874:
.L3197:
.LBB2704:
	.loc 2 1375 0 is_stmt 0 discriminator 2
	cmplw 7,18,24
	bgt+ 7,.L577
	.loc 2 1375 0 discriminator 1
	add 3,11,5
	addi 4,1,8
	stw 5,48(1)
	stw 10,60(1)
	stw 11,52(1)
	bl getUBYTE_2_3_3_REV
.LVL875:
	lwz 5,48(1)
	lwz 10,60(1)
	lwz 11,52(1)
	beq- 4,.L580
	lbz 3,8(1)
.LVL876:
	lbz 4,10(1)
	stb 3,10(1)
	stb 4,8(1)
.LVL877:
.L580:
	.loc 2 1375 0 discriminator 2
	addi 3,1,8
	addi 4,1,24
	stw 5,48(1)
	stw 10,60(1)
	stw 11,52(1)
	bl putIA8
.LVL878:
	lwz 11,52(1)
	lwz 10,60(1)
	lwz 5,48(1)
	b .L579
.LVL879:
.L576:
	add 5,5,30
	addi 19,19,1
.LVL880:
	b .L584
.LVL881:
.L3196:
	lwz 7,44(1)
.LBE2704:
.LBE2706:
	.loc 2 1375 0 discriminator 3
	addi 20,20,1
.LVL882:
	add 15,15,31
	add 16,16,7
	b .L585
.L595:
	lwz 12,32(1)
	addi 10,10,1
.LVL883:
	lwz 16,28(1)
	add 17,17,12
.LVL884:
.L518:
	.loc 2 1375 0 discriminator 1
	cmpw 7,10,21
	blt+ 7,$+8
	b .L238
	add 0,16,27
	.loc 2 1375 0
	mr 14,17
	stw 0,28(1)
	li 15,0
	li 20,0
.LVL885:
.L597:
	.loc 2 1375 0 discriminator 1
	cmpw 7,20,22
	bge- 7,.L595
	add 9,15,31
	.loc 2 1375 0
	mr 19,16
	stw 9,36(1)
	mr 5,14
.L596:
	.loc 2 1375 0 discriminator 1
	lwz 7,28(1)
	cmplw 7,19,7
	beq- 7,.L3198
.LVL886:
.LBB2707:
	.loc 2 1375 0 discriminator 2
	cmplw 7,19,23
	ble+ 7,$+8
	b .L238
	cmplw 7,19,25
	blt- 7,.L586
	.loc 2 1375 0
	mr 18,15
	li 11,0
	b .L587
.L586:
.LVL887:
.LBB2666:
.LBB2667:
	.loc 1 343 0 is_stmt 1 discriminator 1
	lwz 4,24(1)
	lwz 0,44(1)
	add 4,4,0
	stw 4,24(1)
.LBE2667:
.LBE2666:
	.loc 2 1375 0 discriminator 1
	b .L588
.LVL888:
.L593:
.LBB2668:
	.loc 2 1375 0 is_stmt 0 discriminator 2
	cmplw 7,18,26
	bge- 7,.L3199
.L589:
.LVL889:
.LBB2664:
.LBB2665:
	.loc 1 343 0 is_stmt 1
	lwz 4,24(1)
	add 4,4,28
	stw 4,24(1)
.LVL890:
.L591:
	add 11,11,29
	addi 18,18,1
.LVL891:
.L587:
.LBE2665:
.LBE2664:
.LBE2668:
	.loc 2 1375 0 discriminator 1
	lwz 6,36(1)
	cmplw 7,18,6
	bne+ 7,.L593
	b .L588
.LVL892:
.L3199:
.LBB2669:
	.loc 2 1375 0 is_stmt 0 discriminator 2
	cmplw 7,18,24
	bgt+ 7,.L589
	.loc 2 1375 0 discriminator 1
	add 3,11,5
	addi 4,1,8
	stw 5,48(1)
	stw 10,60(1)
	stw 11,52(1)
	bl getUBYTE_2_3_3_REV
.LVL893:
	lwz 5,48(1)
	lwz 10,60(1)
	lwz 11,52(1)
	beq- 4,.L592
	lbz 3,8(1)
.LVL894:
	lbz 4,10(1)
	stb 3,10(1)
	stb 4,8(1)
.LVL895:
.L592:
	.loc 2 1375 0 discriminator 2
	addi 3,1,8
	addi 4,1,24
	stw 5,48(1)
	stw 10,60(1)
	stw 11,52(1)
	bl put5A3
.LVL896:
	lwz 11,52(1)
	lwz 10,60(1)
	lwz 5,48(1)
	b .L591
.LVL897:
.L588:
	add 5,5,30
	addi 19,19,1
.LVL898:
	b .L596
.LVL899:
.L3198:
	lwz 8,40(1)
.LBE2669:
.LBE2707:
	.loc 2 1375 0 discriminator 3
	addi 20,20,1
.LVL900:
	add 15,15,31
	add 14,14,8
	b .L597
.L607:
	lwz 14,32(1)
	addi 10,10,1
.LVL901:
	lwz 16,28(1)
	add 17,17,14
.LVL902:
.L519:
	.loc 2 1375 0 discriminator 1
	cmpw 7,10,21
	blt+ 7,$+8
	b .L238
	add 0,16,27
	.loc 2 1375 0
	mr 14,17
	stw 0,28(1)
	li 15,0
	li 20,0
.LVL903:
.L609:
	.loc 2 1375 0 discriminator 1
	cmpw 7,20,22
	bge- 7,.L607
	add 12,15,31
	.loc 2 1375 0
	mr 19,16
	stw 12,36(1)
	mr 5,14
.L608:
	.loc 2 1375 0 discriminator 1
	lwz 8,28(1)
	cmplw 7,19,8
	beq- 7,.L3200
.LVL904:
.LBB2708:
	.loc 2 1375 0 discriminator 2
	cmplw 7,19,23
	ble+ 7,$+8
	b .L238
	cmplw 7,19,25
	blt- 7,.L598
	.loc 2 1375 0
	mr 18,15
	li 11,0
	b .L599
.L598:
.LVL905:
.LBB2674:
.LBB2675:
	.loc 1 343 0 is_stmt 1 discriminator 1
	lwz 4,24(1)
	lwz 6,44(1)
	add 4,4,6
	stw 4,24(1)
.LBE2675:
.LBE2674:
	.loc 2 1375 0 discriminator 1
	b .L600
.LVL906:
.L605:
.LBB2676:
	.loc 2 1375 0 is_stmt 0 discriminator 2
	cmplw 7,18,26
	bge- 7,.L3201
.L601:
.LVL907:
.LBB2672:
.LBB2673:
	.loc 1 343 0 is_stmt 1
	lwz 4,24(1)
	add 4,4,28
	stw 4,24(1)
.LVL908:
.L603:
	add 11,11,29
	addi 18,18,1
.LVL909:
.L599:
.LBE2673:
.LBE2672:
.LBE2676:
	.loc 2 1375 0 discriminator 1
	lwz 7,36(1)
	cmplw 7,18,7
	bne+ 7,.L605
	b .L600
.LVL910:
.L3201:
.LBB2677:
	.loc 2 1375 0 is_stmt 0 discriminator 2
	cmplw 7,18,24
	bgt+ 7,.L601
	.loc 2 1375 0 discriminator 1
	add 3,11,5
	addi 4,1,8
	stw 5,48(1)
	stw 10,60(1)
	stw 11,52(1)
	bl getUBYTE_2_3_3_REV
.LVL911:
	lwz 5,48(1)
	lwz 10,60(1)
	lwz 11,52(1)
	beq- 4,.L604
	lbz 3,8(1)
.LVL912:
	lbz 4,10(1)
	stb 3,10(1)
	stb 4,8(1)
.LVL913:
.L604:
	.loc 2 1375 0 discriminator 2
	addi 3,1,8
	addi 4,1,24
	stw 5,48(1)
	stw 10,60(1)
	stw 11,52(1)
	bl put565
.LVL914:
	lwz 11,52(1)
	lwz 10,60(1)
	lwz 5,48(1)
	b .L603
.LVL915:
.L600:
	add 5,5,30
	addi 19,19,1
.LVL916:
	b .L608
.LVL917:
.L3200:
	lwz 9,40(1)
.LBE2677:
.LBE2708:
	.loc 2 1375 0 discriminator 3
	addi 20,20,1
.LVL918:
	add 15,15,31
	add 14,14,9
	b .L609
.LVL919:
.L629:
	lwz 8,44(1)
	addi 14,14,1
.LVL920:
	mr 19,17
	add 15,15,8
.LVL921:
.L517:
	.loc 2 1375 0 discriminator 1
	cmpw 7,14,21
	blt+ 7,$+8
	b .L238
	.loc 2 1375 0
	mr 18,15
	li 20,0
	li 16,0
	add 17,19,27
.L631:
.LVL922:
	.loc 2 1375 0 discriminator 1
	cmpw 7,16,22
	bge- 7,.L629
	add 7,20,31
	.loc 2 1375 0
	mr 9,19
	stw 7,32(1)
	mr 8,18
.L630:
	.loc 2 1375 0 discriminator 1
	cmplw 7,9,17
	beq- 7,.L3202
.LVL923:
.LBB2709:
	.loc 2 1375 0 discriminator 2
	cmplw 7,9,23
	ble+ 7,$+8
	b .L238
	cmplw 7,9,25
	blt- 7,.L610
	.loc 2 1375 0
	mr 10,20
	li 7,0
	b .L611
.L610:
.LVL924:
.LBB2658:
.LBB2659:
	.loc 1 343 0 is_stmt 1 discriminator 1
	lwz 10,24(1)
	lwz 6,28(1)
	add 10,10,6
	stw 10,24(1)
.LBE2659:
.LBE2658:
	.loc 2 1375 0 discriminator 1
	b .L612
.LVL925:
.L617:
.LBB2660:
	.loc 2 1375 0 is_stmt 0 discriminator 2
	cmplw 7,10,26
	bge- 7,.L3203
.L613:
.LVL926:
.LBB2656:
.LBB2657:
	.loc 1 343 0 is_stmt 1
	lwz 6,24(1)
	add 6,6,28
	stw 6,24(1)
.LVL927:
.L615:
	add 7,7,29
	addi 10,10,1
.L611:
.LBE2657:
.LBE2656:
.LBE2660:
	.loc 2 1375 0 discriminator 1
	lwz 12,32(1)
	cmplw 7,10,12
	bne+ 7,.L617
	b .L612
.LVL928:
.L3203:
.LBB2661:
	.loc 2 1375 0 is_stmt 0 discriminator 2
	cmplw 7,10,24
	bgt+ 7,.L613
	.loc 2 1375 0 discriminator 1
	add 3,7,8
	addi 4,1,8
	stw 7,52(1)
	stw 8,48(1)
	stw 9,56(1)
	stw 10,60(1)
	bl getUBYTE_2_3_3_REV
.LVL929:
	lwz 7,52(1)
	lwz 8,48(1)
	lwz 9,56(1)
	lwz 10,60(1)
	beq- 4,.L616
	lbz 5,8(1)
.LVL930:
	lbz 6,10(1)
	stb 5,10(1)
	stb 6,8(1)
.LVL931:
.L616:
	.loc 2 1375 0 discriminator 2
	addi 3,1,8
	addi 4,1,24
	stw 7,52(1)
	stw 8,48(1)
	stw 9,56(1)
	stw 10,60(1)
	bl putAR
.LVL932:
	lwz 10,60(1)
	lwz 9,56(1)
	lwz 8,48(1)
	lwz 7,52(1)
	b .L615
.L612:
	add 8,8,30
	addi 9,9,1
	b .L630
.L3202:
	add 0,20,31
.LBE2661:
.LBE2709:
	.loc 2 1375 0
	mr 10,19
	stw 0,36(1)
	li 8,0
.L619:
	.loc 2 1375 0 discriminator 1
	cmplw 7,10,17
	beq- 7,.L3204
.LVL933:
.LBB2710:
	.loc 2 1375 0 discriminator 2
	cmplw 7,10,25
	blt- 7,.L620
	add 6,8,18
	.loc 2 1375 0
	mr 9,20
	li 7,0
	stw 6,32(1)
	b .L621
.L620:
.LVL934:
.LBB2711:
.LBB2712:
	.loc 1 343 0 is_stmt 1 discriminator 1
	lwz 9,24(1)
	lwz 7,28(1)
	add 9,9,7
	stw 9,24(1)
.LBE2712:
.LBE2711:
	.loc 2 1375 0 discriminator 1
	b .L622
.LVL935:
.L627:
.LBB2713:
	.loc 2 1375 0 is_stmt 0 discriminator 2
	cmplw 7,9,26
	bge- 7,.L3205
.L623:
.LVL936:
.LBB2714:
.LBB2715:
	.loc 1 343 0 is_stmt 1
	lwz 6,24(1)
	add 6,6,28
	stw 6,24(1)
.LVL937:
.L625:
	add 7,7,29
	addi 9,9,1
.L621:
.LBE2715:
.LBE2714:
.LBE2713:
	.loc 2 1375 0 discriminator 1
	lwz 0,36(1)
	cmplw 7,9,0
	bne+ 7,.L627
	b .L622
.LVL938:
.L3205:
.LBB2716:
	.loc 2 1375 0 is_stmt 0 discriminator 2
	cmplw 7,9,24
	bgt+ 7,.L623
	.loc 2 1375 0 discriminator 1
	lwz 12,32(1)
	addi 4,1,8
	stw 7,52(1)
	add 3,7,12
	stw 8,48(1)
	stw 9,56(1)
	stw 10,60(1)
	bl getUBYTE_2_3_3_REV
.LVL939:
	lwz 7,52(1)
	lwz 8,48(1)
	lwz 9,56(1)
	lwz 10,60(1)
	beq- 4,.L626
	lbz 5,8(1)
.LVL940:
	lbz 6,10(1)
	stb 5,10(1)
	stb 6,8(1)
.LVL941:
.L626:
	.loc 2 1375 0 discriminator 2
	addi 3,1,8
	addi 4,1,24
	stw 7,52(1)
	stw 8,48(1)
	stw 9,56(1)
	stw 10,60(1)
	bl putGB
.LVL942:
	lwz 10,60(1)
	lwz 9,56(1)
	lwz 8,48(1)
	lwz 7,52(1)
	b .L625
.L622:
	add 8,8,30
	addi 10,10,1
	b .L619
.L3204:
	lwz 6,40(1)
.LBE2716:
.LBE2710:
	.loc 2 1375 0 discriminator 3
	addi 16,16,1
.LVL943:
	add 20,20,31
	add 18,18,6
	b .L631
.LVL944:
.L376:
	.loc 2 1377 0 is_stmt 1
	cmplwi 7,19,4
	beq- 7,.L632
	bgt- 7,.L633
	cmplwi 7,19,2
	beq- 7,.L634
	bgt- 7,.L635
	cmplwi 7,19,1
	beq+ 7,$+8
	b .L238
	mullw 10,29,31
.LVL945:
	mr 17,15
.LBB2717:
	li 16,0
.LBB2718:
	cmpwi 4,20,0
.LBE2718:
	mullw 8,28,31
	stw 10,40(1)
	li 10,0
	mullw 9,30,27
	stw 8,44(1)
	stw 9,32(1)
	b .L645
.LVL946:
.L633:
.LBE2717:
	cmplwi 7,19,6
	beq- 7,.L637
	blt- 7,.L638
	cmplwi 7,19,39
	beq+ 7,$+8
	b .L238
	mullw 10,30,27
.LVL947:
	mr 17,15
.LBB2725:
	li 16,0
.LBB2726:
	cmpwi 4,20,0
.LBE2726:
	mullw 9,28,31
	stw 10,32(1)
	li 10,0
	mullw 12,29,31
	stw 9,44(1)
	stw 12,40(1)
	b .L640
.LVL948:
.L637:
.LBE2725:
.LBB2733:
	mullw 14,28,31
	li 19,0
.LVL949:
.LBB2734:
	cmpwi 4,20,0
	mullw 0,30,27
.LBE2734:
	stw 14,28(1)
	li 14,0
	mullw 6,29,31
	stw 0,44(1)
	stw 6,40(1)
	b .L641
.LVL950:
.L638:
.LBE2733:
.LBB2741:
	mullw 7,28,31
.LVL951:
	mr 17,15
	li 16,0
	li 10,0
.LVL952:
.LBB2742:
	cmpwi 4,20,0
	mullw 8,30,27
.LBE2742:
	stw 7,44(1)
	mullw 9,29,31
	stw 8,32(1)
	stw 9,40(1)
	b .L642
.LVL953:
.L632:
.LBE2741:
.LBB2749:
	mullw 10,28,31
.LVL954:
	mr 17,15
	li 16,0
.LBB2750:
	cmpwi 4,20,0
	mullw 12,30,27
.LBE2750:
	stw 10,44(1)
	li 10,0
	mullw 14,29,31
	stw 12,32(1)
	stw 14,40(1)
	b .L643
.LVL955:
.L634:
.LBE2749:
.LBB2757:
	mullw 0,28,31
	mr 17,15
	li 16,0
	li 10,0
.LVL956:
.LBB2758:
	cmpwi 4,20,0
	mullw 6,30,27
.LBE2758:
	stw 0,44(1)
	mullw 7,29,31
.LVL957:
	stw 6,32(1)
	stw 7,40(1)
	b .L644
.LVL958:
.L655:
	lwz 9,32(1)
.LBE2757:
	.loc 2 1377 0 is_stmt 0 discriminator 3
	addi 10,10,1
.LVL959:
	lwz 16,28(1)
	add 17,17,9
.LVL960:
.L645:
	.loc 2 1377 0 discriminator 1
	cmpw 7,10,21
	blt+ 7,$+8
	b .L238
	add 12,16,27
	.loc 2 1377 0
	mr 14,17
	stw 12,28(1)
	li 15,0
	li 20,0
.LVL961:
.L657:
	.loc 2 1377 0 discriminator 1
	cmpw 7,20,22
	bge- 7,.L655
	add 8,15,31
	.loc 2 1377 0
	mr 19,16
	stw 8,36(1)
	mr 5,14
.L656:
	.loc 2 1377 0 discriminator 1
	lwz 6,28(1)
	cmplw 7,19,6
	beq- 7,.L3206
.LVL962:
.LBB2765:
	.loc 2 1377 0 discriminator 2
	cmplw 7,19,23
	ble+ 7,$+8
	b .L238
	cmplw 7,19,25
	blt- 7,.L646
	.loc 2 1377 0
	mr 18,15
	li 11,0
	b .L647
.L646:
.LVL963:
.LBB2721:
.LBB2722:
	.loc 1 343 0 is_stmt 1 discriminator 1
	lwz 4,24(1)
	lwz 12,44(1)
	add 4,4,12
	stw 4,24(1)
.LBE2722:
.LBE2721:
	.loc 2 1377 0 discriminator 1
	b .L648
.LVL964:
.L653:
.LBB2723:
	.loc 2 1377 0 is_stmt 0 discriminator 2
	cmplw 7,18,26
	bge- 7,.L3207
.L649:
.LVL965:
.LBB2719:
.LBB2720:
	.loc 1 343 0 is_stmt 1
	lwz 4,24(1)
	add 4,4,28
	stw 4,24(1)
.LVL966:
.L651:
	add 11,11,29
	addi 18,18,1
.LVL967:
.L647:
.LBE2720:
.LBE2719:
.LBE2723:
	.loc 2 1377 0 discriminator 1
	lwz 0,36(1)
	cmplw 7,18,0
	bne+ 7,.L653
	b .L648
.LVL968:
.L3207:
.LBB2724:
	.loc 2 1377 0 is_stmt 0 discriminator 2
	cmplw 7,18,24
	bgt+ 7,.L649
	.loc 2 1377 0 discriminator 1
	add 3,11,5
	addi 4,1,8
	stw 5,48(1)
	stw 10,60(1)
	stw 11,52(1)
	bl getUSHORT_5_6_5
.LVL969:
	lwz 5,48(1)
	lwz 10,60(1)
	lwz 11,52(1)
	beq- 4,.L652
	lbz 3,8(1)
.LVL970:
	lbz 4,10(1)
	stb 3,10(1)
	stb 4,8(1)
.LVL971:
.L652:
	.loc 2 1377 0 discriminator 2
	addi 3,1,8
	addi 4,1,24
	stw 5,48(1)
	stw 10,60(1)
	stw 11,52(1)
	bl putI8
.LVL972:
	lwz 11,52(1)
	lwz 10,60(1)
	lwz 5,48(1)
	b .L651
.LVL973:
.L648:
	add 5,5,30
	addi 19,19,1
.LVL974:
	b .L656
.LVL975:
.L3206:
	lwz 7,40(1)
.LBE2724:
.LBE2765:
	.loc 2 1377 0 discriminator 3
	addi 20,20,1
.LVL976:
	add 15,15,31
	add 14,14,7
	b .L657
.L667:
	lwz 12,32(1)
	addi 10,10,1
.LVL977:
	lwz 16,28(1)
	add 17,17,12
.LVL978:
.L640:
	.loc 2 1377 0 discriminator 1
	cmpw 7,10,21
	blt+ 7,$+8
	b .L238
	add 0,16,27
	.loc 2 1377 0
	mr 14,17
	stw 0,28(1)
	li 15,0
	li 20,0
.LVL979:
.L669:
	.loc 2 1377 0 discriminator 1
	cmpw 7,20,22
	bge- 7,.L667
	add 9,15,31
	.loc 2 1377 0
	mr 19,16
	stw 9,36(1)
	mr 5,14
.L668:
	.loc 2 1377 0 discriminator 1
	lwz 7,28(1)
	cmplw 7,19,7
	beq- 7,.L3208
.LVL980:
.LBB2766:
	.loc 2 1377 0 discriminator 2
	cmplw 7,19,23
	ble+ 7,$+8
	b .L238
	cmplw 7,19,25
	blt- 7,.L658
	.loc 2 1377 0
	mr 18,15
	li 11,0
	b .L659
.L658:
.LVL981:
.LBB2729:
.LBB2730:
	.loc 1 343 0 is_stmt 1 discriminator 1
	lwz 4,24(1)
	lwz 0,44(1)
	add 4,4,0
	stw 4,24(1)
.LBE2730:
.LBE2729:
	.loc 2 1377 0 discriminator 1
	b .L660
.LVL982:
.L665:
.LBB2731:
	.loc 2 1377 0 is_stmt 0 discriminator 2
	cmplw 7,18,26
	bge- 7,.L3209
.L661:
.LVL983:
.LBB2727:
.LBB2728:
	.loc 1 343 0 is_stmt 1
	lwz 4,24(1)
	add 4,4,28
	stw 4,24(1)
.LVL984:
.L663:
	add 11,11,29
	addi 18,18,1
.LVL985:
.L659:
.LBE2728:
.LBE2727:
.LBE2731:
	.loc 2 1377 0 discriminator 1
	lwz 6,36(1)
	cmplw 7,18,6
	bne+ 7,.L665
	b .L660
.LVL986:
.L3209:
.LBB2732:
	.loc 2 1377 0 is_stmt 0 discriminator 2
	cmplw 7,18,24
	bgt+ 7,.L661
	.loc 2 1377 0 discriminator 1
	add 3,11,5
	addi 4,1,8
	stw 5,48(1)
	stw 10,60(1)
	stw 11,52(1)
	bl getUSHORT_5_6_5
.LVL987:
	lwz 5,48(1)
	lwz 10,60(1)
	lwz 11,52(1)
	beq- 4,.L664
	lbz 3,8(1)
.LVL988:
	lbz 4,10(1)
	stb 3,10(1)
	stb 4,8(1)
.LVL989:
.L664:
	.loc 2 1377 0 discriminator 2
	addi 3,1,8
	addi 4,1,24
	stw 5,48(1)
	stw 10,60(1)
	stw 11,52(1)
	bl putA8
.LVL990:
	lwz 11,52(1)
	lwz 10,60(1)
	lwz 5,48(1)
	b .L663
.LVL991:
.L660:
	add 5,5,30
	addi 19,19,1
.LVL992:
	b .L668
.LVL993:
.L3208:
	lwz 8,40(1)
.LBE2732:
.LBE2766:
	.loc 2 1377 0 discriminator 3
	addi 20,20,1
.LVL994:
	add 15,15,31
	add 14,14,8
	b .L669
.L679:
	lwz 14,32(1)
	addi 10,10,1
.LVL995:
	lwz 16,28(1)
	add 17,17,14
.LVL996:
.L644:
	.loc 2 1377 0 discriminator 1
	cmpw 7,10,21
	blt+ 7,$+8
	b .L238
	add 0,16,27
	.loc 2 1377 0
	mr 14,17
	stw 0,28(1)
	li 15,0
	li 20,0
.LVL997:
.L681:
	.loc 2 1377 0 discriminator 1
	cmpw 7,20,22
	bge- 7,.L679
	add 12,15,31
	.loc 2 1377 0
	mr 19,16
	stw 12,36(1)
	mr 5,14
.L680:
	.loc 2 1377 0 discriminator 1
	lwz 8,28(1)
	cmplw 7,19,8
	beq- 7,.L3210
.LVL998:
.LBB2767:
	.loc 2 1377 0 discriminator 2
	cmplw 7,19,23
	ble+ 7,$+8
	b .L238
	cmplw 7,19,25
	blt- 7,.L670
	.loc 2 1377 0
	mr 18,15
	li 11,0
	b .L671
.L670:
.LVL999:
.LBB2761:
.LBB2762:
	.loc 1 343 0 is_stmt 1 discriminator 1
	lwz 4,24(1)
	lwz 6,44(1)
	add 4,4,6
	stw 4,24(1)
.LBE2762:
.LBE2761:
	.loc 2 1377 0 discriminator 1
	b .L672
.LVL1000:
.L677:
.LBB2763:
	.loc 2 1377 0 is_stmt 0 discriminator 2
	cmplw 7,18,26
	bge- 7,.L3211
.L673:
.LVL1001:
.LBB2759:
.LBB2760:
	.loc 1 343 0 is_stmt 1
	lwz 4,24(1)
	add 4,4,28
	stw 4,24(1)
.LVL1002:
.L675:
	add 11,11,29
	addi 18,18,1
.LVL1003:
.L671:
.LBE2760:
.LBE2759:
.LBE2763:
	.loc 2 1377 0 discriminator 1
	lwz 7,36(1)
	cmplw 7,18,7
	bne+ 7,.L677
	b .L672
.LVL1004:
.L3211:
.LBB2764:
	.loc 2 1377 0 is_stmt 0 discriminator 2
	cmplw 7,18,24
	bgt+ 7,.L673
	.loc 2 1377 0 discriminator 1
	add 3,11,5
	addi 4,1,8
	stw 5,48(1)
	stw 10,60(1)
	stw 11,52(1)
	bl getUSHORT_5_6_5
.LVL1005:
	lwz 5,48(1)
	lwz 10,60(1)
	lwz 11,52(1)
	beq- 4,.L676
	lbz 3,8(1)
.LVL1006:
	lbz 4,10(1)
	stb 3,10(1)
	stb 4,8(1)
.LVL1007:
.L676:
	.loc 2 1377 0 discriminator 2
	addi 3,1,8
	addi 4,1,24
	stw 5,48(1)
	stw 10,60(1)
	stw 11,52(1)
	bl putIA4
.LVL1008:
	lwz 11,52(1)
	lwz 10,60(1)
	lwz 5,48(1)
	b .L675
.LVL1009:
.L672:
	add 5,5,30
	addi 19,19,1
.LVL1010:
	b .L680
.LVL1011:
.L3210:
	lwz 9,40(1)
.LBE2764:
.LBE2767:
	.loc 2 1377 0 discriminator 3
	addi 20,20,1
.LVL1012:
	add 15,15,31
	add 14,14,9
	b .L681
.LVL1013:
.L635:
	mullw 6,28,31
	.loc 2 1377 0 discriminator 4
	cmplwi 7,18,6406
	mullw 7,30,27
.LVL1014:
	stw 6,28(1)
	mullw 8,29,31
	stw 7,40(1)
	stw 8,44(1)
	bne- 7,.L3137
	mr 17,15
.LBB2768:
	.loc 2 1377 0
	li 16,0
	li 10,0
.LVL1015:
.LBB2769:
	cmpwi 4,20,0
	b .L684
.LVL1016:
.L3137:
	mr 14,15
.LBE2769:
.LBE2768:
.LBB2776:
	li 17,0
	li 10,0
.LVL1017:
.LBB2777:
	cmpwi 4,20,0
	b .L685
.LVL1018:
.L695:
	lwz 8,40(1)
.LBE2777:
.LBE2776:
	.loc 2 1377 0 discriminator 3
	addi 10,10,1
.LVL1019:
	lwz 16,32(1)
	add 17,17,8
.LVL1020:
.L684:
	.loc 2 1377 0 discriminator 1
	cmpw 7,10,21
	blt+ 7,$+8
	b .L238
	add 9,16,27
	.loc 2 1377 0
	mr 20,17
	stw 9,32(1)
	li 15,0
	li 14,0
.LVL1021:
.L697:
	.loc 2 1377 0 discriminator 1
	cmpw 7,14,22
	bge- 7,.L695
	add 7,15,31
	.loc 2 1377 0
	mr 19,16
	stw 7,36(1)
	mr 5,20
.L696:
	.loc 2 1377 0 discriminator 1
	lwz 0,32(1)
	cmplw 7,19,0
	beq- 7,.L3212
.LVL1022:
.LBB2784:
	.loc 2 1377 0 discriminator 2
	cmplw 7,19,23
	ble+ 7,$+8
	b .L238
	cmplw 7,19,25
	blt- 7,.L686
	.loc 2 1377 0
	mr 18,15
	li 11,0
	b .L687
.L686:
.LVL1023:
.LBB2772:
.LBB2773:
	.loc 1 343 0 is_stmt 1 discriminator 1
	lwz 4,24(1)
	lwz 9,28(1)
	add 4,4,9
	stw 4,24(1)
.LBE2773:
.LBE2772:
	.loc 2 1377 0 discriminator 1
	b .L688
.LVL1024:
.L693:
.LBB2774:
	.loc 2 1377 0 is_stmt 0 discriminator 2
	cmplw 7,18,26
	bge- 7,.L3213
.L689:
.LVL1025:
.LBB2770:
.LBB2771:
	.loc 1 343 0 is_stmt 1
	lwz 4,24(1)
	add 4,4,28
	stw 4,24(1)
.LVL1026:
.L691:
	add 11,11,29
	addi 18,18,1
.LVL1027:
.L687:
.LBE2771:
.LBE2770:
.LBE2774:
	.loc 2 1377 0 discriminator 1
	lwz 12,36(1)
	cmplw 7,18,12
	bne+ 7,.L693
	b .L688
.LVL1028:
.L3213:
.LBB2775:
	.loc 2 1377 0 is_stmt 0 discriminator 2
	cmplw 7,18,24
	bgt+ 7,.L689
	.loc 2 1377 0 discriminator 1
	add 3,11,5
	addi 4,1,8
	stw 5,48(1)
	stw 10,60(1)
	stw 11,52(1)
	bl getUSHORT_5_6_5
.LVL1029:
	lwz 5,48(1)
	lwz 10,60(1)
	lwz 11,52(1)
	beq- 4,.L692
	lbz 3,8(1)
.LVL1030:
	lbz 4,10(1)
	stb 3,10(1)
	stb 4,8(1)
.LVL1031:
.L692:
	.loc 2 1377 0 discriminator 2
	addi 3,1,8
	addi 4,1,24
	stw 5,48(1)
	stw 10,60(1)
	stw 11,52(1)
	bl putIA8A
.LVL1032:
	lwz 11,52(1)
	lwz 10,60(1)
	lwz 5,48(1)
	b .L691
.LVL1033:
.L688:
	add 5,5,30
	addi 19,19,1
.LVL1034:
	b .L696
.LVL1035:
.L3212:
	lwz 6,44(1)
.LBE2775:
.LBE2784:
	.loc 2 1377 0 discriminator 3
	addi 14,14,1
.LVL1036:
	add 15,15,31
	add 20,20,6
	b .L697
.LVL1037:
.L707:
	lwz 9,40(1)
	addi 10,10,1
.LVL1038:
	lwz 17,32(1)
	add 14,14,9
.LVL1039:
.L685:
	.loc 2 1377 0 discriminator 1
	cmpw 7,10,21
	blt+ 7,$+8
	b .L238
	add 12,17,27
	.loc 2 1377 0
	mr 16,14
	stw 12,32(1)
	li 15,0
	li 20,0
.LVL1040:
.L709:
	.loc 2 1377 0 discriminator 1
	cmpw 7,20,22
	bge- 7,.L707
	add 8,15,31
	.loc 2 1377 0
	mr 19,17
	stw 8,36(1)
	mr 5,16
.L708:
	.loc 2 1377 0 discriminator 1
	lwz 6,32(1)
	cmplw 7,19,6
	beq- 7,.L3214
.LVL1041:
.LBB2785:
	.loc 2 1377 0 discriminator 2
	cmplw 7,19,23
	ble+ 7,$+8
	b .L238
	cmplw 7,19,25
	blt- 7,.L698
	.loc 2 1377 0
	mr 18,15
	li 11,0
	b .L699
.L698:
.LVL1042:
.LBB2780:
.LBB2781:
	.loc 1 343 0 is_stmt 1 discriminator 1
	lwz 4,24(1)
	lwz 12,28(1)
	add 4,4,12
	stw 4,24(1)
.LBE2781:
.LBE2780:
	.loc 2 1377 0 discriminator 1
	b .L700
.LVL1043:
.L705:
.LBB2782:
	.loc 2 1377 0 is_stmt 0 discriminator 2
	cmplw 7,18,26
	bge- 7,.L3215
.L701:
.LVL1044:
.LBB2778:
.LBB2779:
	.loc 1 343 0 is_stmt 1
	lwz 4,24(1)
	add 4,4,28
	stw 4,24(1)
.LVL1045:
.L703:
	add 11,11,29
	addi 18,18,1
.LVL1046:
.L699:
.LBE2779:
.LBE2778:
.LBE2782:
	.loc 2 1377 0 discriminator 1
	lwz 0,36(1)
	cmplw 7,18,0
	bne+ 7,.L705
	b .L700
.LVL1047:
.L3215:
.LBB2783:
	.loc 2 1377 0 is_stmt 0 discriminator 2
	cmplw 7,18,24
	bgt+ 7,.L701
	.loc 2 1377 0 discriminator 1
	add 3,11,5
	addi 4,1,8
	stw 5,48(1)
	stw 10,60(1)
	stw 11,52(1)
	bl getUSHORT_5_6_5
.LVL1048:
	lwz 5,48(1)
	lwz 10,60(1)
	lwz 11,52(1)
	beq- 4,.L704
	lbz 3,8(1)
.LVL1049:
	lbz 4,10(1)
	stb 3,10(1)
	stb 4,8(1)
.LVL1050:
.L704:
	.loc 2 1377 0 discriminator 2
	addi 3,1,8
	addi 4,1,24
	stw 5,48(1)
	stw 10,60(1)
	stw 11,52(1)
	bl putIA8
.LVL1051:
	lwz 11,52(1)
	lwz 10,60(1)
	lwz 5,48(1)
	b .L703
.LVL1052:
.L700:
	add 5,5,30
	addi 19,19,1
.LVL1053:
	b .L708
.LVL1054:
.L3214:
	lwz 7,44(1)
.LBE2783:
.LBE2785:
	.loc 2 1377 0 discriminator 3
	addi 20,20,1
.LVL1055:
	add 15,15,31
	add 16,16,7
	b .L709
.L719:
	lwz 12,32(1)
	addi 10,10,1
.LVL1056:
	lwz 16,28(1)
	add 17,17,12
.LVL1057:
.L642:
	.loc 2 1377 0 discriminator 1
	cmpw 7,10,21
	blt+ 7,$+8
	b .L238
	add 0,16,27
	.loc 2 1377 0
	mr 14,17
	stw 0,28(1)
	li 15,0
	li 20,0
.LVL1058:
.L721:
	.loc 2 1377 0 discriminator 1
	cmpw 7,20,22
	bge- 7,.L719
	add 9,15,31
	.loc 2 1377 0
	mr 19,16
	stw 9,36(1)
	mr 5,14
.L720:
	.loc 2 1377 0 discriminator 1
	lwz 7,28(1)
	cmplw 7,19,7
	beq- 7,.L3216
.LVL1059:
.LBB2786:
	.loc 2 1377 0 discriminator 2
	cmplw 7,19,23
	ble+ 7,$+8
	b .L238
	cmplw 7,19,25
	blt- 7,.L710
	.loc 2 1377 0
	mr 18,15
	li 11,0
	b .L711
.L710:
.LVL1060:
.LBB2745:
.LBB2746:
	.loc 1 343 0 is_stmt 1 discriminator 1
	lwz 4,24(1)
	lwz 0,44(1)
	add 4,4,0
	stw 4,24(1)
.LBE2746:
.LBE2745:
	.loc 2 1377 0 discriminator 1
	b .L712
.LVL1061:
.L717:
.LBB2747:
	.loc 2 1377 0 is_stmt 0 discriminator 2
	cmplw 7,18,26
	bge- 7,.L3217
.L713:
.LVL1062:
.LBB2743:
.LBB2744:
	.loc 1 343 0 is_stmt 1
	lwz 4,24(1)
	add 4,4,28
	stw 4,24(1)
.LVL1063:
.L715:
	add 11,11,29
	addi 18,18,1
.LVL1064:
.L711:
.LBE2744:
.LBE2743:
.LBE2747:
	.loc 2 1377 0 discriminator 1
	lwz 6,36(1)
	cmplw 7,18,6
	bne+ 7,.L717
	b .L712
.LVL1065:
.L3217:
.LBB2748:
	.loc 2 1377 0 is_stmt 0 discriminator 2
	cmplw 7,18,24
	bgt+ 7,.L713
	.loc 2 1377 0 discriminator 1
	add 3,11,5
	addi 4,1,8
	stw 5,48(1)
	stw 10,60(1)
	stw 11,52(1)
	bl getUSHORT_5_6_5
.LVL1066:
	lwz 5,48(1)
	lwz 10,60(1)
	lwz 11,52(1)
	beq- 4,.L716
	lbz 3,8(1)
.LVL1067:
	lbz 4,10(1)
	stb 3,10(1)
	stb 4,8(1)
.LVL1068:
.L716:
	.loc 2 1377 0 discriminator 2
	addi 3,1,8
	addi 4,1,24
	stw 5,48(1)
	stw 10,60(1)
	stw 11,52(1)
	bl put5A3
.LVL1069:
	lwz 11,52(1)
	lwz 10,60(1)
	lwz 5,48(1)
	b .L715
.LVL1070:
.L712:
	add 5,5,30
	addi 19,19,1
.LVL1071:
	b .L720
.LVL1072:
.L3216:
	lwz 8,40(1)
.LBE2748:
.LBE2786:
	.loc 2 1377 0 discriminator 3
	addi 20,20,1
.LVL1073:
	add 15,15,31
	add 14,14,8
	b .L721
.L731:
	lwz 14,32(1)
	addi 10,10,1
.LVL1074:
	lwz 16,28(1)
	add 17,17,14
.LVL1075:
.L643:
	.loc 2 1377 0 discriminator 1
	cmpw 7,10,21
	blt+ 7,$+8
	b .L238
	add 0,16,27
	.loc 2 1377 0
	mr 14,17
	stw 0,28(1)
	li 15,0
	li 20,0
.LVL1076:
.L733:
	.loc 2 1377 0 discriminator 1
	cmpw 7,20,22
	bge- 7,.L731
	add 12,15,31
	.loc 2 1377 0
	mr 19,16
	stw 12,36(1)
	mr 5,14
.L732:
	.loc 2 1377 0 discriminator 1
	lwz 8,28(1)
	cmplw 7,19,8
	beq- 7,.L3218
.LVL1077:
.LBB2787:
	.loc 2 1377 0 discriminator 2
	cmplw 7,19,23
	ble+ 7,$+8
	b .L238
	cmplw 7,19,25
	blt- 7,.L722
	.loc 2 1377 0
	mr 18,15
	li 11,0
	b .L723
.L722:
.LVL1078:
.LBB2753:
.LBB2754:
	.loc 1 343 0 is_stmt 1 discriminator 1
	lwz 4,24(1)
	lwz 6,44(1)
	add 4,4,6
	stw 4,24(1)
.LBE2754:
.LBE2753:
	.loc 2 1377 0 discriminator 1
	b .L724
.LVL1079:
.L729:
.LBB2755:
	.loc 2 1377 0 is_stmt 0 discriminator 2
	cmplw 7,18,26
	bge- 7,.L3219
.L725:
.LVL1080:
.LBB2751:
.LBB2752:
	.loc 1 343 0 is_stmt 1
	lwz 4,24(1)
	add 4,4,28
	stw 4,24(1)
.LVL1081:
.L727:
	add 11,11,29
	addi 18,18,1
.LVL1082:
.L723:
.LBE2752:
.LBE2751:
.LBE2755:
	.loc 2 1377 0 discriminator 1
	lwz 7,36(1)
	cmplw 7,18,7
	bne+ 7,.L729
	b .L724
.LVL1083:
.L3219:
.LBB2756:
	.loc 2 1377 0 is_stmt 0 discriminator 2
	cmplw 7,18,24
	bgt+ 7,.L725
	.loc 2 1377 0 discriminator 1
	add 3,11,5
	addi 4,1,8
	stw 5,48(1)
	stw 10,60(1)
	stw 11,52(1)
	bl getUSHORT_5_6_5
.LVL1084:
	lwz 5,48(1)
	lwz 10,60(1)
	lwz 11,52(1)
	beq- 4,.L728
	lbz 3,8(1)
.LVL1085:
	lbz 4,10(1)
	stb 3,10(1)
	stb 4,8(1)
.LVL1086:
.L728:
	.loc 2 1377 0 discriminator 2
	addi 3,1,8
	addi 4,1,24
	stw 5,48(1)
	stw 10,60(1)
	stw 11,52(1)
	bl put565
.LVL1087:
	lwz 11,52(1)
	lwz 10,60(1)
	lwz 5,48(1)
	b .L727
.LVL1088:
.L724:
	add 5,5,30
	addi 19,19,1
.LVL1089:
	b .L732
.LVL1090:
.L3218:
	lwz 9,40(1)
.LBE2756:
.LBE2787:
	.loc 2 1377 0 discriminator 3
	addi 20,20,1
.LVL1091:
	add 15,15,31
	add 14,14,9
	b .L733
.LVL1092:
.L753:
	lwz 8,44(1)
	addi 14,14,1
.LVL1093:
	mr 19,17
	add 15,15,8
.LVL1094:
.L641:
	.loc 2 1377 0 discriminator 1
	cmpw 7,14,21
	blt+ 7,$+8
	b .L238
	.loc 2 1377 0
	mr 18,15
	li 20,0
	li 16,0
	add 17,19,27
.L755:
.LVL1095:
	.loc 2 1377 0 discriminator 1
	cmpw 7,16,22
	bge- 7,.L753
	add 7,20,31
	.loc 2 1377 0
	mr 9,19
	stw 7,32(1)
	mr 8,18
.L754:
	.loc 2 1377 0 discriminator 1
	cmplw 7,9,17
	beq- 7,.L3220
.LVL1096:
.LBB2788:
	.loc 2 1377 0 discriminator 2
	cmplw 7,9,23
	ble+ 7,$+8
	b .L238
	cmplw 7,9,25
	blt- 7,.L734
	.loc 2 1377 0
	mr 10,20
	li 7,0
	b .L735
.L734:
.LVL1097:
.LBB2737:
.LBB2738:
	.loc 1 343 0 is_stmt 1 discriminator 1
	lwz 10,24(1)
	lwz 6,28(1)
	add 10,10,6
	stw 10,24(1)
.LBE2738:
.LBE2737:
	.loc 2 1377 0 discriminator 1
	b .L736
.LVL1098:
.L741:
.LBB2739:
	.loc 2 1377 0 is_stmt 0 discriminator 2
	cmplw 7,10,26
	bge- 7,.L3221
.L737:
.LVL1099:
.LBB2735:
.LBB2736:
	.loc 1 343 0 is_stmt 1
	lwz 6,24(1)
	add 6,6,28
	stw 6,24(1)
.LVL1100:
.L739:
	add 7,7,29
	addi 10,10,1
.L735:
.LBE2736:
.LBE2735:
.LBE2739:
	.loc 2 1377 0 discriminator 1
	lwz 12,32(1)
	cmplw 7,10,12
	bne+ 7,.L741
	b .L736
.LVL1101:
.L3221:
.LBB2740:
	.loc 2 1377 0 is_stmt 0 discriminator 2
	cmplw 7,10,24
	bgt+ 7,.L737
	.loc 2 1377 0 discriminator 1
	add 3,7,8
	addi 4,1,8
	stw 7,52(1)
	stw 8,48(1)
	stw 9,56(1)
	stw 10,60(1)
	bl getUSHORT_5_6_5
.LVL1102:
	lwz 7,52(1)
	lwz 8,48(1)
	lwz 9,56(1)
	lwz 10,60(1)
	beq- 4,.L740
	lbz 5,8(1)
.LVL1103:
	lbz 6,10(1)
	stb 5,10(1)
	stb 6,8(1)
.LVL1104:
.L740:
	.loc 2 1377 0 discriminator 2
	addi 3,1,8
	addi 4,1,24
	stw 7,52(1)
	stw 8,48(1)
	stw 9,56(1)
	stw 10,60(1)
	bl putAR
.LVL1105:
	lwz 10,60(1)
	lwz 9,56(1)
	lwz 8,48(1)
	lwz 7,52(1)
	b .L739
.L736:
	add 8,8,30
	addi 9,9,1
	b .L754
.L3220:
	add 0,20,31
.LBE2740:
.LBE2788:
	.loc 2 1377 0
	mr 10,19
	stw 0,36(1)
	li 8,0
.L743:
	.loc 2 1377 0 discriminator 1
	cmplw 7,10,17
	beq- 7,.L3222
.LVL1106:
.LBB2789:
	.loc 2 1377 0 discriminator 2
	cmplw 7,10,25
	blt- 7,.L744
	add 6,8,18
	.loc 2 1377 0
	mr 9,20
	li 7,0
	stw 6,32(1)
	b .L745
.L744:
.LVL1107:
.LBB2790:
.LBB2791:
	.loc 1 343 0 is_stmt 1 discriminator 1
	lwz 9,24(1)
	lwz 7,28(1)
	add 9,9,7
	stw 9,24(1)
.LBE2791:
.LBE2790:
	.loc 2 1377 0 discriminator 1
	b .L746
.LVL1108:
.L751:
.LBB2792:
	.loc 2 1377 0 is_stmt 0 discriminator 2
	cmplw 7,9,26
	bge- 7,.L3223
.L747:
.LVL1109:
.LBB2793:
.LBB2794:
	.loc 1 343 0 is_stmt 1
	lwz 6,24(1)
	add 6,6,28
	stw 6,24(1)
.LVL1110:
.L749:
	add 7,7,29
	addi 9,9,1
.L745:
.LBE2794:
.LBE2793:
.LBE2792:
	.loc 2 1377 0 discriminator 1
	lwz 0,36(1)
	cmplw 7,9,0
	bne+ 7,.L751
	b .L746
.LVL1111:
.L3223:
.LBB2795:
	.loc 2 1377 0 is_stmt 0 discriminator 2
	cmplw 7,9,24
	bgt+ 7,.L747
	.loc 2 1377 0 discriminator 1
	lwz 12,32(1)
	addi 4,1,8
	stw 7,52(1)
	add 3,7,12
	stw 8,48(1)
	stw 9,56(1)
	stw 10,60(1)
	bl getUSHORT_5_6_5
.LVL1112:
	lwz 7,52(1)
	lwz 8,48(1)
	lwz 9,56(1)
	lwz 10,60(1)
	beq- 4,.L750
	lbz 5,8(1)
.LVL1113:
	lbz 6,10(1)
	stb 5,10(1)
	stb 6,8(1)
.LVL1114:
.L750:
	.loc 2 1377 0 discriminator 2
	addi 3,1,8
	addi 4,1,24
	stw 7,52(1)
	stw 8,48(1)
	stw 9,56(1)
	stw 10,60(1)
	bl putGB
.LVL1115:
	lwz 10,60(1)
	lwz 9,56(1)
	lwz 8,48(1)
	lwz 7,52(1)
	b .L749
.L746:
	add 8,8,30
	addi 10,10,1
	b .L743
.L3222:
	lwz 6,40(1)
.LBE2795:
.LBE2789:
	.loc 2 1377 0 discriminator 3
	addi 16,16,1
.LVL1116:
	add 20,20,31
	add 18,18,6
	b .L755
.LVL1117:
.L377:
	.loc 2 1379 0 is_stmt 1
	cmplwi 7,19,4
	beq- 7,.L756
	bgt- 7,.L757
	cmplwi 7,19,2
	beq- 7,.L758
	bgt- 7,.L759
	cmplwi 7,19,1
	beq+ 7,$+8
	b .L238
	mullw 10,29,31
.LVL1118:
	mr 17,15
.LBB2796:
	li 16,0
.LBB2797:
	cmpwi 4,20,0
.LBE2797:
	mullw 8,28,31
	stw 10,40(1)
	li 10,0
	mullw 9,30,27
	stw 8,44(1)
	stw 9,32(1)
	b .L769
.LVL1119:
.L757:
.LBE2796:
	cmplwi 7,19,6
	beq- 7,.L761
	blt- 7,.L762
	cmplwi 7,19,39
	beq+ 7,$+8
	b .L238
	mullw 10,30,27
.LVL1120:
	mr 17,15
.LBB2804:
	li 16,0
.LBB2805:
	cmpwi 4,20,0
.LBE2805:
	mullw 9,28,31
	stw 10,32(1)
	li 10,0
	mullw 12,29,31
	stw 9,44(1)
	stw 12,40(1)
	b .L764
.LVL1121:
.L761:
.LBE2804:
.LBB2812:
	mullw 14,28,31
	li 19,0
.LVL1122:
.LBB2813:
	cmpwi 4,20,0
	mullw 0,30,27
.LBE2813:
	stw 14,28(1)
	li 14,0
	mullw 6,29,31
	stw 0,44(1)
	stw 6,40(1)
	b .L765
.LVL1123:
.L762:
.LBE2812:
.LBB2820:
	mullw 7,28,31
.LVL1124:
	mr 17,15
	li 16,0
	li 10,0
.LVL1125:
.LBB2821:
	cmpwi 4,20,0
	mullw 8,30,27
.LBE2821:
	stw 7,44(1)
	mullw 9,29,31
	stw 8,32(1)
	stw 9,40(1)
	b .L766
.LVL1126:
.L756:
.LBE2820:
.LBB2828:
	mullw 10,28,31
.LVL1127:
	mr 17,15
	li 16,0
.LBB2829:
	cmpwi 4,20,0
	mullw 12,30,27
.LBE2829:
	stw 10,44(1)
	li 10,0
	mullw 14,29,31
	stw 12,32(1)
	stw 14,40(1)
	b .L767
.LVL1128:
.L758:
.LBE2828:
.LBB2836:
	mullw 0,28,31
	mr 17,15
	li 16,0
	li 10,0
.LVL1129:
.LBB2837:
	cmpwi 4,20,0
	mullw 6,30,27
.LBE2837:
	stw 0,44(1)
	mullw 7,29,31
.LVL1130:
	stw 6,32(1)
	stw 7,40(1)
	b .L768
.LVL1131:
.L779:
	lwz 9,32(1)
.LBE2836:
	.loc 2 1379 0 is_stmt 0 discriminator 3
	addi 10,10,1
.LVL1132:
	lwz 16,28(1)
	add 17,17,9
.LVL1133:
.L769:
	.loc 2 1379 0 discriminator 1
	cmpw 7,10,21
	blt+ 7,$+8
	b .L238
	add 12,16,27
	.loc 2 1379 0
	mr 14,17
	stw 12,28(1)
	li 15,0
	li 20,0
.LVL1134:
.L781:
	.loc 2 1379 0 discriminator 1
	cmpw 7,20,22
	bge- 7,.L779
	add 8,15,31
	.loc 2 1379 0
	mr 19,16
	stw 8,36(1)
	mr 5,14
.L780:
	.loc 2 1379 0 discriminator 1
	lwz 6,28(1)
	cmplw 7,19,6
	beq- 7,.L3224
.LVL1135:
.LBB2844:
	.loc 2 1379 0 discriminator 2
	cmplw 7,19,23
	ble+ 7,$+8
	b .L238
	cmplw 7,19,25
	blt- 7,.L770
	.loc 2 1379 0
	mr 18,15
	li 11,0
	b .L771
.L770:
.LVL1136:
.LBB2800:
.LBB2801:
	.loc 1 343 0 is_stmt 1 discriminator 1
	lwz 4,24(1)
	lwz 12,44(1)
	add 4,4,12
	stw 4,24(1)
.LBE2801:
.LBE2800:
	.loc 2 1379 0 discriminator 1
	b .L772
.LVL1137:
.L777:
.LBB2802:
	.loc 2 1379 0 is_stmt 0 discriminator 2
	cmplw 7,18,26
	bge- 7,.L3225
.L773:
.LVL1138:
.LBB2798:
.LBB2799:
	.loc 1 343 0 is_stmt 1
	lwz 4,24(1)
	add 4,4,28
	stw 4,24(1)
.LVL1139:
.L775:
	add 11,11,29
	addi 18,18,1
.LVL1140:
.L771:
.LBE2799:
.LBE2798:
.LBE2802:
	.loc 2 1379 0 discriminator 1
	lwz 0,36(1)
	cmplw 7,18,0
	bne+ 7,.L777
	b .L772
.LVL1141:
.L3225:
.LBB2803:
	.loc 2 1379 0 is_stmt 0 discriminator 2
	cmplw 7,18,24
	bgt+ 7,.L773
	.loc 2 1379 0 discriminator 1
	add 3,11,5
	addi 4,1,8
	stw 5,48(1)
	stw 10,60(1)
	stw 11,52(1)
	bl getUSHORT_5_6_5_REV
.LVL1142:
	lwz 5,48(1)
	lwz 10,60(1)
	lwz 11,52(1)
	beq- 4,.L776
	lbz 3,8(1)
.LVL1143:
	lbz 4,10(1)
	stb 3,10(1)
	stb 4,8(1)
.LVL1144:
.L776:
	.loc 2 1379 0 discriminator 2
	addi 3,1,8
	addi 4,1,24
	stw 5,48(1)
	stw 10,60(1)
	stw 11,52(1)
	bl putI8
.LVL1145:
	lwz 11,52(1)
	lwz 10,60(1)
	lwz 5,48(1)
	b .L775
.LVL1146:
.L772:
	add 5,5,30
	addi 19,19,1
.LVL1147:
	b .L780
.LVL1148:
.L3224:
	lwz 7,40(1)
.LBE2803:
.LBE2844:
	.loc 2 1379 0 discriminator 3
	addi 20,20,1
.LVL1149:
	add 15,15,31
	add 14,14,7
	b .L781
.L791:
	lwz 12,32(1)
	addi 10,10,1
.LVL1150:
	lwz 16,28(1)
	add 17,17,12
.LVL1151:
.L764:
	.loc 2 1379 0 discriminator 1
	cmpw 7,10,21
	blt+ 7,$+8
	b .L238
	add 0,16,27
	.loc 2 1379 0
	mr 14,17
	stw 0,28(1)
	li 15,0
	li 20,0
.LVL1152:
.L793:
	.loc 2 1379 0 discriminator 1
	cmpw 7,20,22
	bge- 7,.L791
	add 9,15,31
	.loc 2 1379 0
	mr 19,16
	stw 9,36(1)
	mr 5,14
.L792:
	.loc 2 1379 0 discriminator 1
	lwz 7,28(1)
	cmplw 7,19,7
	beq- 7,.L3226
.LVL1153:
.LBB2845:
	.loc 2 1379 0 discriminator 2
	cmplw 7,19,23
	ble+ 7,$+8
	b .L238
	cmplw 7,19,25
	blt- 7,.L782
	.loc 2 1379 0
	mr 18,15
	li 11,0
	b .L783
.L782:
.LVL1154:
.LBB2808:
.LBB2809:
	.loc 1 343 0 is_stmt 1 discriminator 1
	lwz 4,24(1)
	lwz 0,44(1)
	add 4,4,0
	stw 4,24(1)
.LBE2809:
.LBE2808:
	.loc 2 1379 0 discriminator 1
	b .L784
.LVL1155:
.L789:
.LBB2810:
	.loc 2 1379 0 is_stmt 0 discriminator 2
	cmplw 7,18,26
	bge- 7,.L3227
.L785:
.LVL1156:
.LBB2806:
.LBB2807:
	.loc 1 343 0 is_stmt 1
	lwz 4,24(1)
	add 4,4,28
	stw 4,24(1)
.LVL1157:
.L787:
	add 11,11,29
	addi 18,18,1
.LVL1158:
.L783:
.LBE2807:
.LBE2806:
.LBE2810:
	.loc 2 1379 0 discriminator 1
	lwz 6,36(1)
	cmplw 7,18,6
	bne+ 7,.L789
	b .L784
.LVL1159:
.L3227:
.LBB2811:
	.loc 2 1379 0 is_stmt 0 discriminator 2
	cmplw 7,18,24
	bgt+ 7,.L785
	.loc 2 1379 0 discriminator 1
	add 3,11,5
	addi 4,1,8
	stw 5,48(1)
	stw 10,60(1)
	stw 11,52(1)
	bl getUSHORT_5_6_5_REV
.LVL1160:
	lwz 5,48(1)
	lwz 10,60(1)
	lwz 11,52(1)
	beq- 4,.L788
	lbz 3,8(1)
.LVL1161:
	lbz 4,10(1)
	stb 3,10(1)
	stb 4,8(1)
.LVL1162:
.L788:
	.loc 2 1379 0 discriminator 2
	addi 3,1,8
	addi 4,1,24
	stw 5,48(1)
	stw 10,60(1)
	stw 11,52(1)
	bl putA8
.LVL1163:
	lwz 11,52(1)
	lwz 10,60(1)
	lwz 5,48(1)
	b .L787
.LVL1164:
.L784:
	add 5,5,30
	addi 19,19,1
.LVL1165:
	b .L792
.LVL1166:
.L3226:
	lwz 8,40(1)
.LBE2811:
.LBE2845:
	.loc 2 1379 0 discriminator 3
	addi 20,20,1
.LVL1167:
	add 15,15,31
	add 14,14,8
	b .L793
.L803:
	lwz 14,32(1)
	addi 10,10,1
.LVL1168:
	lwz 16,28(1)
	add 17,17,14
.LVL1169:
.L768:
	.loc 2 1379 0 discriminator 1
	cmpw 7,10,21
	blt+ 7,$+8
	b .L238
	add 0,16,27
	.loc 2 1379 0
	mr 14,17
	stw 0,28(1)
	li 15,0
	li 20,0
.LVL1170:
.L805:
	.loc 2 1379 0 discriminator 1
	cmpw 7,20,22
	bge- 7,.L803
	add 12,15,31
	.loc 2 1379 0
	mr 19,16
	stw 12,36(1)
	mr 5,14
.L804:
	.loc 2 1379 0 discriminator 1
	lwz 8,28(1)
	cmplw 7,19,8
	beq- 7,.L3228
.LVL1171:
.LBB2846:
	.loc 2 1379 0 discriminator 2
	cmplw 7,19,23
	ble+ 7,$+8
	b .L238
	cmplw 7,19,25
	blt- 7,.L794
	.loc 2 1379 0
	mr 18,15
	li 11,0
	b .L795
.L794:
.LVL1172:
.LBB2840:
.LBB2841:
	.loc 1 343 0 is_stmt 1 discriminator 1
	lwz 4,24(1)
	lwz 6,44(1)
	add 4,4,6
	stw 4,24(1)
.LBE2841:
.LBE2840:
	.loc 2 1379 0 discriminator 1
	b .L796
.LVL1173:
.L801:
.LBB2842:
	.loc 2 1379 0 is_stmt 0 discriminator 2
	cmplw 7,18,26
	bge- 7,.L3229
.L797:
.LVL1174:
.LBB2838:
.LBB2839:
	.loc 1 343 0 is_stmt 1
	lwz 4,24(1)
	add 4,4,28
	stw 4,24(1)
.LVL1175:
.L799:
	add 11,11,29
	addi 18,18,1
.LVL1176:
.L795:
.LBE2839:
.LBE2838:
.LBE2842:
	.loc 2 1379 0 discriminator 1
	lwz 7,36(1)
	cmplw 7,18,7
	bne+ 7,.L801
	b .L796
.LVL1177:
.L3229:
.LBB2843:
	.loc 2 1379 0 is_stmt 0 discriminator 2
	cmplw 7,18,24
	bgt+ 7,.L797
	.loc 2 1379 0 discriminator 1
	add 3,11,5
	addi 4,1,8
	stw 5,48(1)
	stw 10,60(1)
	stw 11,52(1)
	bl getUSHORT_5_6_5_REV
.LVL1178:
	lwz 5,48(1)
	lwz 10,60(1)
	lwz 11,52(1)
	beq- 4,.L800
	lbz 3,8(1)
.LVL1179:
	lbz 4,10(1)
	stb 3,10(1)
	stb 4,8(1)
.LVL1180:
.L800:
	.loc 2 1379 0 discriminator 2
	addi 3,1,8
	addi 4,1,24
	stw 5,48(1)
	stw 10,60(1)
	stw 11,52(1)
	bl putIA4
.LVL1181:
	lwz 11,52(1)
	lwz 10,60(1)
	lwz 5,48(1)
	b .L799
.LVL1182:
.L796:
	add 5,5,30
	addi 19,19,1
.LVL1183:
	b .L804
.LVL1184:
.L3228:
	lwz 9,40(1)
.LBE2843:
.LBE2846:
	.loc 2 1379 0 discriminator 3
	addi 20,20,1
.LVL1185:
	add 15,15,31
	add 14,14,9
	b .L805
.LVL1186:
.L759:
	mullw 6,28,31
	.loc 2 1379 0 discriminator 4
	cmplwi 7,18,6406
	mullw 7,30,27
.LVL1187:
	stw 6,28(1)
	mullw 8,29,31
	stw 7,40(1)
	stw 8,44(1)
	bne- 7,.L3138
	mr 17,15
.LBB2847:
	.loc 2 1379 0
	li 16,0
	li 10,0
.LVL1188:
.LBB2848:
	cmpwi 4,20,0
	b .L808
.LVL1189:
.L3138:
	mr 14,15
.LBE2848:
.LBE2847:
.LBB2855:
	li 17,0
	li 10,0
.LVL1190:
.LBB2856:
	cmpwi 4,20,0
	b .L809
.LVL1191:
.L819:
	lwz 8,40(1)
.LBE2856:
.LBE2855:
	.loc 2 1379 0 discriminator 3
	addi 10,10,1
.LVL1192:
	lwz 16,32(1)
	add 17,17,8
.LVL1193:
.L808:
	.loc 2 1379 0 discriminator 1
	cmpw 7,10,21
	blt+ 7,$+8
	b .L238
	add 9,16,27
	.loc 2 1379 0
	mr 20,17
	stw 9,32(1)
	li 15,0
	li 14,0
.LVL1194:
.L821:
	.loc 2 1379 0 discriminator 1
	cmpw 7,14,22
	bge- 7,.L819
	add 7,15,31
	.loc 2 1379 0
	mr 19,16
	stw 7,36(1)
	mr 5,20
.L820:
	.loc 2 1379 0 discriminator 1
	lwz 0,32(1)
	cmplw 7,19,0
	beq- 7,.L3230
.LVL1195:
.LBB2863:
	.loc 2 1379 0 discriminator 2
	cmplw 7,19,23
	ble+ 7,$+8
	b .L238
	cmplw 7,19,25
	blt- 7,.L810
	.loc 2 1379 0
	mr 18,15
	li 11,0
	b .L811
.L810:
.LVL1196:
.LBB2851:
.LBB2852:
	.loc 1 343 0 is_stmt 1 discriminator 1
	lwz 4,24(1)
	lwz 9,28(1)
	add 4,4,9
	stw 4,24(1)
.LBE2852:
.LBE2851:
	.loc 2 1379 0 discriminator 1
	b .L812
.LVL1197:
.L817:
.LBB2853:
	.loc 2 1379 0 is_stmt 0 discriminator 2
	cmplw 7,18,26
	bge- 7,.L3231
.L813:
.LVL1198:
.LBB2849:
.LBB2850:
	.loc 1 343 0 is_stmt 1
	lwz 4,24(1)
	add 4,4,28
	stw 4,24(1)
.LVL1199:
.L815:
	add 11,11,29
	addi 18,18,1
.LVL1200:
.L811:
.LBE2850:
.LBE2849:
.LBE2853:
	.loc 2 1379 0 discriminator 1
	lwz 12,36(1)
	cmplw 7,18,12
	bne+ 7,.L817
	b .L812
.LVL1201:
.L3231:
.LBB2854:
	.loc 2 1379 0 is_stmt 0 discriminator 2
	cmplw 7,18,24
	bgt+ 7,.L813
	.loc 2 1379 0 discriminator 1
	add 3,11,5
	addi 4,1,8
	stw 5,48(1)
	stw 10,60(1)
	stw 11,52(1)
	bl getUSHORT_5_6_5_REV
.LVL1202:
	lwz 5,48(1)
	lwz 10,60(1)
	lwz 11,52(1)
	beq- 4,.L816
	lbz 3,8(1)
.LVL1203:
	lbz 4,10(1)
	stb 3,10(1)
	stb 4,8(1)
.LVL1204:
.L816:
	.loc 2 1379 0 discriminator 2
	addi 3,1,8
	addi 4,1,24
	stw 5,48(1)
	stw 10,60(1)
	stw 11,52(1)
	bl putIA8A
.LVL1205:
	lwz 11,52(1)
	lwz 10,60(1)
	lwz 5,48(1)
	b .L815
.LVL1206:
.L812:
	add 5,5,30
	addi 19,19,1
.LVL1207:
	b .L820
.LVL1208:
.L3230:
	lwz 6,44(1)
.LBE2854:
.LBE2863:
	.loc 2 1379 0 discriminator 3
	addi 14,14,1
.LVL1209:
	add 15,15,31
	add 20,20,6
	b .L821
.LVL1210:
.L831:
	lwz 9,40(1)
	addi 10,10,1
.LVL1211:
	lwz 17,32(1)
	add 14,14,9
.LVL1212:
.L809:
	.loc 2 1379 0 discriminator 1
	cmpw 7,10,21
	blt+ 7,$+8
	b .L238
	add 12,17,27
	.loc 2 1379 0
	mr 16,14
	stw 12,32(1)
	li 15,0
	li 20,0
.LVL1213:
.L833:
	.loc 2 1379 0 discriminator 1
	cmpw 7,20,22
	bge- 7,.L831
	add 8,15,31
	.loc 2 1379 0
	mr 19,17
	stw 8,36(1)
	mr 5,16
.L832:
	.loc 2 1379 0 discriminator 1
	lwz 6,32(1)
	cmplw 7,19,6
	beq- 7,.L3232
.LVL1214:
.LBB2864:
	.loc 2 1379 0 discriminator 2
	cmplw 7,19,23
	ble+ 7,$+8
	b .L238
	cmplw 7,19,25
	blt- 7,.L822
	.loc 2 1379 0
	mr 18,15
	li 11,0
	b .L823
.L822:
.LVL1215:
.LBB2859:
.LBB2860:
	.loc 1 343 0 is_stmt 1 discriminator 1
	lwz 4,24(1)
	lwz 12,28(1)
	add 4,4,12
	stw 4,24(1)
.LBE2860:
.LBE2859:
	.loc 2 1379 0 discriminator 1
	b .L824
.LVL1216:
.L829:
.LBB2861:
	.loc 2 1379 0 is_stmt 0 discriminator 2
	cmplw 7,18,26
	bge- 7,.L3233
.L825:
.LVL1217:
.LBB2857:
.LBB2858:
	.loc 1 343 0 is_stmt 1
	lwz 4,24(1)
	add 4,4,28
	stw 4,24(1)
.LVL1218:
.L827:
	add 11,11,29
	addi 18,18,1
.LVL1219:
.L823:
.LBE2858:
.LBE2857:
.LBE2861:
	.loc 2 1379 0 discriminator 1
	lwz 0,36(1)
	cmplw 7,18,0
	bne+ 7,.L829
	b .L824
.LVL1220:
.L3233:
.LBB2862:
	.loc 2 1379 0 is_stmt 0 discriminator 2
	cmplw 7,18,24
	bgt+ 7,.L825
	.loc 2 1379 0 discriminator 1
	add 3,11,5
	addi 4,1,8
	stw 5,48(1)
	stw 10,60(1)
	stw 11,52(1)
	bl getUSHORT_5_6_5_REV
.LVL1221:
	lwz 5,48(1)
	lwz 10,60(1)
	lwz 11,52(1)
	beq- 4,.L828
	lbz 3,8(1)
.LVL1222:
	lbz 4,10(1)
	stb 3,10(1)
	stb 4,8(1)
.LVL1223:
.L828:
	.loc 2 1379 0 discriminator 2
	addi 3,1,8
	addi 4,1,24
	stw 5,48(1)
	stw 10,60(1)
	stw 11,52(1)
	bl putIA8
.LVL1224:
	lwz 11,52(1)
	lwz 10,60(1)
	lwz 5,48(1)
	b .L827
.LVL1225:
.L824:
	add 5,5,30
	addi 19,19,1
.LVL1226:
	b .L832
.LVL1227:
.L3232:
	lwz 7,44(1)
.LBE2862:
.LBE2864:
	.loc 2 1379 0 discriminator 3
	addi 20,20,1
.LVL1228:
	add 15,15,31
	add 16,16,7
	b .L833
.L843:
	lwz 12,32(1)
	addi 10,10,1
.LVL1229:
	lwz 16,28(1)
	add 17,17,12
.LVL1230:
.L766:
	.loc 2 1379 0 discriminator 1
	cmpw 7,10,21
	blt+ 7,$+8
	b .L238
	add 0,16,27
	.loc 2 1379 0
	mr 14,17
	stw 0,28(1)
	li 15,0
	li 20,0
.LVL1231:
.L845:
	.loc 2 1379 0 discriminator 1
	cmpw 7,20,22
	bge- 7,.L843
	add 9,15,31
	.loc 2 1379 0
	mr 19,16
	stw 9,36(1)
	mr 5,14
.L844:
	.loc 2 1379 0 discriminator 1
	lwz 7,28(1)
	cmplw 7,19,7
	beq- 7,.L3234
.LVL1232:
.LBB2865:
	.loc 2 1379 0 discriminator 2
	cmplw 7,19,23
	ble+ 7,$+8
	b .L238
	cmplw 7,19,25
	blt- 7,.L834
	.loc 2 1379 0
	mr 18,15
	li 11,0
	b .L835
.L834:
.LVL1233:
.LBB2824:
.LBB2825:
	.loc 1 343 0 is_stmt 1 discriminator 1
	lwz 4,24(1)
	lwz 0,44(1)
	add 4,4,0
	stw 4,24(1)
.LBE2825:
.LBE2824:
	.loc 2 1379 0 discriminator 1
	b .L836
.LVL1234:
.L841:
.LBB2826:
	.loc 2 1379 0 is_stmt 0 discriminator 2
	cmplw 7,18,26
	bge- 7,.L3235
.L837:
.LVL1235:
.LBB2822:
.LBB2823:
	.loc 1 343 0 is_stmt 1
	lwz 4,24(1)
	add 4,4,28
	stw 4,24(1)
.LVL1236:
.L839:
	add 11,11,29
	addi 18,18,1
.LVL1237:
.L835:
.LBE2823:
.LBE2822:
.LBE2826:
	.loc 2 1379 0 discriminator 1
	lwz 6,36(1)
	cmplw 7,18,6
	bne+ 7,.L841
	b .L836
.LVL1238:
.L3235:
.LBB2827:
	.loc 2 1379 0 is_stmt 0 discriminator 2
	cmplw 7,18,24
	bgt+ 7,.L837
	.loc 2 1379 0 discriminator 1
	add 3,11,5
	addi 4,1,8
	stw 5,48(1)
	stw 10,60(1)
	stw 11,52(1)
	bl getUSHORT_5_6_5_REV
.LVL1239:
	lwz 5,48(1)
	lwz 10,60(1)
	lwz 11,52(1)
	beq- 4,.L840
	lbz 3,8(1)
.LVL1240:
	lbz 4,10(1)
	stb 3,10(1)
	stb 4,8(1)
.LVL1241:
.L840:
	.loc 2 1379 0 discriminator 2
	addi 3,1,8
	addi 4,1,24
	stw 5,48(1)
	stw 10,60(1)
	stw 11,52(1)
	bl put5A3
.LVL1242:
	lwz 11,52(1)
	lwz 10,60(1)
	lwz 5,48(1)
	b .L839
.LVL1243:
.L836:
	add 5,5,30
	addi 19,19,1
.LVL1244:
	b .L844
.LVL1245:
.L3234:
	lwz 8,40(1)
.LBE2827:
.LBE2865:
	.loc 2 1379 0 discriminator 3
	addi 20,20,1
.LVL1246:
	add 15,15,31
	add 14,14,8
	b .L845
.L855:
	lwz 14,32(1)
	addi 10,10,1
.LVL1247:
	lwz 16,28(1)
	add 17,17,14
.LVL1248:
.L767:
	.loc 2 1379 0 discriminator 1
	cmpw 7,10,21
	blt+ 7,$+8
	b .L238
	add 0,16,27
	.loc 2 1379 0
	mr 14,17
	stw 0,28(1)
	li 15,0
	li 20,0
.LVL1249:
.L857:
	.loc 2 1379 0 discriminator 1
	cmpw 7,20,22
	bge- 7,.L855
	add 12,15,31
	.loc 2 1379 0
	mr 19,16
	stw 12,36(1)
	mr 5,14
.L856:
	.loc 2 1379 0 discriminator 1
	lwz 8,28(1)
	cmplw 7,19,8
	beq- 7,.L3236
.LVL1250:
.LBB2866:
	.loc 2 1379 0 discriminator 2
	cmplw 7,19,23
	ble+ 7,$+8
	b .L238
	cmplw 7,19,25
	blt- 7,.L846
	.loc 2 1379 0
	mr 18,15
	li 11,0
	b .L847
.L846:
.LVL1251:
.LBB2832:
.LBB2833:
	.loc 1 343 0 is_stmt 1 discriminator 1
	lwz 4,24(1)
	lwz 6,44(1)
	add 4,4,6
	stw 4,24(1)
.LBE2833:
.LBE2832:
	.loc 2 1379 0 discriminator 1
	b .L848
.LVL1252:
.L853:
.LBB2834:
	.loc 2 1379 0 is_stmt 0 discriminator 2
	cmplw 7,18,26
	bge- 7,.L3237
.L849:
.LVL1253:
.LBB2830:
.LBB2831:
	.loc 1 343 0 is_stmt 1
	lwz 4,24(1)
	add 4,4,28
	stw 4,24(1)
.LVL1254:
.L851:
	add 11,11,29
	addi 18,18,1
.LVL1255:
.L847:
.LBE2831:
.LBE2830:
.LBE2834:
	.loc 2 1379 0 discriminator 1
	lwz 7,36(1)
	cmplw 7,18,7
	bne+ 7,.L853
	b .L848
.LVL1256:
.L3237:
.LBB2835:
	.loc 2 1379 0 is_stmt 0 discriminator 2
	cmplw 7,18,24
	bgt+ 7,.L849
	.loc 2 1379 0 discriminator 1
	add 3,11,5
	addi 4,1,8
	stw 5,48(1)
	stw 10,60(1)
	stw 11,52(1)
	bl getUSHORT_5_6_5_REV
.LVL1257:
	lwz 5,48(1)
	lwz 10,60(1)
	lwz 11,52(1)
	beq- 4,.L852
	lbz 3,8(1)
.LVL1258:
	lbz 4,10(1)
	stb 3,10(1)
	stb 4,8(1)
.LVL1259:
.L852:
	.loc 2 1379 0 discriminator 2
	addi 3,1,8
	addi 4,1,24
	stw 5,48(1)
	stw 10,60(1)
	stw 11,52(1)
	bl put565
.LVL1260:
	lwz 11,52(1)
	lwz 10,60(1)
	lwz 5,48(1)
	b .L851
.LVL1261:
.L848:
	add 5,5,30
	addi 19,19,1
.LVL1262:
	b .L856
.LVL1263:
.L3236:
	lwz 9,40(1)
.LBE2835:
.LBE2866:
	.loc 2 1379 0 discriminator 3
	addi 20,20,1
.LVL1264:
	add 15,15,31
	add 14,14,9
	b .L857
.LVL1265:
.L877:
	lwz 8,44(1)
	addi 14,14,1
.LVL1266:
	mr 19,17
	add 15,15,8
.LVL1267:
.L765:
	.loc 2 1379 0 discriminator 1
	cmpw 7,14,21
	blt+ 7,$+8
	b .L238
	.loc 2 1379 0
	mr 18,15
	li 20,0
	li 16,0
	add 17,19,27
.L879:
.LVL1268:
	.loc 2 1379 0 discriminator 1
	cmpw 7,16,22
	bge- 7,.L877
	add 7,20,31
	.loc 2 1379 0
	mr 9,19
	stw 7,32(1)
	mr 8,18
.L878:
	.loc 2 1379 0 discriminator 1
	cmplw 7,9,17
	beq- 7,.L3238
.LVL1269:
.LBB2867:
	.loc 2 1379 0 discriminator 2
	cmplw 7,9,23
	ble+ 7,$+8
	b .L238
	cmplw 7,9,25
	blt- 7,.L858
	.loc 2 1379 0
	mr 10,20
	li 7,0
	b .L859
.L858:
.LVL1270:
.LBB2816:
.LBB2817:
	.loc 1 343 0 is_stmt 1 discriminator 1
	lwz 10,24(1)
	lwz 6,28(1)
	add 10,10,6
	stw 10,24(1)
.LBE2817:
.LBE2816:
	.loc 2 1379 0 discriminator 1
	b .L860
.LVL1271:
.L865:
.LBB2818:
	.loc 2 1379 0 is_stmt 0 discriminator 2
	cmplw 7,10,26
	bge- 7,.L3239
.L861:
.LVL1272:
.LBB2814:
.LBB2815:
	.loc 1 343 0 is_stmt 1
	lwz 6,24(1)
	add 6,6,28
	stw 6,24(1)
.LVL1273:
.L863:
	add 7,7,29
	addi 10,10,1
.L859:
.LBE2815:
.LBE2814:
.LBE2818:
	.loc 2 1379 0 discriminator 1
	lwz 12,32(1)
	cmplw 7,10,12
	bne+ 7,.L865
	b .L860
.LVL1274:
.L3239:
.LBB2819:
	.loc 2 1379 0 is_stmt 0 discriminator 2
	cmplw 7,10,24
	bgt+ 7,.L861
	.loc 2 1379 0 discriminator 1
	add 3,7,8
	addi 4,1,8
	stw 7,52(1)
	stw 8,48(1)
	stw 9,56(1)
	stw 10,60(1)
	bl getUSHORT_5_6_5_REV
.LVL1275:
	lwz 7,52(1)
	lwz 8,48(1)
	lwz 9,56(1)
	lwz 10,60(1)
	beq- 4,.L864
	lbz 5,8(1)
.LVL1276:
	lbz 6,10(1)
	stb 5,10(1)
	stb 6,8(1)
.LVL1277:
.L864:
	.loc 2 1379 0 discriminator 2
	addi 3,1,8
	addi 4,1,24
	stw 7,52(1)
	stw 8,48(1)
	stw 9,56(1)
	stw 10,60(1)
	bl putAR
.LVL1278:
	lwz 10,60(1)
	lwz 9,56(1)
	lwz 8,48(1)
	lwz 7,52(1)
	b .L863
.L860:
	add 8,8,30
	addi 9,9,1
	b .L878
.L3238:
	add 0,20,31
.LBE2819:
.LBE2867:
	.loc 2 1379 0
	mr 10,19
	stw 0,36(1)
	li 8,0
.L867:
	.loc 2 1379 0 discriminator 1
	cmplw 7,10,17
	beq- 7,.L3240
.LVL1279:
.LBB2868:
	.loc 2 1379 0 discriminator 2
	cmplw 7,10,25
	blt- 7,.L868
	add 6,8,18
	.loc 2 1379 0
	mr 9,20
	li 7,0
	stw 6,32(1)
	b .L869
.L868:
.LVL1280:
.LBB2869:
.LBB2870:
	.loc 1 343 0 is_stmt 1 discriminator 1
	lwz 9,24(1)
	lwz 7,28(1)
	add 9,9,7
	stw 9,24(1)
.LBE2870:
.LBE2869:
	.loc 2 1379 0 discriminator 1
	b .L870
.LVL1281:
.L875:
.LBB2871:
	.loc 2 1379 0 is_stmt 0 discriminator 2
	cmplw 7,9,26
	bge- 7,.L3241
.L871:
.LVL1282:
.LBB2872:
.LBB2873:
	.loc 1 343 0 is_stmt 1
	lwz 6,24(1)
	add 6,6,28
	stw 6,24(1)
.LVL1283:
.L873:
	add 7,7,29
	addi 9,9,1
.L869:
.LBE2873:
.LBE2872:
.LBE2871:
	.loc 2 1379 0 discriminator 1
	lwz 0,36(1)
	cmplw 7,9,0
	bne+ 7,.L875
	b .L870
.LVL1284:
.L3241:
.LBB2874:
	.loc 2 1379 0 is_stmt 0 discriminator 2
	cmplw 7,9,24
	bgt+ 7,.L871
	.loc 2 1379 0 discriminator 1
	lwz 12,32(1)
	addi 4,1,8
	stw 7,52(1)
	add 3,7,12
	stw 8,48(1)
	stw 9,56(1)
	stw 10,60(1)
	bl getUSHORT_5_6_5_REV
.LVL1285:
	lwz 7,52(1)
	lwz 8,48(1)
	lwz 9,56(1)
	lwz 10,60(1)
	beq- 4,.L874
	lbz 5,8(1)
.LVL1286:
	lbz 6,10(1)
	stb 5,10(1)
	stb 6,8(1)
.LVL1287:
.L874:
	.loc 2 1379 0 discriminator 2
	addi 3,1,8
	addi 4,1,24
	stw 7,52(1)
	stw 8,48(1)
	stw 9,56(1)
	stw 10,60(1)
	bl putGB
.LVL1288:
	lwz 10,60(1)
	lwz 9,56(1)
	lwz 8,48(1)
	lwz 7,52(1)
	b .L873
.L870:
	add 8,8,30
	addi 10,10,1
	b .L867
.L3240:
	lwz 6,40(1)
.LBE2874:
.LBE2868:
	.loc 2 1379 0 discriminator 3
	addi 16,16,1
.LVL1289:
	add 20,20,31
	add 18,18,6
	b .L879
.LVL1290:
.L3134:
	.loc 2 1381 0 is_stmt 1
	cmplwi 7,19,4
	beq- 7,.L880
	bgt- 7,.L881
	cmplwi 7,19,2
	beq- 7,.L882
	bgt- 7,.L883
	cmplwi 7,19,1
	beq+ 7,$+8
	b .L238
	mullw 10,29,31
.LVL1291:
	mr 17,15
.LBB2875:
	li 16,0
.LBB2876:
	cmpwi 4,20,0
.LBE2876:
	mullw 8,28,31
	stw 10,40(1)
	li 10,0
	mullw 9,30,27
	stw 8,44(1)
	stw 9,32(1)
	b .L893
.LVL1292:
.L881:
.LBE2875:
	cmplwi 7,19,6
	beq- 7,.L885
	blt- 7,.L886
	cmplwi 7,19,39
	beq+ 7,$+8
	b .L238
	mullw 10,30,27
.LVL1293:
	mr 17,15
.LBB2883:
	li 16,0
.LBB2884:
	cmpwi 4,20,0
.LBE2884:
	mullw 9,28,31
	stw 10,40(1)
	li 10,0
	mullw 12,29,31
	stw 9,32(1)
	stw 12,44(1)
	b .L888
.LVL1294:
.L885:
.LBE2883:
.LBB2891:
	mullw 14,28,31
	li 19,0
.LVL1295:
.LBB2892:
	cmpwi 4,20,0
	mullw 0,30,27
.LBE2892:
	stw 14,28(1)
	li 14,0
	mullw 6,29,31
	stw 0,44(1)
	stw 6,40(1)
	b .L889
.LVL1296:
.L886:
.LBE2891:
.LBB2899:
	mullw 7,28,31
.LVL1297:
	mr 17,15
	li 16,0
	li 10,0
.LVL1298:
.LBB2900:
	cmpwi 4,20,0
	mullw 8,30,27
.LBE2900:
	stw 7,44(1)
	mullw 9,29,31
	stw 8,32(1)
	stw 9,40(1)
	b .L890
.LVL1299:
.L880:
.LBE2899:
.LBB2907:
	mullw 10,28,31
.LVL1300:
	mr 17,15
	li 16,0
.LBB2908:
	cmpwi 4,20,0
	mullw 12,30,27
.LBE2908:
	stw 10,44(1)
	li 10,0
	mullw 14,29,31
	stw 12,32(1)
	stw 14,40(1)
	b .L891
.LVL1301:
.L882:
.LBE2907:
.LBB2915:
	mullw 0,28,31
	mr 17,15
	li 16,0
	li 10,0
.LVL1302:
.LBB2916:
	cmpwi 4,20,0
	mullw 6,30,27
.LBE2916:
	stw 0,44(1)
	mullw 7,29,31
.LVL1303:
	stw 6,32(1)
	stw 7,40(1)
	b .L892
.LVL1304:
.L903:
	lwz 9,32(1)
.LBE2915:
	.loc 2 1381 0 is_stmt 0 discriminator 3
	addi 10,10,1
.LVL1305:
	lwz 16,28(1)
	add 17,17,9
.LVL1306:
.L893:
	.loc 2 1381 0 discriminator 1
	cmpw 7,10,21
	blt+ 7,$+8
	b .L238
	add 12,16,27
	.loc 2 1381 0
	mr 14,17
	stw 12,28(1)
	li 15,0
	li 20,0
.LVL1307:
.L905:
	.loc 2 1381 0 discriminator 1
	cmpw 7,20,22
	bge- 7,.L903
	add 8,15,31
	.loc 2 1381 0
	mr 19,16
	stw 8,36(1)
	mr 5,14
.L904:
	.loc 2 1381 0 discriminator 1
	lwz 6,28(1)
	cmplw 7,19,6
	beq- 7,.L3242
.LVL1308:
.LBB2923:
	.loc 2 1381 0 discriminator 2
	cmplw 7,19,23
	ble+ 7,$+8
	b .L238
	cmplw 7,19,25
	blt- 7,.L894
	.loc 2 1381 0
	mr 18,15
	li 11,0
	b .L895
.L894:
.LVL1309:
.LBB2879:
.LBB2880:
	.loc 1 343 0 is_stmt 1 discriminator 1
	lwz 4,24(1)
	lwz 12,44(1)
	add 4,4,12
	stw 4,24(1)
.LBE2880:
.LBE2879:
	.loc 2 1381 0 discriminator 1
	b .L896
.LVL1310:
.L901:
.LBB2881:
	.loc 2 1381 0 is_stmt 0 discriminator 2
	cmplw 7,18,26
	bge- 7,.L3243
.L897:
.LVL1311:
.LBB2877:
.LBB2878:
	.loc 1 343 0 is_stmt 1
	lwz 4,24(1)
	add 4,4,28
	stw 4,24(1)
.LVL1312:
.L899:
	add 11,11,29
	addi 18,18,1
.LVL1313:
.L895:
.LBE2878:
.LBE2877:
.LBE2881:
	.loc 2 1381 0 discriminator 1
	lwz 0,36(1)
	cmplw 7,18,0
	bne+ 7,.L901
	b .L896
.LVL1314:
.L3243:
.LBB2882:
	.loc 2 1381 0 is_stmt 0 discriminator 2
	cmplw 7,18,24
	bgt+ 7,.L897
	.loc 2 1381 0 discriminator 1
	add 3,11,5
	addi 4,1,8
	stw 5,48(1)
	stw 10,60(1)
	stw 11,52(1)
	bl getUSHORT_4_4_4_4
.LVL1315:
	lwz 5,48(1)
	lwz 10,60(1)
	lwz 11,52(1)
	beq- 4,.L900
	lbz 3,8(1)
.LVL1316:
	lbz 4,10(1)
	stb 3,10(1)
	stb 4,8(1)
.LVL1317:
.L900:
	.loc 2 1381 0 discriminator 2
	addi 3,1,8
	addi 4,1,24
	stw 5,48(1)
	stw 10,60(1)
	stw 11,52(1)
	bl putI8
.LVL1318:
	lwz 11,52(1)
	lwz 10,60(1)
	lwz 5,48(1)
	b .L899
.LVL1319:
.L896:
	add 5,5,30
	addi 19,19,1
.LVL1320:
	b .L904
.LVL1321:
.L3242:
	lwz 7,40(1)
.LBE2882:
.LBE2923:
	.loc 2 1381 0 discriminator 3
	addi 20,20,1
.LVL1322:
	add 15,15,31
	add 14,14,7
	b .L905
.L915:
	lwz 12,40(1)
	addi 10,10,1
.LVL1323:
	lwz 16,28(1)
	add 17,17,12
.LVL1324:
.L888:
	.loc 2 1381 0 discriminator 1
	cmpw 7,10,21
	blt+ 7,$+8
	b .L238
	add 0,16,27
	.loc 2 1381 0
	mr 14,17
	stw 0,28(1)
	li 15,0
	li 20,0
.LVL1325:
.L917:
	.loc 2 1381 0 discriminator 1
	cmpw 7,20,22
	bge- 7,.L915
	add 9,15,31
	.loc 2 1381 0
	mr 19,16
	stw 9,36(1)
	mr 5,14
.L916:
	.loc 2 1381 0 discriminator 1
	lwz 7,28(1)
	cmplw 7,19,7
	beq- 7,.L3244
.LVL1326:
.LBB2924:
	.loc 2 1381 0 discriminator 2
	cmplw 7,19,23
	ble+ 7,$+8
	b .L238
	cmplw 7,19,25
	blt- 7,.L906
	.loc 2 1381 0
	mr 18,15
	li 11,0
	b .L907
.L906:
.LVL1327:
.LBB2887:
.LBB2888:
	.loc 1 343 0 is_stmt 1 discriminator 1
	lwz 4,24(1)
	lwz 0,32(1)
	add 4,4,0
	stw 4,24(1)
.LBE2888:
.LBE2887:
	.loc 2 1381 0 discriminator 1
	b .L908
.LVL1328:
.L913:
.LBB2889:
	.loc 2 1381 0 is_stmt 0 discriminator 2
	cmplw 7,18,26
	bge- 7,.L3245
.L909:
.LVL1329:
.LBB2885:
.LBB2886:
	.loc 1 343 0 is_stmt 1
	lwz 4,24(1)
	add 4,4,28
	stw 4,24(1)
.LVL1330:
.L911:
	add 11,11,29
	addi 18,18,1
.LVL1331:
.L907:
.LBE2886:
.LBE2885:
.LBE2889:
	.loc 2 1381 0 discriminator 1
	lwz 6,36(1)
	cmplw 7,18,6
	bne+ 7,.L913
	b .L908
.LVL1332:
.L3245:
.LBB2890:
	.loc 2 1381 0 is_stmt 0 discriminator 2
	cmplw 7,18,24
	bgt+ 7,.L909
	.loc 2 1381 0 discriminator 1
	add 3,11,5
	addi 4,1,8
	stw 5,48(1)
	stw 10,60(1)
	stw 11,52(1)
	bl getUSHORT_4_4_4_4
.LVL1333:
	lwz 5,48(1)
	lwz 10,60(1)
	lwz 11,52(1)
	beq- 4,.L912
	lbz 3,8(1)
.LVL1334:
	lbz 4,10(1)
	stb 3,10(1)
	stb 4,8(1)
.LVL1335:
.L912:
	.loc 2 1381 0 discriminator 2
	addi 3,1,8
	addi 4,1,24
	stw 5,48(1)
	stw 10,60(1)
	stw 11,52(1)
	bl putA8
.LVL1336:
	lwz 11,52(1)
	lwz 10,60(1)
	lwz 5,48(1)
	b .L911
.LVL1337:
.L908:
	add 5,5,30
	addi 19,19,1
.LVL1338:
	b .L916
.LVL1339:
.L3244:
	lwz 8,44(1)
.LBE2890:
.LBE2924:
	.loc 2 1381 0 discriminator 3
	addi 20,20,1
.LVL1340:
	add 15,15,31
	add 14,14,8
	b .L917
.L927:
	lwz 14,32(1)
	addi 10,10,1
.LVL1341:
	lwz 16,28(1)
	add 17,17,14
.LVL1342:
.L892:
	.loc 2 1381 0 discriminator 1
	cmpw 7,10,21
	blt+ 7,$+8
	b .L238
	add 0,16,27
	.loc 2 1381 0
	mr 14,17
	stw 0,28(1)
	li 15,0
	li 20,0
.LVL1343:
.L929:
	.loc 2 1381 0 discriminator 1
	cmpw 7,20,22
	bge- 7,.L927
	add 12,15,31
	.loc 2 1381 0
	mr 19,16
	stw 12,36(1)
	mr 5,14
.L928:
	.loc 2 1381 0 discriminator 1
	lwz 8,28(1)
	cmplw 7,19,8
	beq- 7,.L3246
.LVL1344:
.LBB2925:
	.loc 2 1381 0 discriminator 2
	cmplw 7,19,23
	ble+ 7,$+8
	b .L238
	cmplw 7,19,25
	blt- 7,.L918
	.loc 2 1381 0
	mr 18,15
	li 11,0
	b .L919
.L918:
.LVL1345:
.LBB2919:
.LBB2920:
	.loc 1 343 0 is_stmt 1 discriminator 1
	lwz 4,24(1)
	lwz 6,44(1)
	add 4,4,6
	stw 4,24(1)
.LBE2920:
.LBE2919:
	.loc 2 1381 0 discriminator 1
	b .L920
.LVL1346:
.L925:
.LBB2921:
	.loc 2 1381 0 is_stmt 0 discriminator 2
	cmplw 7,18,26
	bge- 7,.L3247
.L921:
.LVL1347:
.LBB2917:
.LBB2918:
	.loc 1 343 0 is_stmt 1
	lwz 4,24(1)
	add 4,4,28
	stw 4,24(1)
.LVL1348:
.L923:
	add 11,11,29
	addi 18,18,1
.LVL1349:
.L919:
.LBE2918:
.LBE2917:
.LBE2921:
	.loc 2 1381 0 discriminator 1
	lwz 7,36(1)
	cmplw 7,18,7
	bne+ 7,.L925
	b .L920
.LVL1350:
.L3247:
.LBB2922:
	.loc 2 1381 0 is_stmt 0 discriminator 2
	cmplw 7,18,24
	bgt+ 7,.L921
	.loc 2 1381 0 discriminator 1
	add 3,11,5
	addi 4,1,8
	stw 5,48(1)
	stw 10,60(1)
	stw 11,52(1)
	bl getUSHORT_4_4_4_4
.LVL1351:
	lwz 5,48(1)
	lwz 10,60(1)
	lwz 11,52(1)
	beq- 4,.L924
	lbz 3,8(1)
.LVL1352:
	lbz 4,10(1)
	stb 3,10(1)
	stb 4,8(1)
.LVL1353:
.L924:
	.loc 2 1381 0 discriminator 2
	addi 3,1,8
	addi 4,1,24
	stw 5,48(1)
	stw 10,60(1)
	stw 11,52(1)
	bl putIA4
.LVL1354:
	lwz 11,52(1)
	lwz 10,60(1)
	lwz 5,48(1)
	b .L923
.LVL1355:
.L920:
	add 5,5,30
	addi 19,19,1
.LVL1356:
	b .L928
.LVL1357:
.L3246:
	lwz 9,40(1)
.LBE2922:
.LBE2925:
	.loc 2 1381 0 discriminator 3
	addi 20,20,1
.LVL1358:
	add 15,15,31
	add 14,14,9
	b .L929
.LVL1359:
.L883:
	mullw 6,28,31
	.loc 2 1381 0 discriminator 4
	cmplwi 7,18,6406
	mullw 7,30,27
.LVL1360:
	stw 6,28(1)
	mullw 8,29,31
	stw 7,40(1)
	stw 8,44(1)
	bne- 7,.L3139
	mr 17,15
.LBB2926:
	.loc 2 1381 0
	li 16,0
	li 10,0
.LVL1361:
.LBB2927:
	cmpwi 4,20,0
	b .L932
.LVL1362:
.L3139:
	mr 14,15
.LBE2927:
.LBE2926:
.LBB2934:
	li 17,0
	li 10,0
.LVL1363:
.LBB2935:
	cmpwi 4,20,0
	b .L933
.LVL1364:
.L943:
	lwz 8,40(1)
.LBE2935:
.LBE2934:
	.loc 2 1381 0 discriminator 3
	addi 10,10,1
.LVL1365:
	lwz 16,32(1)
	add 17,17,8
.LVL1366:
.L932:
	.loc 2 1381 0 discriminator 1
	cmpw 7,10,21
	blt+ 7,$+8
	b .L238
	add 9,16,27
	.loc 2 1381 0
	mr 20,17
	stw 9,32(1)
	li 15,0
	li 14,0
.LVL1367:
.L945:
	.loc 2 1381 0 discriminator 1
	cmpw 7,14,22
	bge- 7,.L943
	add 7,15,31
	.loc 2 1381 0
	mr 19,16
	stw 7,36(1)
	mr 5,20
.L944:
	.loc 2 1381 0 discriminator 1
	lwz 0,32(1)
	cmplw 7,19,0
	beq- 7,.L3248
.LVL1368:
.LBB2942:
	.loc 2 1381 0 discriminator 2
	cmplw 7,19,23
	ble+ 7,$+8
	b .L238
	cmplw 7,19,25
	blt- 7,.L934
	.loc 2 1381 0
	mr 18,15
	li 11,0
	b .L935
.L934:
.LVL1369:
.LBB2930:
.LBB2931:
	.loc 1 343 0 is_stmt 1 discriminator 1
	lwz 4,24(1)
	lwz 9,28(1)
	add 4,4,9
	stw 4,24(1)
.LBE2931:
.LBE2930:
	.loc 2 1381 0 discriminator 1
	b .L936
.LVL1370:
.L941:
.LBB2932:
	.loc 2 1381 0 is_stmt 0 discriminator 2
	cmplw 7,18,26
	bge- 7,.L3249
.L937:
.LVL1371:
.LBB2928:
.LBB2929:
	.loc 1 343 0 is_stmt 1
	lwz 4,24(1)
	add 4,4,28
	stw 4,24(1)
.LVL1372:
.L939:
	add 11,11,29
	addi 18,18,1
.LVL1373:
.L935:
.LBE2929:
.LBE2928:
.LBE2932:
	.loc 2 1381 0 discriminator 1
	lwz 12,36(1)
	cmplw 7,18,12
	bne+ 7,.L941
	b .L936
.LVL1374:
.L3249:
.LBB2933:
	.loc 2 1381 0 is_stmt 0 discriminator 2
	cmplw 7,18,24
	bgt+ 7,.L937
	.loc 2 1381 0 discriminator 1
	add 3,11,5
	addi 4,1,8
	stw 5,48(1)
	stw 10,60(1)
	stw 11,52(1)
	bl getUSHORT_4_4_4_4
.LVL1375:
	lwz 5,48(1)
	lwz 10,60(1)
	lwz 11,52(1)
	beq- 4,.L940
	lbz 3,8(1)
.LVL1376:
	lbz 4,10(1)
	stb 3,10(1)
	stb 4,8(1)
.LVL1377:
.L940:
	.loc 2 1381 0 discriminator 2
	addi 3,1,8
	addi 4,1,24
	stw 5,48(1)
	stw 10,60(1)
	stw 11,52(1)
	bl putIA8A
.LVL1378:
	lwz 11,52(1)
	lwz 10,60(1)
	lwz 5,48(1)
	b .L939
.LVL1379:
.L936:
	add 5,5,30
	addi 19,19,1
.LVL1380:
	b .L944
.LVL1381:
.L3248:
	lwz 6,44(1)
.LBE2933:
.LBE2942:
	.loc 2 1381 0 discriminator 3
	addi 14,14,1
.LVL1382:
	add 15,15,31
	add 20,20,6
	b .L945
.LVL1383:
.L955:
	lwz 9,40(1)
	addi 10,10,1
.LVL1384:
	lwz 17,32(1)
	add 14,14,9
.LVL1385:
.L933:
	.loc 2 1381 0 discriminator 1
	cmpw 7,10,21
	blt+ 7,$+8
	b .L238
	add 12,17,27
	.loc 2 1381 0
	mr 16,14
	stw 12,32(1)
	li 15,0
	li 20,0
.LVL1386:
.L957:
	.loc 2 1381 0 discriminator 1
	cmpw 7,20,22
	bge- 7,.L955
	add 8,15,31
	.loc 2 1381 0
	mr 19,17
	stw 8,36(1)
	mr 5,16
.L956:
	.loc 2 1381 0 discriminator 1
	lwz 6,32(1)
	cmplw 7,19,6
	beq- 7,.L3250
.LVL1387:
.LBB2943:
	.loc 2 1381 0 discriminator 2
	cmplw 7,19,23
	ble+ 7,$+8
	b .L238
	cmplw 7,19,25
	blt- 7,.L946
	.loc 2 1381 0
	mr 18,15
	li 11,0
	b .L947
.L946:
.LVL1388:
.LBB2938:
.LBB2939:
	.loc 1 343 0 is_stmt 1 discriminator 1
	lwz 4,24(1)
	lwz 12,28(1)
	add 4,4,12
	stw 4,24(1)
.LBE2939:
.LBE2938:
	.loc 2 1381 0 discriminator 1
	b .L948
.LVL1389:
.L953:
.LBB2940:
	.loc 2 1381 0 is_stmt 0 discriminator 2
	cmplw 7,18,26
	bge- 7,.L3251
.L949:
.LVL1390:
.LBB2936:
.LBB2937:
	.loc 1 343 0 is_stmt 1
	lwz 4,24(1)
	add 4,4,28
	stw 4,24(1)
.LVL1391:
.L951:
	add 11,11,29
	addi 18,18,1
.LVL1392:
.L947:
.LBE2937:
.LBE2936:
.LBE2940:
	.loc 2 1381 0 discriminator 1
	lwz 0,36(1)
	cmplw 7,18,0
	bne+ 7,.L953
	b .L948
.LVL1393:
.L3251:
.LBB2941:
	.loc 2 1381 0 is_stmt 0 discriminator 2
	cmplw 7,18,24
	bgt+ 7,.L949
	.loc 2 1381 0 discriminator 1
	add 3,11,5
	addi 4,1,8
	stw 5,48(1)
	stw 10,60(1)
	stw 11,52(1)
	bl getUSHORT_4_4_4_4
.LVL1394:
	lwz 5,48(1)
	lwz 10,60(1)
	lwz 11,52(1)
	beq- 4,.L952
	lbz 3,8(1)
.LVL1395:
	lbz 4,10(1)
	stb 3,10(1)
	stb 4,8(1)
.LVL1396:
.L952:
	.loc 2 1381 0 discriminator 2
	addi 3,1,8
	addi 4,1,24
	stw 5,48(1)
	stw 10,60(1)
	stw 11,52(1)
	bl putIA8
.LVL1397:
	lwz 11,52(1)
	lwz 10,60(1)
	lwz 5,48(1)
	b .L951
.LVL1398:
.L948:
	add 5,5,30
	addi 19,19,1
.LVL1399:
	b .L956
.LVL1400:
.L3250:
	lwz 7,44(1)
.LBE2941:
.LBE2943:
	.loc 2 1381 0 discriminator 3
	addi 20,20,1
.LVL1401:
	add 15,15,31
	add 16,16,7
	b .L957
.L967:
	lwz 12,32(1)
	addi 10,10,1
.LVL1402:
	lwz 16,28(1)
	add 17,17,12
.LVL1403:
.L890:
	.loc 2 1381 0 discriminator 1
	cmpw 7,10,21
	blt+ 7,$+8
	b .L238
	add 0,16,27
	.loc 2 1381 0
	mr 14,17
	stw 0,28(1)
	li 15,0
	li 20,0
.LVL1404:
.L969:
	.loc 2 1381 0 discriminator 1
	cmpw 7,20,22
	bge- 7,.L967
	add 9,15,31
	.loc 2 1381 0
	mr 19,16
	stw 9,36(1)
	mr 5,14
.L968:
	.loc 2 1381 0 discriminator 1
	lwz 7,28(1)
	cmplw 7,19,7
	beq- 7,.L3252
.LVL1405:
.LBB2944:
	.loc 2 1381 0 discriminator 2
	cmplw 7,19,23
	ble+ 7,$+8
	b .L238
	cmplw 7,19,25
	blt- 7,.L958
	.loc 2 1381 0
	mr 18,15
	li 11,0
	b .L959
.L958:
.LVL1406:
.LBB2903:
.LBB2904:
	.loc 1 343 0 is_stmt 1 discriminator 1
	lwz 4,24(1)
	lwz 0,44(1)
	add 4,4,0
	stw 4,24(1)
.LBE2904:
.LBE2903:
	.loc 2 1381 0 discriminator 1
	b .L960
.LVL1407:
.L965:
.LBB2905:
	.loc 2 1381 0 is_stmt 0 discriminator 2
	cmplw 7,18,26
	bge- 7,.L3253
.L961:
.LVL1408:
.LBB2901:
.LBB2902:
	.loc 1 343 0 is_stmt 1
	lwz 4,24(1)
	add 4,4,28
	stw 4,24(1)
.LVL1409:
.L963:
	add 11,11,29
	addi 18,18,1
.LVL1410:
.L959:
.LBE2902:
.LBE2901:
.LBE2905:
	.loc 2 1381 0 discriminator 1
	lwz 6,36(1)
	cmplw 7,18,6
	bne+ 7,.L965
	b .L960
.LVL1411:
.L3253:
.LBB2906:
	.loc 2 1381 0 is_stmt 0 discriminator 2
	cmplw 7,18,24
	bgt+ 7,.L961
	.loc 2 1381 0 discriminator 1
	add 3,11,5
	addi 4,1,8
	stw 5,48(1)
	stw 10,60(1)
	stw 11,52(1)
	bl getUSHORT_4_4_4_4
.LVL1412:
	lwz 5,48(1)
	lwz 10,60(1)
	lwz 11,52(1)
	beq- 4,.L964
	lbz 3,8(1)
.LVL1413:
	lbz 4,10(1)
	stb 3,10(1)
	stb 4,8(1)
.LVL1414:
.L964:
	.loc 2 1381 0 discriminator 2
	addi 3,1,8
	addi 4,1,24
	stw 5,48(1)
	stw 10,60(1)
	stw 11,52(1)
	bl put5A3
.LVL1415:
	lwz 11,52(1)
	lwz 10,60(1)
	lwz 5,48(1)
	b .L963
.LVL1416:
.L960:
	add 5,5,30
	addi 19,19,1
.LVL1417:
	b .L968
.LVL1418:
.L3252:
	lwz 8,40(1)
.LBE2906:
.LBE2944:
	.loc 2 1381 0 discriminator 3
	addi 20,20,1
.LVL1419:
	add 15,15,31
	add 14,14,8
	b .L969
.L979:
	lwz 14,32(1)
	addi 10,10,1
.LVL1420:
	lwz 16,28(1)
	add 17,17,14
.LVL1421:
.L891:
	.loc 2 1381 0 discriminator 1
	cmpw 7,10,21
	blt+ 7,$+8
	b .L238
	add 0,16,27
	.loc 2 1381 0
	mr 14,17
	stw 0,28(1)
	li 15,0
	li 20,0
.LVL1422:
.L981:
	.loc 2 1381 0 discriminator 1
	cmpw 7,20,22
	bge- 7,.L979
	add 12,15,31
	.loc 2 1381 0
	mr 19,16
	stw 12,36(1)
	mr 5,14
.L980:
	.loc 2 1381 0 discriminator 1
	lwz 8,28(1)
	cmplw 7,19,8
	beq- 7,.L3254
.LVL1423:
.LBB2945:
	.loc 2 1381 0 discriminator 2
	cmplw 7,19,23
	ble+ 7,$+8
	b .L238
	cmplw 7,19,25
	blt- 7,.L970
	.loc 2 1381 0
	mr 18,15
	li 11,0
	b .L971
.L970:
.LVL1424:
.LBB2911:
.LBB2912:
	.loc 1 343 0 is_stmt 1 discriminator 1
	lwz 4,24(1)
	lwz 6,44(1)
	add 4,4,6
	stw 4,24(1)
.LBE2912:
.LBE2911:
	.loc 2 1381 0 discriminator 1
	b .L972
.LVL1425:
.L977:
.LBB2913:
	.loc 2 1381 0 is_stmt 0 discriminator 2
	cmplw 7,18,26
	bge- 7,.L3255
.L973:
.LVL1426:
.LBB2909:
.LBB2910:
	.loc 1 343 0 is_stmt 1
	lwz 4,24(1)
	add 4,4,28
	stw 4,24(1)
.LVL1427:
.L975:
	add 11,11,29
	addi 18,18,1
.LVL1428:
.L971:
.LBE2910:
.LBE2909:
.LBE2913:
	.loc 2 1381 0 discriminator 1
	lwz 7,36(1)
	cmplw 7,18,7
	bne+ 7,.L977
	b .L972
.LVL1429:
.L3255:
.LBB2914:
	.loc 2 1381 0 is_stmt 0 discriminator 2
	cmplw 7,18,24
	bgt+ 7,.L973
	.loc 2 1381 0 discriminator 1
	add 3,11,5
	addi 4,1,8
	stw 5,48(1)
	stw 10,60(1)
	stw 11,52(1)
	bl getUSHORT_4_4_4_4
.LVL1430:
	lwz 5,48(1)
	lwz 10,60(1)
	lwz 11,52(1)
	beq- 4,.L976
	lbz 3,8(1)
.LVL1431:
	lbz 4,10(1)
	stb 3,10(1)
	stb 4,8(1)
.LVL1432:
.L976:
	.loc 2 1381 0 discriminator 2
	addi 3,1,8
	addi 4,1,24
	stw 5,48(1)
	stw 10,60(1)
	stw 11,52(1)
	bl put565
.LVL1433:
	lwz 11,52(1)
	lwz 10,60(1)
	lwz 5,48(1)
	b .L975
.LVL1434:
.L972:
	add 5,5,30
	addi 19,19,1
.LVL1435:
	b .L980
.LVL1436:
.L3254:
	lwz 9,40(1)
.LBE2914:
.LBE2945:
	.loc 2 1381 0 discriminator 3
	addi 20,20,1
.LVL1437:
	add 15,15,31
	add 14,14,9
	b .L981
.LVL1438:
.L1001:
	lwz 8,44(1)
	addi 14,14,1
.LVL1439:
	mr 19,17
	add 15,15,8
.LVL1440:
.L889:
	.loc 2 1381 0 discriminator 1
	cmpw 7,14,21
	blt+ 7,$+8
	b .L238
	.loc 2 1381 0
	mr 18,15
	li 20,0
	li 16,0
	add 17,19,27
.L1003:
.LVL1441:
	.loc 2 1381 0 discriminator 1
	cmpw 7,16,22
	bge- 7,.L1001
	add 7,20,31
	.loc 2 1381 0
	mr 9,19
	stw 7,32(1)
	mr 8,18
.L1002:
	.loc 2 1381 0 discriminator 1
	cmplw 7,9,17
	beq- 7,.L3256
.LVL1442:
.LBB2946:
	.loc 2 1381 0 discriminator 2
	cmplw 7,9,23
	ble+ 7,$+8
	b .L238
	cmplw 7,9,25
	blt- 7,.L982
	.loc 2 1381 0
	mr 10,20
	li 7,0
	b .L983
.L982:
.LVL1443:
.LBB2895:
.LBB2896:
	.loc 1 343 0 is_stmt 1 discriminator 1
	lwz 10,24(1)
	lwz 6,28(1)
	add 10,10,6
	stw 10,24(1)
.LBE2896:
.LBE2895:
	.loc 2 1381 0 discriminator 1
	b .L984
.LVL1444:
.L989:
.LBB2897:
	.loc 2 1381 0 is_stmt 0 discriminator 2
	cmplw 7,10,26
	bge- 7,.L3257
.L985:
.LVL1445:
.LBB2893:
.LBB2894:
	.loc 1 343 0 is_stmt 1
	lwz 6,24(1)
	add 6,6,28
	stw 6,24(1)
.LVL1446:
.L987:
	add 7,7,29
	addi 10,10,1
.L983:
.LBE2894:
.LBE2893:
.LBE2897:
	.loc 2 1381 0 discriminator 1
	lwz 12,32(1)
	cmplw 7,10,12
	bne+ 7,.L989
	b .L984
.LVL1447:
.L3257:
.LBB2898:
	.loc 2 1381 0 is_stmt 0 discriminator 2
	cmplw 7,10,24
	bgt+ 7,.L985
	.loc 2 1381 0 discriminator 1
	add 3,7,8
	addi 4,1,8
	stw 7,52(1)
	stw 8,48(1)
	stw 9,56(1)
	stw 10,60(1)
	bl getUSHORT_4_4_4_4
.LVL1448:
	lwz 7,52(1)
	lwz 8,48(1)
	lwz 9,56(1)
	lwz 10,60(1)
	beq- 4,.L988
	lbz 5,8(1)
.LVL1449:
	lbz 6,10(1)
	stb 5,10(1)
	stb 6,8(1)
.LVL1450:
.L988:
	.loc 2 1381 0 discriminator 2
	addi 3,1,8
	addi 4,1,24
	stw 7,52(1)
	stw 8,48(1)
	stw 9,56(1)
	stw 10,60(1)
	bl putAR
.LVL1451:
	lwz 10,60(1)
	lwz 9,56(1)
	lwz 8,48(1)
	lwz 7,52(1)
	b .L987
.L984:
	add 8,8,30
	addi 9,9,1
	b .L1002
.L3256:
	add 0,20,31
.LBE2898:
.LBE2946:
	.loc 2 1381 0
	mr 10,19
	stw 0,36(1)
	li 8,0
.L991:
	.loc 2 1381 0 discriminator 1
	cmplw 7,10,17
	beq- 7,.L3258
.LVL1452:
.LBB2947:
	.loc 2 1381 0 discriminator 2
	cmplw 7,10,25
	blt- 7,.L992
	add 6,8,18
	.loc 2 1381 0
	mr 9,20
	li 7,0
	stw 6,32(1)
	b .L993
.L992:
.LVL1453:
.LBB2948:
.LBB2949:
	.loc 1 343 0 is_stmt 1 discriminator 1
	lwz 9,24(1)
	lwz 7,28(1)
	add 9,9,7
	stw 9,24(1)
.LBE2949:
.LBE2948:
	.loc 2 1381 0 discriminator 1
	b .L994
.LVL1454:
.L999:
.LBB2950:
	.loc 2 1381 0 is_stmt 0 discriminator 2
	cmplw 7,9,26
	bge- 7,.L3259
.L995:
.LVL1455:
.LBB2951:
.LBB2952:
	.loc 1 343 0 is_stmt 1
	lwz 6,24(1)
	add 6,6,28
	stw 6,24(1)
.LVL1456:
.L997:
	add 7,7,29
	addi 9,9,1
.L993:
.LBE2952:
.LBE2951:
.LBE2950:
	.loc 2 1381 0 discriminator 1
	lwz 0,36(1)
	cmplw 7,9,0
	bne+ 7,.L999
	b .L994
.LVL1457:
.L3259:
.LBB2953:
	.loc 2 1381 0 is_stmt 0 discriminator 2
	cmplw 7,9,24
	bgt+ 7,.L995
	.loc 2 1381 0 discriminator 1
	lwz 12,32(1)
	addi 4,1,8
	stw 7,52(1)
	add 3,7,12
	stw 8,48(1)
	stw 9,56(1)
	stw 10,60(1)
	bl getUSHORT_4_4_4_4
.LVL1458:
	lwz 7,52(1)
	lwz 8,48(1)
	lwz 9,56(1)
	lwz 10,60(1)
	beq- 4,.L998
	lbz 5,8(1)
.LVL1459:
	lbz 6,10(1)
	stb 5,10(1)
	stb 6,8(1)
.LVL1460:
.L998:
	.loc 2 1381 0 discriminator 2
	addi 3,1,8
	addi 4,1,24
	stw 7,52(1)
	stw 8,48(1)
	stw 9,56(1)
	stw 10,60(1)
	bl putGB
.LVL1461:
	lwz 10,60(1)
	lwz 9,56(1)
	lwz 8,48(1)
	lwz 7,52(1)
	b .L997
.L994:
	add 8,8,30
	addi 10,10,1
	b .L991
.L3258:
	lwz 6,40(1)
.LBE2953:
.LBE2947:
	.loc 2 1381 0 discriminator 3
	addi 16,16,1
.LVL1462:
	add 20,20,31
	add 18,18,6
	b .L1003
.LVL1463:
.L374:
	.loc 2 1383 0 is_stmt 1
	cmplwi 7,19,4
	beq- 7,.L1004
	bgt- 7,.L1005
	cmplwi 7,19,2
	beq- 7,.L1006
	bgt- 7,.L1007
	cmplwi 7,19,1
	beq+ 7,$+8
	b .L238
	mullw 10,29,31
.LVL1464:
	mr 17,15
.LBB2954:
	li 16,0
.LBB2955:
	cmpwi 4,20,0
.LBE2955:
	mullw 8,28,31
	stw 10,40(1)
	li 10,0
	mullw 9,30,27
	stw 8,44(1)
	stw 9,32(1)
	b .L1017
.LVL1465:
.L1005:
.LBE2954:
	cmplwi 7,19,6
	beq- 7,.L1009
	blt- 7,.L1010
	cmplwi 7,19,39
	beq+ 7,$+8
	b .L238
	mullw 10,30,27
.LVL1466:
	mr 17,15
.LBB2962:
	li 16,0
.LBB2963:
	cmpwi 4,20,0
.LBE2963:
	mullw 9,28,31
	stw 10,32(1)
	li 10,0
	mullw 12,29,31
	stw 9,44(1)
	stw 12,40(1)
	b .L1012
.LVL1467:
.L1009:
.LBE2962:
.LBB2970:
	mullw 14,28,31
	li 19,0
.LVL1468:
.LBB2971:
	cmpwi 4,20,0
	mullw 0,30,27
.LBE2971:
	stw 14,28(1)
	li 14,0
	mullw 6,29,31
	stw 0,44(1)
	stw 6,40(1)
	b .L1013
.LVL1469:
.L1010:
.LBE2970:
.LBB2978:
	mullw 7,28,31
.LVL1470:
	mr 17,15
	li 16,0
	li 10,0
.LVL1471:
.LBB2979:
	cmpwi 4,20,0
	mullw 8,30,27
.LBE2979:
	stw 7,44(1)
	mullw 9,29,31
	stw 8,32(1)
	stw 9,40(1)
	b .L1014
.LVL1472:
.L1004:
.LBE2978:
.LBB2986:
	mullw 10,28,31
.LVL1473:
	mr 17,15
	li 16,0
.LBB2987:
	cmpwi 4,20,0
	mullw 12,30,27
.LBE2987:
	stw 10,44(1)
	li 10,0
	mullw 14,29,31
	stw 12,32(1)
	stw 14,40(1)
	b .L1015
.LVL1474:
.L1006:
.LBE2986:
.LBB2994:
	mullw 0,28,31
	mr 17,15
	li 16,0
	li 10,0
.LVL1475:
.LBB2995:
	cmpwi 4,20,0
	mullw 6,30,27
.LBE2995:
	stw 0,44(1)
	mullw 7,29,31
.LVL1476:
	stw 6,32(1)
	stw 7,40(1)
	b .L1016
.LVL1477:
.L1027:
	lwz 9,32(1)
.LBE2994:
	.loc 2 1383 0 is_stmt 0 discriminator 3
	addi 10,10,1
.LVL1478:
	lwz 16,28(1)
	add 17,17,9
.LVL1479:
.L1017:
	.loc 2 1383 0 discriminator 1
	cmpw 7,10,21
	blt+ 7,$+8
	b .L238
	add 12,16,27
	.loc 2 1383 0
	mr 14,17
	stw 12,28(1)
	li 15,0
	li 20,0
.LVL1480:
.L1029:
	.loc 2 1383 0 discriminator 1
	cmpw 7,20,22
	bge- 7,.L1027
	add 8,15,31
	.loc 2 1383 0
	mr 19,16
	stw 8,36(1)
	mr 5,14
.L1028:
	.loc 2 1383 0 discriminator 1
	lwz 6,28(1)
	cmplw 7,19,6
	beq- 7,.L3260
.LVL1481:
.LBB3002:
	.loc 2 1383 0 discriminator 2
	cmplw 7,19,23
	ble+ 7,$+8
	b .L238
	cmplw 7,19,25
	blt- 7,.L1018
	.loc 2 1383 0
	mr 18,15
	li 11,0
	b .L1019
.L1018:
.LVL1482:
.LBB2958:
.LBB2959:
	.loc 1 343 0 is_stmt 1 discriminator 1
	lwz 4,24(1)
	lwz 12,44(1)
	add 4,4,12
	stw 4,24(1)
.LBE2959:
.LBE2958:
	.loc 2 1383 0 discriminator 1
	b .L1020
.LVL1483:
.L1025:
.LBB2960:
	.loc 2 1383 0 is_stmt 0 discriminator 2
	cmplw 7,18,26
	bge- 7,.L3261
.L1021:
.LVL1484:
.LBB2956:
.LBB2957:
	.loc 1 343 0 is_stmt 1
	lwz 4,24(1)
	add 4,4,28
	stw 4,24(1)
.LVL1485:
.L1023:
	add 11,11,29
	addi 18,18,1
.LVL1486:
.L1019:
.LBE2957:
.LBE2956:
.LBE2960:
	.loc 2 1383 0 discriminator 1
	lwz 0,36(1)
	cmplw 7,18,0
	bne+ 7,.L1025
	b .L1020
.LVL1487:
.L3261:
.LBB2961:
	.loc 2 1383 0 is_stmt 0 discriminator 2
	cmplw 7,18,24
	bgt+ 7,.L1021
	.loc 2 1383 0 discriminator 1
	add 3,11,5
	addi 4,1,8
	stw 5,48(1)
	stw 10,60(1)
	stw 11,52(1)
	bl getUSHORT_4_4_4_4_REV
.LVL1488:
	lwz 5,48(1)
	lwz 10,60(1)
	lwz 11,52(1)
	beq- 4,.L1024
	lbz 3,8(1)
.LVL1489:
	lbz 4,10(1)
	stb 3,10(1)
	stb 4,8(1)
.LVL1490:
.L1024:
	.loc 2 1383 0 discriminator 2
	addi 3,1,8
	addi 4,1,24
	stw 5,48(1)
	stw 10,60(1)
	stw 11,52(1)
	bl putI8
.LVL1491:
	lwz 11,52(1)
	lwz 10,60(1)
	lwz 5,48(1)
	b .L1023
.LVL1492:
.L1020:
	add 5,5,30
	addi 19,19,1
.LVL1493:
	b .L1028
.LVL1494:
.L3260:
	lwz 7,40(1)
.LBE2961:
.LBE3002:
	.loc 2 1383 0 discriminator 3
	addi 20,20,1
.LVL1495:
	add 15,15,31
	add 14,14,7
	b .L1029
.L1039:
	lwz 12,32(1)
	addi 10,10,1
.LVL1496:
	lwz 16,28(1)
	add 17,17,12
.LVL1497:
.L1012:
	.loc 2 1383 0 discriminator 1
	cmpw 7,10,21
	blt+ 7,$+8
	b .L238
	add 0,16,27
	.loc 2 1383 0
	mr 14,17
	stw 0,28(1)
	li 15,0
	li 20,0
.LVL1498:
.L1041:
	.loc 2 1383 0 discriminator 1
	cmpw 7,20,22
	bge- 7,.L1039
	add 9,15,31
	.loc 2 1383 0
	mr 19,16
	stw 9,36(1)
	mr 5,14
.L1040:
	.loc 2 1383 0 discriminator 1
	lwz 7,28(1)
	cmplw 7,19,7
	beq- 7,.L3262
.LVL1499:
.LBB3003:
	.loc 2 1383 0 discriminator 2
	cmplw 7,19,23
	ble+ 7,$+8
	b .L238
	cmplw 7,19,25
	blt- 7,.L1030
	.loc 2 1383 0
	mr 18,15
	li 11,0
	b .L1031
.L1030:
.LVL1500:
.LBB2966:
.LBB2967:
	.loc 1 343 0 is_stmt 1 discriminator 1
	lwz 4,24(1)
	lwz 0,44(1)
	add 4,4,0
	stw 4,24(1)
.LBE2967:
.LBE2966:
	.loc 2 1383 0 discriminator 1
	b .L1032
.LVL1501:
.L1037:
.LBB2968:
	.loc 2 1383 0 is_stmt 0 discriminator 2
	cmplw 7,18,26
	bge- 7,.L3263
.L1033:
.LVL1502:
.LBB2964:
.LBB2965:
	.loc 1 343 0 is_stmt 1
	lwz 4,24(1)
	add 4,4,28
	stw 4,24(1)
.LVL1503:
.L1035:
	add 11,11,29
	addi 18,18,1
.LVL1504:
.L1031:
.LBE2965:
.LBE2964:
.LBE2968:
	.loc 2 1383 0 discriminator 1
	lwz 6,36(1)
	cmplw 7,18,6
	bne+ 7,.L1037
	b .L1032
.LVL1505:
.L3263:
.LBB2969:
	.loc 2 1383 0 is_stmt 0 discriminator 2
	cmplw 7,18,24
	bgt+ 7,.L1033
	.loc 2 1383 0 discriminator 1
	add 3,11,5
	addi 4,1,8
	stw 5,48(1)
	stw 10,60(1)
	stw 11,52(1)
	bl getUSHORT_4_4_4_4_REV
.LVL1506:
	lwz 5,48(1)
	lwz 10,60(1)
	lwz 11,52(1)
	beq- 4,.L1036
	lbz 3,8(1)
.LVL1507:
	lbz 4,10(1)
	stb 3,10(1)
	stb 4,8(1)
.LVL1508:
.L1036:
	.loc 2 1383 0 discriminator 2
	addi 3,1,8
	addi 4,1,24
	stw 5,48(1)
	stw 10,60(1)
	stw 11,52(1)
	bl putA8
.LVL1509:
	lwz 11,52(1)
	lwz 10,60(1)
	lwz 5,48(1)
	b .L1035
.LVL1510:
.L1032:
	add 5,5,30
	addi 19,19,1
.LVL1511:
	b .L1040
.LVL1512:
.L3262:
	lwz 8,40(1)
.LBE2969:
.LBE3003:
	.loc 2 1383 0 discriminator 3
	addi 20,20,1
.LVL1513:
	add 15,15,31
	add 14,14,8
	b .L1041
.L1051:
	lwz 14,32(1)
	addi 10,10,1
.LVL1514:
	lwz 16,28(1)
	add 17,17,14
.LVL1515:
.L1016:
	.loc 2 1383 0 discriminator 1
	cmpw 7,10,21
	blt+ 7,$+8
	b .L238
	add 0,16,27
	.loc 2 1383 0
	mr 14,17
	stw 0,28(1)
	li 15,0
	li 20,0
.LVL1516:
.L1053:
	.loc 2 1383 0 discriminator 1
	cmpw 7,20,22
	bge- 7,.L1051
	add 12,15,31
	.loc 2 1383 0
	mr 19,16
	stw 12,36(1)
	mr 5,14
.L1052:
	.loc 2 1383 0 discriminator 1
	lwz 8,28(1)
	cmplw 7,19,8
	beq- 7,.L3264
.LVL1517:
.LBB3004:
	.loc 2 1383 0 discriminator 2
	cmplw 7,19,23
	ble+ 7,$+8
	b .L238
	cmplw 7,19,25
	blt- 7,.L1042
	.loc 2 1383 0
	mr 18,15
	li 11,0
	b .L1043
.L1042:
.LVL1518:
.LBB2998:
.LBB2999:
	.loc 1 343 0 is_stmt 1 discriminator 1
	lwz 4,24(1)
	lwz 6,44(1)
	add 4,4,6
	stw 4,24(1)
.LBE2999:
.LBE2998:
	.loc 2 1383 0 discriminator 1
	b .L1044
.LVL1519:
.L1049:
.LBB3000:
	.loc 2 1383 0 is_stmt 0 discriminator 2
	cmplw 7,18,26
	bge- 7,.L3265
.L1045:
.LVL1520:
.LBB2996:
.LBB2997:
	.loc 1 343 0 is_stmt 1
	lwz 4,24(1)
	add 4,4,28
	stw 4,24(1)
.LVL1521:
.L1047:
	add 11,11,29
	addi 18,18,1
.LVL1522:
.L1043:
.LBE2997:
.LBE2996:
.LBE3000:
	.loc 2 1383 0 discriminator 1
	lwz 7,36(1)
	cmplw 7,18,7
	bne+ 7,.L1049
	b .L1044
.LVL1523:
.L3265:
.LBB3001:
	.loc 2 1383 0 is_stmt 0 discriminator 2
	cmplw 7,18,24
	bgt+ 7,.L1045
	.loc 2 1383 0 discriminator 1
	add 3,11,5
	addi 4,1,8
	stw 5,48(1)
	stw 10,60(1)
	stw 11,52(1)
	bl getUSHORT_4_4_4_4_REV
.LVL1524:
	lwz 5,48(1)
	lwz 10,60(1)
	lwz 11,52(1)
	beq- 4,.L1048
	lbz 3,8(1)
.LVL1525:
	lbz 4,10(1)
	stb 3,10(1)
	stb 4,8(1)
.LVL1526:
.L1048:
	.loc 2 1383 0 discriminator 2
	addi 3,1,8
	addi 4,1,24
	stw 5,48(1)
	stw 10,60(1)
	stw 11,52(1)
	bl putIA4
.LVL1527:
	lwz 11,52(1)
	lwz 10,60(1)
	lwz 5,48(1)
	b .L1047
.LVL1528:
.L1044:
	add 5,5,30
	addi 19,19,1
.LVL1529:
	b .L1052
.LVL1530:
.L3264:
	lwz 9,40(1)
.LBE3001:
.LBE3004:
	.loc 2 1383 0 discriminator 3
	addi 20,20,1
.LVL1531:
	add 15,15,31
	add 14,14,9
	b .L1053
.LVL1532:
.L1007:
	mullw 6,28,31
	.loc 2 1383 0 discriminator 4
	cmplwi 7,18,6406
	mullw 7,30,27
.LVL1533:
	stw 6,28(1)
	mullw 8,29,31
	stw 7,40(1)
	stw 8,44(1)
	bne- 7,.L3140
	mr 17,15
.LBB3005:
	.loc 2 1383 0
	li 16,0
	li 10,0
.LVL1534:
.LBB3006:
	cmpwi 4,20,0
	b .L1056
.LVL1535:
.L3140:
	mr 14,15
.LBE3006:
.LBE3005:
.LBB3013:
	li 17,0
	li 10,0
.LVL1536:
.LBB3014:
	cmpwi 4,20,0
	b .L1057
.LVL1537:
.L1067:
	lwz 8,40(1)
.LBE3014:
.LBE3013:
	.loc 2 1383 0 discriminator 3
	addi 10,10,1
.LVL1538:
	lwz 16,32(1)
	add 17,17,8
.LVL1539:
.L1056:
	.loc 2 1383 0 discriminator 1
	cmpw 7,10,21
	blt+ 7,$+8
	b .L238
	add 9,16,27
	.loc 2 1383 0
	mr 20,17
	stw 9,32(1)
	li 15,0
	li 14,0
.LVL1540:
.L1069:
	.loc 2 1383 0 discriminator 1
	cmpw 7,14,22
	bge- 7,.L1067
	add 7,15,31
	.loc 2 1383 0
	mr 19,16
	stw 7,36(1)
	mr 5,20
.L1068:
	.loc 2 1383 0 discriminator 1
	lwz 0,32(1)
	cmplw 7,19,0
	beq- 7,.L3266
.LVL1541:
.LBB3021:
	.loc 2 1383 0 discriminator 2
	cmplw 7,19,23
	ble+ 7,$+8
	b .L238
	cmplw 7,19,25
	blt- 7,.L1058
	.loc 2 1383 0
	mr 18,15
	li 11,0
	b .L1059
.L1058:
.LVL1542:
.LBB3009:
.LBB3010:
	.loc 1 343 0 is_stmt 1 discriminator 1
	lwz 4,24(1)
	lwz 9,28(1)
	add 4,4,9
	stw 4,24(1)
.LBE3010:
.LBE3009:
	.loc 2 1383 0 discriminator 1
	b .L1060
.LVL1543:
.L1065:
.LBB3011:
	.loc 2 1383 0 is_stmt 0 discriminator 2
	cmplw 7,18,26
	bge- 7,.L3267
.L1061:
.LVL1544:
.LBB3007:
.LBB3008:
	.loc 1 343 0 is_stmt 1
	lwz 4,24(1)
	add 4,4,28
	stw 4,24(1)
.LVL1545:
.L1063:
	add 11,11,29
	addi 18,18,1
.LVL1546:
.L1059:
.LBE3008:
.LBE3007:
.LBE3011:
	.loc 2 1383 0 discriminator 1
	lwz 12,36(1)
	cmplw 7,18,12
	bne+ 7,.L1065
	b .L1060
.LVL1547:
.L3267:
.LBB3012:
	.loc 2 1383 0 is_stmt 0 discriminator 2
	cmplw 7,18,24
	bgt+ 7,.L1061
	.loc 2 1383 0 discriminator 1
	add 3,11,5
	addi 4,1,8
	stw 5,48(1)
	stw 10,60(1)
	stw 11,52(1)
	bl getUSHORT_4_4_4_4_REV
.LVL1548:
	lwz 5,48(1)
	lwz 10,60(1)
	lwz 11,52(1)
	beq- 4,.L1064
	lbz 3,8(1)
.LVL1549:
	lbz 4,10(1)
	stb 3,10(1)
	stb 4,8(1)
.LVL1550:
.L1064:
	.loc 2 1383 0 discriminator 2
	addi 3,1,8
	addi 4,1,24
	stw 5,48(1)
	stw 10,60(1)
	stw 11,52(1)
	bl putIA8A
.LVL1551:
	lwz 11,52(1)
	lwz 10,60(1)
	lwz 5,48(1)
	b .L1063
.LVL1552:
.L1060:
	add 5,5,30
	addi 19,19,1
.LVL1553:
	b .L1068
.LVL1554:
.L3266:
	lwz 6,44(1)
.LBE3012:
.LBE3021:
	.loc 2 1383 0 discriminator 3
	addi 14,14,1
.LVL1555:
	add 15,15,31
	add 20,20,6
	b .L1069
.LVL1556:
.L1079:
	lwz 9,40(1)
	addi 10,10,1
.LVL1557:
	lwz 17,32(1)
	add 14,14,9
.LVL1558:
.L1057:
	.loc 2 1383 0 discriminator 1
	cmpw 7,10,21
	blt+ 7,$+8
	b .L238
	add 12,17,27
	.loc 2 1383 0
	mr 16,14
	stw 12,32(1)
	li 15,0
	li 20,0
.LVL1559:
.L1081:
	.loc 2 1383 0 discriminator 1
	cmpw 7,20,22
	bge- 7,.L1079
	add 8,15,31
	.loc 2 1383 0
	mr 19,17
	stw 8,36(1)
	mr 5,16
.L1080:
	.loc 2 1383 0 discriminator 1
	lwz 6,32(1)
	cmplw 7,19,6
	beq- 7,.L3268
.LVL1560:
.LBB3022:
	.loc 2 1383 0 discriminator 2
	cmplw 7,19,23
	ble+ 7,$+8
	b .L238
	cmplw 7,19,25
	blt- 7,.L1070
	.loc 2 1383 0
	mr 18,15
	li 11,0
	b .L1071
.L1070:
.LVL1561:
.LBB3017:
.LBB3018:
	.loc 1 343 0 is_stmt 1 discriminator 1
	lwz 4,24(1)
	lwz 12,28(1)
	add 4,4,12
	stw 4,24(1)
.LBE3018:
.LBE3017:
	.loc 2 1383 0 discriminator 1
	b .L1072
.LVL1562:
.L1077:
.LBB3019:
	.loc 2 1383 0 is_stmt 0 discriminator 2
	cmplw 7,18,26
	bge- 7,.L3269
.L1073:
.LVL1563:
.LBB3015:
.LBB3016:
	.loc 1 343 0 is_stmt 1
	lwz 4,24(1)
	add 4,4,28
	stw 4,24(1)
.LVL1564:
.L1075:
	add 11,11,29
	addi 18,18,1
.LVL1565:
.L1071:
.LBE3016:
.LBE3015:
.LBE3019:
	.loc 2 1383 0 discriminator 1
	lwz 0,36(1)
	cmplw 7,18,0
	bne+ 7,.L1077
	b .L1072
.LVL1566:
.L3269:
.LBB3020:
	.loc 2 1383 0 is_stmt 0 discriminator 2
	cmplw 7,18,24
	bgt+ 7,.L1073
	.loc 2 1383 0 discriminator 1
	add 3,11,5
	addi 4,1,8
	stw 5,48(1)
	stw 10,60(1)
	stw 11,52(1)
	bl getUSHORT_4_4_4_4_REV
.LVL1567:
	lwz 5,48(1)
	lwz 10,60(1)
	lwz 11,52(1)
	beq- 4,.L1076
	lbz 3,8(1)
.LVL1568:
	lbz 4,10(1)
	stb 3,10(1)
	stb 4,8(1)
.LVL1569:
.L1076:
	.loc 2 1383 0 discriminator 2
	addi 3,1,8
	addi 4,1,24
	stw 5,48(1)
	stw 10,60(1)
	stw 11,52(1)
	bl putIA8
.LVL1570:
	lwz 11,52(1)
	lwz 10,60(1)
	lwz 5,48(1)
	b .L1075
.LVL1571:
.L1072:
	add 5,5,30
	addi 19,19,1
.LVL1572:
	b .L1080
.LVL1573:
.L3268:
	lwz 7,44(1)
.LBE3020:
.LBE3022:
	.loc 2 1383 0 discriminator 3
	addi 20,20,1
.LVL1574:
	add 15,15,31
	add 16,16,7
	b .L1081
.L1091:
	lwz 12,32(1)
	addi 10,10,1
.LVL1575:
	lwz 16,28(1)
	add 17,17,12
.LVL1576:
.L1014:
	.loc 2 1383 0 discriminator 1
	cmpw 7,10,21
	blt+ 7,$+8
	b .L238
	add 0,16,27
	.loc 2 1383 0
	mr 14,17
	stw 0,28(1)
	li 15,0
	li 20,0
.LVL1577:
.L1093:
	.loc 2 1383 0 discriminator 1
	cmpw 7,20,22
	bge- 7,.L1091
	add 9,15,31
	.loc 2 1383 0
	mr 19,16
	stw 9,36(1)
	mr 5,14
.L1092:
	.loc 2 1383 0 discriminator 1
	lwz 7,28(1)
	cmplw 7,19,7
	beq- 7,.L3270
.LVL1578:
.LBB3023:
	.loc 2 1383 0 discriminator 2
	cmplw 7,19,23
	ble+ 7,$+8
	b .L238
	cmplw 7,19,25
	blt- 7,.L1082
	.loc 2 1383 0
	mr 18,15
	li 11,0
	b .L1083
.L1082:
.LVL1579:
.LBB2982:
.LBB2983:
	.loc 1 343 0 is_stmt 1 discriminator 1
	lwz 4,24(1)
	lwz 0,44(1)
	add 4,4,0
	stw 4,24(1)
.LBE2983:
.LBE2982:
	.loc 2 1383 0 discriminator 1
	b .L1084
.LVL1580:
.L1089:
.LBB2984:
	.loc 2 1383 0 is_stmt 0 discriminator 2
	cmplw 7,18,26
	bge- 7,.L3271
.L1085:
.LVL1581:
.LBB2980:
.LBB2981:
	.loc 1 343 0 is_stmt 1
	lwz 4,24(1)
	add 4,4,28
	stw 4,24(1)
.LVL1582:
.L1087:
	add 11,11,29
	addi 18,18,1
.LVL1583:
.L1083:
.LBE2981:
.LBE2980:
.LBE2984:
	.loc 2 1383 0 discriminator 1
	lwz 6,36(1)
	cmplw 7,18,6
	bne+ 7,.L1089
	b .L1084
.LVL1584:
.L3271:
.LBB2985:
	.loc 2 1383 0 is_stmt 0 discriminator 2
	cmplw 7,18,24
	bgt+ 7,.L1085
	.loc 2 1383 0 discriminator 1
	add 3,11,5
	addi 4,1,8
	stw 5,48(1)
	stw 10,60(1)
	stw 11,52(1)
	bl getUSHORT_4_4_4_4_REV
.LVL1585:
	lwz 5,48(1)
	lwz 10,60(1)
	lwz 11,52(1)
	beq- 4,.L1088
	lbz 3,8(1)
.LVL1586:
	lbz 4,10(1)
	stb 3,10(1)
	stb 4,8(1)
.LVL1587:
.L1088:
	.loc 2 1383 0 discriminator 2
	addi 3,1,8
	addi 4,1,24
	stw 5,48(1)
	stw 10,60(1)
	stw 11,52(1)
	bl put5A3
.LVL1588:
	lwz 11,52(1)
	lwz 10,60(1)
	lwz 5,48(1)
	b .L1087
.LVL1589:
.L1084:
	add 5,5,30
	addi 19,19,1
.LVL1590:
	b .L1092
.LVL1591:
.L3270:
	lwz 8,40(1)
.LBE2985:
.LBE3023:
	.loc 2 1383 0 discriminator 3
	addi 20,20,1
.LVL1592:
	add 15,15,31
	add 14,14,8
	b .L1093
.L1103:
	lwz 14,32(1)
	addi 10,10,1
.LVL1593:
	lwz 16,28(1)
	add 17,17,14
.LVL1594:
.L1015:
	.loc 2 1383 0 discriminator 1
	cmpw 7,10,21
	blt+ 7,$+8
	b .L238
	add 0,16,27
	.loc 2 1383 0
	mr 14,17
	stw 0,28(1)
	li 15,0
	li 20,0
.LVL1595:
.L1105:
	.loc 2 1383 0 discriminator 1
	cmpw 7,20,22
	bge- 7,.L1103
	add 12,15,31
	.loc 2 1383 0
	mr 19,16
	stw 12,36(1)
	mr 5,14
.L1104:
	.loc 2 1383 0 discriminator 1
	lwz 8,28(1)
	cmplw 7,19,8
	beq- 7,.L3272
.LVL1596:
.LBB3024:
	.loc 2 1383 0 discriminator 2
	cmplw 7,19,23
	ble+ 7,$+8
	b .L238
	cmplw 7,19,25
	blt- 7,.L1094
	.loc 2 1383 0
	mr 18,15
	li 11,0
	b .L1095
.L1094:
.LVL1597:
.LBB2990:
.LBB2991:
	.loc 1 343 0 is_stmt 1 discriminator 1
	lwz 4,24(1)
	lwz 6,44(1)
	add 4,4,6
	stw 4,24(1)
.LBE2991:
.LBE2990:
	.loc 2 1383 0 discriminator 1
	b .L1096
.LVL1598:
.L1101:
.LBB2992:
	.loc 2 1383 0 is_stmt 0 discriminator 2
	cmplw 7,18,26
	bge- 7,.L3273
.L1097:
.LVL1599:
.LBB2988:
.LBB2989:
	.loc 1 343 0 is_stmt 1
	lwz 4,24(1)
	add 4,4,28
	stw 4,24(1)
.LVL1600:
.L1099:
	add 11,11,29
	addi 18,18,1
.LVL1601:
.L1095:
.LBE2989:
.LBE2988:
.LBE2992:
	.loc 2 1383 0 discriminator 1
	lwz 7,36(1)
	cmplw 7,18,7
	bne+ 7,.L1101
	b .L1096
.LVL1602:
.L3273:
.LBB2993:
	.loc 2 1383 0 is_stmt 0 discriminator 2
	cmplw 7,18,24
	bgt+ 7,.L1097
	.loc 2 1383 0 discriminator 1
	add 3,11,5
	addi 4,1,8
	stw 5,48(1)
	stw 10,60(1)
	stw 11,52(1)
	bl getUSHORT_4_4_4_4_REV
.LVL1603:
	lwz 5,48(1)
	lwz 10,60(1)
	lwz 11,52(1)
	beq- 4,.L1100
	lbz 3,8(1)
.LVL1604:
	lbz 4,10(1)
	stb 3,10(1)
	stb 4,8(1)
.LVL1605:
.L1100:
	.loc 2 1383 0 discriminator 2
	addi 3,1,8
	addi 4,1,24
	stw 5,48(1)
	stw 10,60(1)
	stw 11,52(1)
	bl put565
.LVL1606:
	lwz 11,52(1)
	lwz 10,60(1)
	lwz 5,48(1)
	b .L1099
.LVL1607:
.L1096:
	add 5,5,30
	addi 19,19,1
.LVL1608:
	b .L1104
.LVL1609:
.L3272:
	lwz 9,40(1)
.LBE2993:
.LBE3024:
	.loc 2 1383 0 discriminator 3
	addi 20,20,1
.LVL1610:
	add 15,15,31
	add 14,14,9
	b .L1105
.LVL1611:
.L1125:
	lwz 8,44(1)
	addi 14,14,1
.LVL1612:
	mr 19,17
	add 15,15,8
.LVL1613:
.L1013:
	.loc 2 1383 0 discriminator 1
	cmpw 7,14,21
	blt+ 7,$+8
	b .L238
	.loc 2 1383 0
	mr 18,15
	li 20,0
	li 16,0
	add 17,19,27
.L1127:
.LVL1614:
	.loc 2 1383 0 discriminator 1
	cmpw 7,16,22
	bge- 7,.L1125
	add 7,20,31
	.loc 2 1383 0
	mr 9,19
	stw 7,32(1)
	mr 8,18
.L1126:
	.loc 2 1383 0 discriminator 1
	cmplw 7,9,17
	beq- 7,.L3274
.LVL1615:
.LBB3025:
	.loc 2 1383 0 discriminator 2
	cmplw 7,9,23
	ble+ 7,$+8
	b .L238
	cmplw 7,9,25
	blt- 7,.L1106
	.loc 2 1383 0
	mr 10,20
	li 7,0
	b .L1107
.L1106:
.LVL1616:
.LBB2974:
.LBB2975:
	.loc 1 343 0 is_stmt 1 discriminator 1
	lwz 10,24(1)
	lwz 6,28(1)
	add 10,10,6
	stw 10,24(1)
.LBE2975:
.LBE2974:
	.loc 2 1383 0 discriminator 1
	b .L1108
.LVL1617:
.L1113:
.LBB2976:
	.loc 2 1383 0 is_stmt 0 discriminator 2
	cmplw 7,10,26
	bge- 7,.L3275
.L1109:
.LVL1618:
.LBB2972:
.LBB2973:
	.loc 1 343 0 is_stmt 1
	lwz 6,24(1)
	add 6,6,28
	stw 6,24(1)
.LVL1619:
.L1111:
	add 7,7,29
	addi 10,10,1
.L1107:
.LBE2973:
.LBE2972:
.LBE2976:
	.loc 2 1383 0 discriminator 1
	lwz 12,32(1)
	cmplw 7,10,12
	bne+ 7,.L1113
	b .L1108
.LVL1620:
.L3275:
.LBB2977:
	.loc 2 1383 0 is_stmt 0 discriminator 2
	cmplw 7,10,24
	bgt+ 7,.L1109
	.loc 2 1383 0 discriminator 1
	add 3,7,8
	addi 4,1,8
	stw 7,52(1)
	stw 8,48(1)
	stw 9,56(1)
	stw 10,60(1)
	bl getUSHORT_4_4_4_4_REV
.LVL1621:
	lwz 7,52(1)
	lwz 8,48(1)
	lwz 9,56(1)
	lwz 10,60(1)
	beq- 4,.L1112
	lbz 5,8(1)
.LVL1622:
	lbz 6,10(1)
	stb 5,10(1)
	stb 6,8(1)
.LVL1623:
.L1112:
	.loc 2 1383 0 discriminator 2
	addi 3,1,8
	addi 4,1,24
	stw 7,52(1)
	stw 8,48(1)
	stw 9,56(1)
	stw 10,60(1)
	bl putAR
.LVL1624:
	lwz 10,60(1)
	lwz 9,56(1)
	lwz 8,48(1)
	lwz 7,52(1)
	b .L1111
.L1108:
	add 8,8,30
	addi 9,9,1
	b .L1126
.L3274:
	add 0,20,31
.LBE2977:
.LBE3025:
	.loc 2 1383 0
	mr 10,19
	stw 0,36(1)
	li 8,0
.L1115:
	.loc 2 1383 0 discriminator 1
	cmplw 7,10,17
	beq- 7,.L3276
.LVL1625:
.LBB3026:
	.loc 2 1383 0 discriminator 2
	cmplw 7,10,25
	blt- 7,.L1116
	add 6,8,18
	.loc 2 1383 0
	mr 9,20
	li 7,0
	stw 6,32(1)
	b .L1117
.L1116:
.LVL1626:
.LBB3027:
.LBB3028:
	.loc 1 343 0 is_stmt 1 discriminator 1
	lwz 9,24(1)
	lwz 7,28(1)
	add 9,9,7
	stw 9,24(1)
.LBE3028:
.LBE3027:
	.loc 2 1383 0 discriminator 1
	b .L1118
.LVL1627:
.L1123:
.LBB3029:
	.loc 2 1383 0 is_stmt 0 discriminator 2
	cmplw 7,9,26
	bge- 7,.L3277
.L1119:
.LVL1628:
.LBB3030:
.LBB3031:
	.loc 1 343 0 is_stmt 1
	lwz 6,24(1)
	add 6,6,28
	stw 6,24(1)
.LVL1629:
.L1121:
	add 7,7,29
	addi 9,9,1
.L1117:
.LBE3031:
.LBE3030:
.LBE3029:
	.loc 2 1383 0 discriminator 1
	lwz 0,36(1)
	cmplw 7,9,0
	bne+ 7,.L1123
	b .L1118
.LVL1630:
.L3277:
.LBB3032:
	.loc 2 1383 0 is_stmt 0 discriminator 2
	cmplw 7,9,24
	bgt+ 7,.L1119
	.loc 2 1383 0 discriminator 1
	lwz 12,32(1)
	addi 4,1,8
	stw 7,52(1)
	add 3,7,12
	stw 8,48(1)
	stw 9,56(1)
	stw 10,60(1)
	bl getUSHORT_4_4_4_4_REV
.LVL1631:
	lwz 7,52(1)
	lwz 8,48(1)
	lwz 9,56(1)
	lwz 10,60(1)
	beq- 4,.L1122
	lbz 5,8(1)
.LVL1632:
	lbz 6,10(1)
	stb 5,10(1)
	stb 6,8(1)
.LVL1633:
.L1122:
	.loc 2 1383 0 discriminator 2
	addi 3,1,8
	addi 4,1,24
	stw 7,52(1)
	stw 8,48(1)
	stw 9,56(1)
	stw 10,60(1)
	bl putGB
.LVL1634:
	lwz 10,60(1)
	lwz 9,56(1)
	lwz 8,48(1)
	lwz 7,52(1)
	b .L1121
.L1118:
	add 8,8,30
	addi 10,10,1
	b .L1115
.L3276:
	lwz 6,40(1)
.LBE3032:
.LBE3026:
	.loc 2 1383 0 discriminator 3
	addi 16,16,1
.LVL1635:
	add 20,20,31
	add 18,18,6
	b .L1127
.LVL1636:
.L371:
	.loc 2 1385 0 is_stmt 1
	cmplwi 7,19,4
	beq- 7,.L1128
	bgt- 7,.L1129
	cmplwi 7,19,2
	beq- 7,.L1130
	bgt- 7,.L1131
	cmplwi 7,19,1
	beq+ 7,$+8
	b .L238
	mullw 10,29,31
.LVL1637:
	mr 17,15
.LBB3033:
	li 16,0
.LBB3034:
	cmpwi 4,20,0
.LBE3034:
	mullw 8,28,31
	stw 10,40(1)
	li 10,0
	mullw 9,30,27
	stw 8,44(1)
	stw 9,32(1)
	b .L1141
.LVL1638:
.L1129:
.LBE3033:
	cmplwi 7,19,6
	beq- 7,.L1133
	blt- 7,.L1134
	cmplwi 7,19,39
	beq+ 7,$+8
	b .L238
	mullw 10,30,27
.LVL1639:
	mr 17,15
.LBB3041:
	li 16,0
.LBB3042:
	cmpwi 4,20,0
.LBE3042:
	mullw 9,28,31
	stw 10,32(1)
	li 10,0
	mullw 12,29,31
	stw 9,44(1)
	stw 12,40(1)
	b .L1136
.LVL1640:
.L1133:
.LBE3041:
.LBB3049:
	mullw 14,28,31
	li 19,0
.LVL1641:
.LBB3050:
	cmpwi 4,20,0
	mullw 0,30,27
.LBE3050:
	stw 14,28(1)
	li 14,0
	mullw 6,29,31
	stw 0,44(1)
	stw 6,40(1)
	b .L1137
.LVL1642:
.L1134:
.LBE3049:
.LBB3057:
	mullw 7,28,31
.LVL1643:
	mr 17,15
	li 16,0
	li 10,0
.LVL1644:
.LBB3058:
	cmpwi 4,20,0
	mullw 8,30,27
.LBE3058:
	stw 7,44(1)
	mullw 9,29,31
	stw 8,32(1)
	stw 9,40(1)
	b .L1138
.LVL1645:
.L1128:
.LBE3057:
.LBB3065:
	mullw 10,28,31
.LVL1646:
	mr 17,15
	li 16,0
.LBB3066:
	cmpwi 4,20,0
	mullw 12,30,27
.LBE3066:
	stw 10,44(1)
	li 10,0
	mullw 14,29,31
	stw 12,32(1)
	stw 14,40(1)
	b .L1139
.LVL1647:
.L1130:
.LBE3065:
.LBB3073:
	mullw 0,28,31
	mr 17,15
	li 16,0
	li 10,0
.LVL1648:
.LBB3074:
	cmpwi 4,20,0
	mullw 6,30,27
.LBE3074:
	stw 0,44(1)
	mullw 7,29,31
.LVL1649:
	stw 6,32(1)
	stw 7,40(1)
	b .L1140
.LVL1650:
.L1151:
	lwz 9,32(1)
.LBE3073:
	.loc 2 1385 0 is_stmt 0 discriminator 3
	addi 10,10,1
.LVL1651:
	lwz 16,28(1)
	add 17,17,9
.LVL1652:
.L1141:
	.loc 2 1385 0 discriminator 1
	cmpw 7,10,21
	blt+ 7,$+8
	b .L238
	add 12,16,27
	.loc 2 1385 0
	mr 14,17
	stw 12,28(1)
	li 15,0
	li 20,0
.LVL1653:
.L1153:
	.loc 2 1385 0 discriminator 1
	cmpw 7,20,22
	bge- 7,.L1151
	add 8,15,31
	.loc 2 1385 0
	mr 19,16
	stw 8,36(1)
	mr 5,14
.L1152:
	.loc 2 1385 0 discriminator 1
	lwz 6,28(1)
	cmplw 7,19,6
	beq- 7,.L3278
.LVL1654:
.LBB3081:
	.loc 2 1385 0 discriminator 2
	cmplw 7,19,23
	ble+ 7,$+8
	b .L238
	cmplw 7,19,25
	blt- 7,.L1142
	.loc 2 1385 0
	mr 18,15
	li 11,0
	b .L1143
.L1142:
.LVL1655:
.LBB3037:
.LBB3038:
	.loc 1 343 0 is_stmt 1 discriminator 1
	lwz 4,24(1)
	lwz 12,44(1)
	add 4,4,12
	stw 4,24(1)
.LBE3038:
.LBE3037:
	.loc 2 1385 0 discriminator 1
	b .L1144
.LVL1656:
.L1149:
.LBB3039:
	.loc 2 1385 0 is_stmt 0 discriminator 2
	cmplw 7,18,26
	bge- 7,.L3279
.L1145:
.LVL1657:
.LBB3035:
.LBB3036:
	.loc 1 343 0 is_stmt 1
	lwz 4,24(1)
	add 4,4,28
	stw 4,24(1)
.LVL1658:
.L1147:
	add 11,11,29
	addi 18,18,1
.LVL1659:
.L1143:
.LBE3036:
.LBE3035:
.LBE3039:
	.loc 2 1385 0 discriminator 1
	lwz 0,36(1)
	cmplw 7,18,0
	bne+ 7,.L1149
	b .L1144
.LVL1660:
.L3279:
.LBB3040:
	.loc 2 1385 0 is_stmt 0 discriminator 2
	cmplw 7,18,24
	bgt+ 7,.L1145
	.loc 2 1385 0 discriminator 1
	add 3,11,5
	addi 4,1,8
	stw 5,48(1)
	stw 10,60(1)
	stw 11,52(1)
	bl getUSHORT_5_5_5_1
.LVL1661:
	lwz 5,48(1)
	lwz 10,60(1)
	lwz 11,52(1)
	beq- 4,.L1148
	lbz 3,8(1)
.LVL1662:
	lbz 4,10(1)
	stb 3,10(1)
	stb 4,8(1)
.LVL1663:
.L1148:
	.loc 2 1385 0 discriminator 2
	addi 3,1,8
	addi 4,1,24
	stw 5,48(1)
	stw 10,60(1)
	stw 11,52(1)
	bl putI8
.LVL1664:
	lwz 11,52(1)
	lwz 10,60(1)
	lwz 5,48(1)
	b .L1147
.LVL1665:
.L1144:
	add 5,5,30
	addi 19,19,1
.LVL1666:
	b .L1152
.LVL1667:
.L3278:
	lwz 7,40(1)
.LBE3040:
.LBE3081:
	.loc 2 1385 0 discriminator 3
	addi 20,20,1
.LVL1668:
	add 15,15,31
	add 14,14,7
	b .L1153
.L1163:
	lwz 12,32(1)
	addi 10,10,1
.LVL1669:
	lwz 16,28(1)
	add 17,17,12
.LVL1670:
.L1136:
	.loc 2 1385 0 discriminator 1
	cmpw 7,10,21
	blt+ 7,$+8
	b .L238
	add 0,16,27
	.loc 2 1385 0
	mr 14,17
	stw 0,28(1)
	li 15,0
	li 20,0
.LVL1671:
.L1165:
	.loc 2 1385 0 discriminator 1
	cmpw 7,20,22
	bge- 7,.L1163
	add 9,15,31
	.loc 2 1385 0
	mr 19,16
	stw 9,36(1)
	mr 5,14
.L1164:
	.loc 2 1385 0 discriminator 1
	lwz 7,28(1)
	cmplw 7,19,7
	beq- 7,.L3280
.LVL1672:
.LBB3082:
	.loc 2 1385 0 discriminator 2
	cmplw 7,19,23
	ble+ 7,$+8
	b .L238
	cmplw 7,19,25
	blt- 7,.L1154
	.loc 2 1385 0
	mr 18,15
	li 11,0
	b .L1155
.L1154:
.LVL1673:
.LBB3045:
.LBB3046:
	.loc 1 343 0 is_stmt 1 discriminator 1
	lwz 4,24(1)
	lwz 0,44(1)
	add 4,4,0
	stw 4,24(1)
.LBE3046:
.LBE3045:
	.loc 2 1385 0 discriminator 1
	b .L1156
.LVL1674:
.L1161:
.LBB3047:
	.loc 2 1385 0 is_stmt 0 discriminator 2
	cmplw 7,18,26
	bge- 7,.L3281
.L1157:
.LVL1675:
.LBB3043:
.LBB3044:
	.loc 1 343 0 is_stmt 1
	lwz 4,24(1)
	add 4,4,28
	stw 4,24(1)
.LVL1676:
.L1159:
	add 11,11,29
	addi 18,18,1
.LVL1677:
.L1155:
.LBE3044:
.LBE3043:
.LBE3047:
	.loc 2 1385 0 discriminator 1
	lwz 6,36(1)
	cmplw 7,18,6
	bne+ 7,.L1161
	b .L1156
.LVL1678:
.L3281:
.LBB3048:
	.loc 2 1385 0 is_stmt 0 discriminator 2
	cmplw 7,18,24
	bgt+ 7,.L1157
	.loc 2 1385 0 discriminator 1
	add 3,11,5
	addi 4,1,8
	stw 5,48(1)
	stw 10,60(1)
	stw 11,52(1)
	bl getUSHORT_5_5_5_1
.LVL1679:
	lwz 5,48(1)
	lwz 10,60(1)
	lwz 11,52(1)
	beq- 4,.L1160
	lbz 3,8(1)
.LVL1680:
	lbz 4,10(1)
	stb 3,10(1)
	stb 4,8(1)
.LVL1681:
.L1160:
	.loc 2 1385 0 discriminator 2
	addi 3,1,8
	addi 4,1,24
	stw 5,48(1)
	stw 10,60(1)
	stw 11,52(1)
	bl putA8
.LVL1682:
	lwz 11,52(1)
	lwz 10,60(1)
	lwz 5,48(1)
	b .L1159
.LVL1683:
.L1156:
	add 5,5,30
	addi 19,19,1
.LVL1684:
	b .L1164
.LVL1685:
.L3280:
	lwz 8,40(1)
.LBE3048:
.LBE3082:
	.loc 2 1385 0 discriminator 3
	addi 20,20,1
.LVL1686:
	add 15,15,31
	add 14,14,8
	b .L1165
.L1175:
	lwz 14,32(1)
	addi 10,10,1
.LVL1687:
	lwz 16,28(1)
	add 17,17,14
.LVL1688:
.L1140:
	.loc 2 1385 0 discriminator 1
	cmpw 7,10,21
	blt+ 7,$+8
	b .L238
	add 0,16,27
	.loc 2 1385 0
	mr 14,17
	stw 0,28(1)
	li 15,0
	li 20,0
.LVL1689:
.L1177:
	.loc 2 1385 0 discriminator 1
	cmpw 7,20,22
	bge- 7,.L1175
	add 12,15,31
	.loc 2 1385 0
	mr 19,16
	stw 12,36(1)
	mr 5,14
.L1176:
	.loc 2 1385 0 discriminator 1
	lwz 8,28(1)
	cmplw 7,19,8
	beq- 7,.L3282
.LVL1690:
.LBB3083:
	.loc 2 1385 0 discriminator 2
	cmplw 7,19,23
	ble+ 7,$+8
	b .L238
	cmplw 7,19,25
	blt- 7,.L1166
	.loc 2 1385 0
	mr 18,15
	li 11,0
	b .L1167
.L1166:
.LVL1691:
.LBB3077:
.LBB3078:
	.loc 1 343 0 is_stmt 1 discriminator 1
	lwz 4,24(1)
	lwz 6,44(1)
	add 4,4,6
	stw 4,24(1)
.LBE3078:
.LBE3077:
	.loc 2 1385 0 discriminator 1
	b .L1168
.LVL1692:
.L1173:
.LBB3079:
	.loc 2 1385 0 is_stmt 0 discriminator 2
	cmplw 7,18,26
	bge- 7,.L3283
.L1169:
.LVL1693:
.LBB3075:
.LBB3076:
	.loc 1 343 0 is_stmt 1
	lwz 4,24(1)
	add 4,4,28
	stw 4,24(1)
.LVL1694:
.L1171:
	add 11,11,29
	addi 18,18,1
.LVL1695:
.L1167:
.LBE3076:
.LBE3075:
.LBE3079:
	.loc 2 1385 0 discriminator 1
	lwz 7,36(1)
	cmplw 7,18,7
	bne+ 7,.L1173
	b .L1168
.LVL1696:
.L3283:
.LBB3080:
	.loc 2 1385 0 is_stmt 0 discriminator 2
	cmplw 7,18,24
	bgt+ 7,.L1169
	.loc 2 1385 0 discriminator 1
	add 3,11,5
	addi 4,1,8
	stw 5,48(1)
	stw 10,60(1)
	stw 11,52(1)
	bl getUSHORT_5_5_5_1
.LVL1697:
	lwz 5,48(1)
	lwz 10,60(1)
	lwz 11,52(1)
	beq- 4,.L1172
	lbz 3,8(1)
.LVL1698:
	lbz 4,10(1)
	stb 3,10(1)
	stb 4,8(1)
.LVL1699:
.L1172:
	.loc 2 1385 0 discriminator 2
	addi 3,1,8
	addi 4,1,24
	stw 5,48(1)
	stw 10,60(1)
	stw 11,52(1)
	bl putIA4
.LVL1700:
	lwz 11,52(1)
	lwz 10,60(1)
	lwz 5,48(1)
	b .L1171
.LVL1701:
.L1168:
	add 5,5,30
	addi 19,19,1
.LVL1702:
	b .L1176
.LVL1703:
.L3282:
	lwz 9,40(1)
.LBE3080:
.LBE3083:
	.loc 2 1385 0 discriminator 3
	addi 20,20,1
.LVL1704:
	add 15,15,31
	add 14,14,9
	b .L1177
.LVL1705:
.L1131:
	mullw 6,28,31
	.loc 2 1385 0 discriminator 4
	cmplwi 7,18,6406
	mullw 7,30,27
.LVL1706:
	stw 6,28(1)
	mullw 8,29,31
	stw 7,40(1)
	stw 8,44(1)
	bne- 7,.L3141
	mr 17,15
.LBB3084:
	.loc 2 1385 0
	li 16,0
	li 10,0
.LVL1707:
.LBB3085:
	cmpwi 4,20,0
	b .L1180
.LVL1708:
.L3141:
	mr 14,15
.LBE3085:
.LBE3084:
.LBB3092:
	li 17,0
	li 10,0
.LVL1709:
.LBB3093:
	cmpwi 4,20,0
	b .L1181
.LVL1710:
.L1191:
	lwz 8,40(1)
.LBE3093:
.LBE3092:
	.loc 2 1385 0 discriminator 3
	addi 10,10,1
.LVL1711:
	lwz 16,32(1)
	add 17,17,8
.LVL1712:
.L1180:
	.loc 2 1385 0 discriminator 1
	cmpw 7,10,21
	blt+ 7,$+8
	b .L238
	add 9,16,27
	.loc 2 1385 0
	mr 20,17
	stw 9,32(1)
	li 15,0
	li 14,0
.LVL1713:
.L1193:
	.loc 2 1385 0 discriminator 1
	cmpw 7,14,22
	bge- 7,.L1191
	add 7,15,31
	.loc 2 1385 0
	mr 19,16
	stw 7,36(1)
	mr 5,20
.L1192:
	.loc 2 1385 0 discriminator 1
	lwz 0,32(1)
	cmplw 7,19,0
	beq- 7,.L3284
.LVL1714:
.LBB3100:
	.loc 2 1385 0 discriminator 2
	cmplw 7,19,23
	ble+ 7,$+8
	b .L238
	cmplw 7,19,25
	blt- 7,.L1182
	.loc 2 1385 0
	mr 18,15
	li 11,0
	b .L1183
.L1182:
.LVL1715:
.LBB3088:
.LBB3089:
	.loc 1 343 0 is_stmt 1 discriminator 1
	lwz 4,24(1)
	lwz 9,28(1)
	add 4,4,9
	stw 4,24(1)
.LBE3089:
.LBE3088:
	.loc 2 1385 0 discriminator 1
	b .L1184
.LVL1716:
.L1189:
.LBB3090:
	.loc 2 1385 0 is_stmt 0 discriminator 2
	cmplw 7,18,26
	bge- 7,.L3285
.L1185:
.LVL1717:
.LBB3086:
.LBB3087:
	.loc 1 343 0 is_stmt 1
	lwz 4,24(1)
	add 4,4,28
	stw 4,24(1)
.LVL1718:
.L1187:
	add 11,11,29
	addi 18,18,1
.LVL1719:
.L1183:
.LBE3087:
.LBE3086:
.LBE3090:
	.loc 2 1385 0 discriminator 1
	lwz 12,36(1)
	cmplw 7,18,12
	bne+ 7,.L1189
	b .L1184
.LVL1720:
.L3285:
.LBB3091:
	.loc 2 1385 0 is_stmt 0 discriminator 2
	cmplw 7,18,24
	bgt+ 7,.L1185
	.loc 2 1385 0 discriminator 1
	add 3,11,5
	addi 4,1,8
	stw 5,48(1)
	stw 10,60(1)
	stw 11,52(1)
	bl getUSHORT_5_5_5_1
.LVL1721:
	lwz 5,48(1)
	lwz 10,60(1)
	lwz 11,52(1)
	beq- 4,.L1188
	lbz 3,8(1)
.LVL1722:
	lbz 4,10(1)
	stb 3,10(1)
	stb 4,8(1)
.LVL1723:
.L1188:
	.loc 2 1385 0 discriminator 2
	addi 3,1,8
	addi 4,1,24
	stw 5,48(1)
	stw 10,60(1)
	stw 11,52(1)
	bl putIA8A
.LVL1724:
	lwz 11,52(1)
	lwz 10,60(1)
	lwz 5,48(1)
	b .L1187
.LVL1725:
.L1184:
	add 5,5,30
	addi 19,19,1
.LVL1726:
	b .L1192
.LVL1727:
.L3284:
	lwz 6,44(1)
.LBE3091:
.LBE3100:
	.loc 2 1385 0 discriminator 3
	addi 14,14,1
.LVL1728:
	add 15,15,31
	add 20,20,6
	b .L1193
.LVL1729:
.L1203:
	lwz 9,40(1)
	addi 10,10,1
.LVL1730:
	lwz 17,32(1)
	add 14,14,9
.LVL1731:
.L1181:
	.loc 2 1385 0 discriminator 1
	cmpw 7,10,21
	blt+ 7,$+8
	b .L238
	add 12,17,27
	.loc 2 1385 0
	mr 16,14
	stw 12,32(1)
	li 15,0
	li 20,0
.LVL1732:
.L1205:
	.loc 2 1385 0 discriminator 1
	cmpw 7,20,22
	bge- 7,.L1203
	add 8,15,31
	.loc 2 1385 0
	mr 19,17
	stw 8,36(1)
	mr 5,16
.L1204:
	.loc 2 1385 0 discriminator 1
	lwz 6,32(1)
	cmplw 7,19,6
	beq- 7,.L3286
.LVL1733:
.LBB3101:
	.loc 2 1385 0 discriminator 2
	cmplw 7,19,23
	ble+ 7,$+8
	b .L238
	cmplw 7,19,25
	blt- 7,.L1194
	.loc 2 1385 0
	mr 18,15
	li 11,0
	b .L1195
.L1194:
.LVL1734:
.LBB3096:
.LBB3097:
	.loc 1 343 0 is_stmt 1 discriminator 1
	lwz 4,24(1)
	lwz 12,28(1)
	add 4,4,12
	stw 4,24(1)
.LBE3097:
.LBE3096:
	.loc 2 1385 0 discriminator 1
	b .L1196
.LVL1735:
.L1201:
.LBB3098:
	.loc 2 1385 0 is_stmt 0 discriminator 2
	cmplw 7,18,26
	bge- 7,.L3287
.L1197:
.LVL1736:
.LBB3094:
.LBB3095:
	.loc 1 343 0 is_stmt 1
	lwz 4,24(1)
	add 4,4,28
	stw 4,24(1)
.LVL1737:
.L1199:
	add 11,11,29
	addi 18,18,1
.LVL1738:
.L1195:
.LBE3095:
.LBE3094:
.LBE3098:
	.loc 2 1385 0 discriminator 1
	lwz 0,36(1)
	cmplw 7,18,0
	bne+ 7,.L1201
	b .L1196
.LVL1739:
.L3287:
.LBB3099:
	.loc 2 1385 0 is_stmt 0 discriminator 2
	cmplw 7,18,24
	bgt+ 7,.L1197
	.loc 2 1385 0 discriminator 1
	add 3,11,5
	addi 4,1,8
	stw 5,48(1)
	stw 10,60(1)
	stw 11,52(1)
	bl getUSHORT_5_5_5_1
.LVL1740:
	lwz 5,48(1)
	lwz 10,60(1)
	lwz 11,52(1)
	beq- 4,.L1200
	lbz 3,8(1)
.LVL1741:
	lbz 4,10(1)
	stb 3,10(1)
	stb 4,8(1)
.LVL1742:
.L1200:
	.loc 2 1385 0 discriminator 2
	addi 3,1,8
	addi 4,1,24
	stw 5,48(1)
	stw 10,60(1)
	stw 11,52(1)
	bl putIA8
.LVL1743:
	lwz 11,52(1)
	lwz 10,60(1)
	lwz 5,48(1)
	b .L1199
.LVL1744:
.L1196:
	add 5,5,30
	addi 19,19,1
.LVL1745:
	b .L1204
.LVL1746:
.L3286:
	lwz 7,44(1)
.LBE3099:
.LBE3101:
	.loc 2 1385 0 discriminator 3
	addi 20,20,1
.LVL1747:
	add 15,15,31
	add 16,16,7
	b .L1205
.L1215:
	lwz 12,32(1)
	addi 10,10,1
.LVL1748:
	lwz 16,28(1)
	add 17,17,12
.LVL1749:
.L1138:
	.loc 2 1385 0 discriminator 1
	cmpw 7,10,21
	blt+ 7,$+8
	b .L238
	add 0,16,27
	.loc 2 1385 0
	mr 14,17
	stw 0,28(1)
	li 15,0
	li 20,0
.LVL1750:
.L1217:
	.loc 2 1385 0 discriminator 1
	cmpw 7,20,22
	bge- 7,.L1215
	add 9,15,31
	.loc 2 1385 0
	mr 19,16
	stw 9,36(1)
	mr 5,14
.L1216:
	.loc 2 1385 0 discriminator 1
	lwz 7,28(1)
	cmplw 7,19,7
	beq- 7,.L3288
.LVL1751:
.LBB3102:
	.loc 2 1385 0 discriminator 2
	cmplw 7,19,23
	ble+ 7,$+8
	b .L238
	cmplw 7,19,25
	blt- 7,.L1206
	.loc 2 1385 0
	mr 18,15
	li 11,0
	b .L1207
.L1206:
.LVL1752:
.LBB3061:
.LBB3062:
	.loc 1 343 0 is_stmt 1 discriminator 1
	lwz 4,24(1)
	lwz 0,44(1)
	add 4,4,0
	stw 4,24(1)
.LBE3062:
.LBE3061:
	.loc 2 1385 0 discriminator 1
	b .L1208
.LVL1753:
.L1213:
.LBB3063:
	.loc 2 1385 0 is_stmt 0 discriminator 2
	cmplw 7,18,26
	bge- 7,.L3289
.L1209:
.LVL1754:
.LBB3059:
.LBB3060:
	.loc 1 343 0 is_stmt 1
	lwz 4,24(1)
	add 4,4,28
	stw 4,24(1)
.LVL1755:
.L1211:
	add 11,11,29
	addi 18,18,1
.LVL1756:
.L1207:
.LBE3060:
.LBE3059:
.LBE3063:
	.loc 2 1385 0 discriminator 1
	lwz 6,36(1)
	cmplw 7,18,6
	bne+ 7,.L1213
	b .L1208
.LVL1757:
.L3289:
.LBB3064:
	.loc 2 1385 0 is_stmt 0 discriminator 2
	cmplw 7,18,24
	bgt+ 7,.L1209
	.loc 2 1385 0 discriminator 1
	add 3,11,5
	addi 4,1,8
	stw 5,48(1)
	stw 10,60(1)
	stw 11,52(1)
	bl getUSHORT_5_5_5_1
.LVL1758:
	lwz 5,48(1)
	lwz 10,60(1)
	lwz 11,52(1)
	beq- 4,.L1212
	lbz 3,8(1)
.LVL1759:
	lbz 4,10(1)
	stb 3,10(1)
	stb 4,8(1)
.LVL1760:
.L1212:
	.loc 2 1385 0 discriminator 2
	addi 3,1,8
	addi 4,1,24
	stw 5,48(1)
	stw 10,60(1)
	stw 11,52(1)
	bl put5A3
.LVL1761:
	lwz 11,52(1)
	lwz 10,60(1)
	lwz 5,48(1)
	b .L1211
.LVL1762:
.L1208:
	add 5,5,30
	addi 19,19,1
.LVL1763:
	b .L1216
.LVL1764:
.L3288:
	lwz 8,40(1)
.LBE3064:
.LBE3102:
	.loc 2 1385 0 discriminator 3
	addi 20,20,1
.LVL1765:
	add 15,15,31
	add 14,14,8
	b .L1217
.L1227:
	lwz 14,32(1)
	addi 10,10,1
.LVL1766:
	lwz 16,28(1)
	add 17,17,14
.LVL1767:
.L1139:
	.loc 2 1385 0 discriminator 1
	cmpw 7,10,21
	blt+ 7,$+8
	b .L238
	add 0,16,27
	.loc 2 1385 0
	mr 14,17
	stw 0,28(1)
	li 15,0
	li 20,0
.LVL1768:
.L1229:
	.loc 2 1385 0 discriminator 1
	cmpw 7,20,22
	bge- 7,.L1227
	add 12,15,31
	.loc 2 1385 0
	mr 19,16
	stw 12,36(1)
	mr 5,14
.L1228:
	.loc 2 1385 0 discriminator 1
	lwz 8,28(1)
	cmplw 7,19,8
	beq- 7,.L3290
.LVL1769:
.LBB3103:
	.loc 2 1385 0 discriminator 2
	cmplw 7,19,23
	ble+ 7,$+8
	b .L238
	cmplw 7,19,25
	blt- 7,.L1218
	.loc 2 1385 0
	mr 18,15
	li 11,0
	b .L1219
.L1218:
.LVL1770:
.LBB3069:
.LBB3070:
	.loc 1 343 0 is_stmt 1 discriminator 1
	lwz 4,24(1)
	lwz 6,44(1)
	add 4,4,6
	stw 4,24(1)
.LBE3070:
.LBE3069:
	.loc 2 1385 0 discriminator 1
	b .L1220
.LVL1771:
.L1225:
.LBB3071:
	.loc 2 1385 0 is_stmt 0 discriminator 2
	cmplw 7,18,26
	bge- 7,.L3291
.L1221:
.LVL1772:
.LBB3067:
.LBB3068:
	.loc 1 343 0 is_stmt 1
	lwz 4,24(1)
	add 4,4,28
	stw 4,24(1)
.LVL1773:
.L1223:
	add 11,11,29
	addi 18,18,1
.LVL1774:
.L1219:
.LBE3068:
.LBE3067:
.LBE3071:
	.loc 2 1385 0 discriminator 1
	lwz 7,36(1)
	cmplw 7,18,7
	bne+ 7,.L1225
	b .L1220
.LVL1775:
.L3291:
.LBB3072:
	.loc 2 1385 0 is_stmt 0 discriminator 2
	cmplw 7,18,24
	bgt+ 7,.L1221
	.loc 2 1385 0 discriminator 1
	add 3,11,5
	addi 4,1,8
	stw 5,48(1)
	stw 10,60(1)
	stw 11,52(1)
	bl getUSHORT_5_5_5_1
.LVL1776:
	lwz 5,48(1)
	lwz 10,60(1)
	lwz 11,52(1)
	beq- 4,.L1224
	lbz 3,8(1)
.LVL1777:
	lbz 4,10(1)
	stb 3,10(1)
	stb 4,8(1)
.LVL1778:
.L1224:
	.loc 2 1385 0 discriminator 2
	addi 3,1,8
	addi 4,1,24
	stw 5,48(1)
	stw 10,60(1)
	stw 11,52(1)
	bl put565
.LVL1779:
	lwz 11,52(1)
	lwz 10,60(1)
	lwz 5,48(1)
	b .L1223
.LVL1780:
.L1220:
	add 5,5,30
	addi 19,19,1
.LVL1781:
	b .L1228
.LVL1782:
.L3290:
	lwz 9,40(1)
.LBE3072:
.LBE3103:
	.loc 2 1385 0 discriminator 3
	addi 20,20,1
.LVL1783:
	add 15,15,31
	add 14,14,9
	b .L1229
.LVL1784:
.L1249:
	lwz 8,44(1)
	addi 14,14,1
.LVL1785:
	mr 19,17
	add 15,15,8
.LVL1786:
.L1137:
	.loc 2 1385 0 discriminator 1
	cmpw 7,14,21
	blt+ 7,$+8
	b .L238
	.loc 2 1385 0
	mr 18,15
	li 20,0
	li 16,0
	add 17,19,27
.L1251:
.LVL1787:
	.loc 2 1385 0 discriminator 1
	cmpw 7,16,22
	bge- 7,.L1249
	add 7,20,31
	.loc 2 1385 0
	mr 9,19
	stw 7,32(1)
	mr 8,18
.L1250:
	.loc 2 1385 0 discriminator 1
	cmplw 7,9,17
	beq- 7,.L3292
.LVL1788:
.LBB3104:
	.loc 2 1385 0 discriminator 2
	cmplw 7,9,23
	ble+ 7,$+8
	b .L238
	cmplw 7,9,25
	blt- 7,.L1230
	.loc 2 1385 0
	mr 10,20
	li 7,0
	b .L1231
.L1230:
.LVL1789:
.LBB3053:
.LBB3054:
	.loc 1 343 0 is_stmt 1 discriminator 1
	lwz 10,24(1)
	lwz 6,28(1)
	add 10,10,6
	stw 10,24(1)
.LBE3054:
.LBE3053:
	.loc 2 1385 0 discriminator 1
	b .L1232
.LVL1790:
.L1237:
.LBB3055:
	.loc 2 1385 0 is_stmt 0 discriminator 2
	cmplw 7,10,26
	bge- 7,.L3293
.L1233:
.LVL1791:
.LBB3051:
.LBB3052:
	.loc 1 343 0 is_stmt 1
	lwz 6,24(1)
	add 6,6,28
	stw 6,24(1)
.LVL1792:
.L1235:
	add 7,7,29
	addi 10,10,1
.L1231:
.LBE3052:
.LBE3051:
.LBE3055:
	.loc 2 1385 0 discriminator 1
	lwz 12,32(1)
	cmplw 7,10,12
	bne+ 7,.L1237
	b .L1232
.LVL1793:
.L3293:
.LBB3056:
	.loc 2 1385 0 is_stmt 0 discriminator 2
	cmplw 7,10,24
	bgt+ 7,.L1233
	.loc 2 1385 0 discriminator 1
	add 3,7,8
	addi 4,1,8
	stw 7,52(1)
	stw 8,48(1)
	stw 9,56(1)
	stw 10,60(1)
	bl getUSHORT_5_5_5_1
.LVL1794:
	lwz 7,52(1)
	lwz 8,48(1)
	lwz 9,56(1)
	lwz 10,60(1)
	beq- 4,.L1236
	lbz 5,8(1)
.LVL1795:
	lbz 6,10(1)
	stb 5,10(1)
	stb 6,8(1)
.LVL1796:
.L1236:
	.loc 2 1385 0 discriminator 2
	addi 3,1,8
	addi 4,1,24
	stw 7,52(1)
	stw 8,48(1)
	stw 9,56(1)
	stw 10,60(1)
	bl putAR
.LVL1797:
	lwz 10,60(1)
	lwz 9,56(1)
	lwz 8,48(1)
	lwz 7,52(1)
	b .L1235
.L1232:
	add 8,8,30
	addi 9,9,1
	b .L1250
.L3292:
	add 0,20,31
.LBE3056:
.LBE3104:
	.loc 2 1385 0
	mr 10,19
	stw 0,36(1)
	li 8,0
.L1239:
	.loc 2 1385 0 discriminator 1
	cmplw 7,10,17
	beq- 7,.L3294
.LVL1798:
.LBB3105:
	.loc 2 1385 0 discriminator 2
	cmplw 7,10,25
	blt- 7,.L1240
	add 6,8,18
	.loc 2 1385 0
	mr 9,20
	li 7,0
	stw 6,32(1)
	b .L1241
.L1240:
.LVL1799:
.LBB3106:
.LBB3107:
	.loc 1 343 0 is_stmt 1 discriminator 1
	lwz 9,24(1)
	lwz 7,28(1)
	add 9,9,7
	stw 9,24(1)
.LBE3107:
.LBE3106:
	.loc 2 1385 0 discriminator 1
	b .L1242
.LVL1800:
.L1247:
.LBB3108:
	.loc 2 1385 0 is_stmt 0 discriminator 2
	cmplw 7,9,26
	bge- 7,.L3295
.L1243:
.LVL1801:
.LBB3109:
.LBB3110:
	.loc 1 343 0 is_stmt 1
	lwz 6,24(1)
	add 6,6,28
	stw 6,24(1)
.LVL1802:
.L1245:
	add 7,7,29
	addi 9,9,1
.L1241:
.LBE3110:
.LBE3109:
.LBE3108:
	.loc 2 1385 0 discriminator 1
	lwz 0,36(1)
	cmplw 7,9,0
	bne+ 7,.L1247
	b .L1242
.LVL1803:
.L3295:
.LBB3111:
	.loc 2 1385 0 is_stmt 0 discriminator 2
	cmplw 7,9,24
	bgt+ 7,.L1243
	.loc 2 1385 0 discriminator 1
	lwz 12,32(1)
	addi 4,1,8
	stw 7,52(1)
	add 3,7,12
	stw 8,48(1)
	stw 9,56(1)
	stw 10,60(1)
	bl getUSHORT_5_5_5_1
.LVL1804:
	lwz 7,52(1)
	lwz 8,48(1)
	lwz 9,56(1)
	lwz 10,60(1)
	beq- 4,.L1246
	lbz 5,8(1)
.LVL1805:
	lbz 6,10(1)
	stb 5,10(1)
	stb 6,8(1)
.LVL1806:
.L1246:
	.loc 2 1385 0 discriminator 2
	addi 3,1,8
	addi 4,1,24
	stw 7,52(1)
	stw 8,48(1)
	stw 9,56(1)
	stw 10,60(1)
	bl putGB
.LVL1807:
	lwz 10,60(1)
	lwz 9,56(1)
	lwz 8,48(1)
	lwz 7,52(1)
	b .L1245
.L1242:
	add 8,8,30
	addi 10,10,1
	b .L1239
.L3294:
	lwz 6,40(1)
.LBE3111:
.LBE3105:
	.loc 2 1385 0 discriminator 3
	addi 16,16,1
.LVL1808:
	add 20,20,31
	add 18,18,6
	b .L1251
.LVL1809:
.L380:
	.loc 2 1387 0 is_stmt 1
	cmplwi 7,19,4
	beq- 7,.L1252
	bgt- 7,.L1253
	cmplwi 7,19,2
	beq- 7,.L1254
	bgt- 7,.L1255
	cmplwi 7,19,1
	beq+ 7,$+8
	b .L238
	mullw 10,29,31
.LVL1810:
	mr 17,15
.LBB3112:
	li 16,0
.LBB3113:
	cmpwi 4,20,0
.LBE3113:
	mullw 8,28,31
	stw 10,40(1)
	li 10,0
	mullw 9,30,27
	stw 8,44(1)
	stw 9,32(1)
	b .L1265
.LVL1811:
.L1253:
.LBE3112:
	cmplwi 7,19,6
	beq- 7,.L1257
	blt- 7,.L1258
	cmplwi 7,19,39
	beq+ 7,$+8
	b .L238
	mullw 10,30,27
.LVL1812:
	mr 17,15
.LBB3120:
	li 16,0
.LBB3121:
	cmpwi 4,20,0
.LBE3121:
	mullw 9,28,31
	stw 10,32(1)
	li 10,0
	mullw 12,29,31
	stw 9,44(1)
	stw 12,40(1)
	b .L1260
.LVL1813:
.L1257:
.LBE3120:
.LBB3128:
	mullw 14,28,31
	li 19,0
.LVL1814:
.LBB3129:
	cmpwi 4,20,0
	mullw 0,30,27
.LBE3129:
	stw 14,28(1)
	li 14,0
	mullw 6,29,31
	stw 0,44(1)
	stw 6,40(1)
	b .L1261
.LVL1815:
.L1258:
.LBE3128:
.LBB3136:
	mullw 7,28,31
.LVL1816:
	mr 17,15
	li 16,0
	li 10,0
.LVL1817:
.LBB3137:
	cmpwi 4,20,0
	mullw 8,30,27
.LBE3137:
	stw 7,44(1)
	mullw 9,29,31
	stw 8,32(1)
	stw 9,40(1)
	b .L1262
.LVL1818:
.L1252:
.LBE3136:
.LBB3144:
	mullw 10,28,31
.LVL1819:
	mr 17,15
	li 16,0
.LBB3145:
	cmpwi 4,20,0
	mullw 12,30,27
.LBE3145:
	stw 10,44(1)
	li 10,0
	mullw 14,29,31
	stw 12,32(1)
	stw 14,40(1)
	b .L1263
.LVL1820:
.L1254:
.LBE3144:
.LBB3152:
	mullw 0,28,31
	mr 17,15
	li 16,0
	li 10,0
.LVL1821:
.LBB3153:
	cmpwi 4,20,0
	mullw 6,30,27
.LBE3153:
	stw 0,44(1)
	mullw 7,29,31
.LVL1822:
	stw 6,32(1)
	stw 7,40(1)
	b .L1264
.LVL1823:
.L1275:
	lwz 9,32(1)
.LBE3152:
	.loc 2 1387 0 is_stmt 0 discriminator 3
	addi 10,10,1
.LVL1824:
	lwz 16,28(1)
	add 17,17,9
.LVL1825:
.L1265:
	.loc 2 1387 0 discriminator 1
	cmpw 7,10,21
	blt+ 7,$+8
	b .L238
	add 12,16,27
	.loc 2 1387 0
	mr 14,17
	stw 12,28(1)
	li 15,0
	li 20,0
.LVL1826:
.L1277:
	.loc 2 1387 0 discriminator 1
	cmpw 7,20,22
	bge- 7,.L1275
	add 8,15,31
	.loc 2 1387 0
	mr 19,16
	stw 8,36(1)
	mr 5,14
.L1276:
	.loc 2 1387 0 discriminator 1
	lwz 6,28(1)
	cmplw 7,19,6
	beq- 7,.L3296
.LVL1827:
.LBB3160:
	.loc 2 1387 0 discriminator 2
	cmplw 7,19,23
	ble+ 7,$+8
	b .L238
	cmplw 7,19,25
	blt- 7,.L1266
	.loc 2 1387 0
	mr 18,15
	li 11,0
	b .L1267
.L1266:
.LVL1828:
.LBB3116:
.LBB3117:
	.loc 1 343 0 is_stmt 1 discriminator 1
	lwz 4,24(1)
	lwz 12,44(1)
	add 4,4,12
	stw 4,24(1)
.LBE3117:
.LBE3116:
	.loc 2 1387 0 discriminator 1
	b .L1268
.LVL1829:
.L1273:
.LBB3118:
	.loc 2 1387 0 is_stmt 0 discriminator 2
	cmplw 7,18,26
	bge- 7,.L3297
.L1269:
.LVL1830:
.LBB3114:
.LBB3115:
	.loc 1 343 0 is_stmt 1
	lwz 4,24(1)
	add 4,4,28
	stw 4,24(1)
.LVL1831:
.L1271:
	add 11,11,29
	addi 18,18,1
.LVL1832:
.L1267:
.LBE3115:
.LBE3114:
.LBE3118:
	.loc 2 1387 0 discriminator 1
	lwz 0,36(1)
	cmplw 7,18,0
	bne+ 7,.L1273
	b .L1268
.LVL1833:
.L3297:
.LBB3119:
	.loc 2 1387 0 is_stmt 0 discriminator 2
	cmplw 7,18,24
	bgt+ 7,.L1269
	.loc 2 1387 0 discriminator 1
	add 3,11,5
	addi 4,1,8
	stw 5,48(1)
	stw 10,60(1)
	stw 11,52(1)
	bl getUSHORT_1_5_5_5_REV
.LVL1834:
	lwz 5,48(1)
	lwz 10,60(1)
	lwz 11,52(1)
	beq- 4,.L1272
	lbz 3,8(1)
.LVL1835:
	lbz 4,10(1)
	stb 3,10(1)
	stb 4,8(1)
.LVL1836:
.L1272:
	.loc 2 1387 0 discriminator 2
	addi 3,1,8
	addi 4,1,24
	stw 5,48(1)
	stw 10,60(1)
	stw 11,52(1)
	bl putI8
.LVL1837:
	lwz 11,52(1)
	lwz 10,60(1)
	lwz 5,48(1)
	b .L1271
.LVL1838:
.L1268:
	add 5,5,30
	addi 19,19,1
.LVL1839:
	b .L1276
.LVL1840:
.L3296:
	lwz 7,40(1)
.LBE3119:
.LBE3160:
	.loc 2 1387 0 discriminator 3
	addi 20,20,1
.LVL1841:
	add 15,15,31
	add 14,14,7
	b .L1277
.L1287:
	lwz 12,32(1)
	addi 10,10,1
.LVL1842:
	lwz 16,28(1)
	add 17,17,12
.LVL1843:
.L1260:
	.loc 2 1387 0 discriminator 1
	cmpw 7,10,21
	blt+ 7,$+8
	b .L238
	add 0,16,27
	.loc 2 1387 0
	mr 14,17
	stw 0,28(1)
	li 15,0
	li 20,0
.LVL1844:
.L1289:
	.loc 2 1387 0 discriminator 1
	cmpw 7,20,22
	bge- 7,.L1287
	add 9,15,31
	.loc 2 1387 0
	mr 19,16
	stw 9,36(1)
	mr 5,14
.L1288:
	.loc 2 1387 0 discriminator 1
	lwz 7,28(1)
	cmplw 7,19,7
	beq- 7,.L3298
.LVL1845:
.LBB3161:
	.loc 2 1387 0 discriminator 2
	cmplw 7,19,23
	ble+ 7,$+8
	b .L238
	cmplw 7,19,25
	blt- 7,.L1278
	.loc 2 1387 0
	mr 18,15
	li 11,0
	b .L1279
.L1278:
.LVL1846:
.LBB3124:
.LBB3125:
	.loc 1 343 0 is_stmt 1 discriminator 1
	lwz 4,24(1)
	lwz 0,44(1)
	add 4,4,0
	stw 4,24(1)
.LBE3125:
.LBE3124:
	.loc 2 1387 0 discriminator 1
	b .L1280
.LVL1847:
.L1285:
.LBB3126:
	.loc 2 1387 0 is_stmt 0 discriminator 2
	cmplw 7,18,26
	bge- 7,.L3299
.L1281:
.LVL1848:
.LBB3122:
.LBB3123:
	.loc 1 343 0 is_stmt 1
	lwz 4,24(1)
	add 4,4,28
	stw 4,24(1)
.LVL1849:
.L1283:
	add 11,11,29
	addi 18,18,1
.LVL1850:
.L1279:
.LBE3123:
.LBE3122:
.LBE3126:
	.loc 2 1387 0 discriminator 1
	lwz 6,36(1)
	cmplw 7,18,6
	bne+ 7,.L1285
	b .L1280
.LVL1851:
.L3299:
.LBB3127:
	.loc 2 1387 0 is_stmt 0 discriminator 2
	cmplw 7,18,24
	bgt+ 7,.L1281
	.loc 2 1387 0 discriminator 1
	add 3,11,5
	addi 4,1,8
	stw 5,48(1)
	stw 10,60(1)
	stw 11,52(1)
	bl getUSHORT_1_5_5_5_REV
.LVL1852:
	lwz 5,48(1)
	lwz 10,60(1)
	lwz 11,52(1)
	beq- 4,.L1284
	lbz 3,8(1)
.LVL1853:
	lbz 4,10(1)
	stb 3,10(1)
	stb 4,8(1)
.LVL1854:
.L1284:
	.loc 2 1387 0 discriminator 2
	addi 3,1,8
	addi 4,1,24
	stw 5,48(1)
	stw 10,60(1)
	stw 11,52(1)
	bl putA8
.LVL1855:
	lwz 11,52(1)
	lwz 10,60(1)
	lwz 5,48(1)
	b .L1283
.LVL1856:
.L1280:
	add 5,5,30
	addi 19,19,1
.LVL1857:
	b .L1288
.LVL1858:
.L3298:
	lwz 8,40(1)
.LBE3127:
.LBE3161:
	.loc 2 1387 0 discriminator 3
	addi 20,20,1
.LVL1859:
	add 15,15,31
	add 14,14,8
	b .L1289
.L1299:
	lwz 14,32(1)
	addi 10,10,1
.LVL1860:
	lwz 16,28(1)
	add 17,17,14
.LVL1861:
.L1264:
	.loc 2 1387 0 discriminator 1
	cmpw 7,10,21
	blt+ 7,$+8
	b .L238
	add 0,16,27
	.loc 2 1387 0
	mr 14,17
	stw 0,28(1)
	li 15,0
	li 20,0
.LVL1862:
.L1301:
	.loc 2 1387 0 discriminator 1
	cmpw 7,20,22
	bge- 7,.L1299
	add 12,15,31
	.loc 2 1387 0
	mr 19,16
	stw 12,36(1)
	mr 5,14
.L1300:
	.loc 2 1387 0 discriminator 1
	lwz 8,28(1)
	cmplw 7,19,8
	beq- 7,.L3300
.LVL1863:
.LBB3162:
	.loc 2 1387 0 discriminator 2
	cmplw 7,19,23
	ble+ 7,$+8
	b .L238
	cmplw 7,19,25
	blt- 7,.L1290
	.loc 2 1387 0
	mr 18,15
	li 11,0
	b .L1291
.L1290:
.LVL1864:
.LBB3156:
.LBB3157:
	.loc 1 343 0 is_stmt 1 discriminator 1
	lwz 4,24(1)
	lwz 6,44(1)
	add 4,4,6
	stw 4,24(1)
.LBE3157:
.LBE3156:
	.loc 2 1387 0 discriminator 1
	b .L1292
.LVL1865:
.L1297:
.LBB3158:
	.loc 2 1387 0 is_stmt 0 discriminator 2
	cmplw 7,18,26
	bge- 7,.L3301
.L1293:
.LVL1866:
.LBB3154:
.LBB3155:
	.loc 1 343 0 is_stmt 1
	lwz 4,24(1)
	add 4,4,28
	stw 4,24(1)
.LVL1867:
.L1295:
	add 11,11,29
	addi 18,18,1
.LVL1868:
.L1291:
.LBE3155:
.LBE3154:
.LBE3158:
	.loc 2 1387 0 discriminator 1
	lwz 7,36(1)
	cmplw 7,18,7
	bne+ 7,.L1297
	b .L1292
.LVL1869:
.L3301:
.LBB3159:
	.loc 2 1387 0 is_stmt 0 discriminator 2
	cmplw 7,18,24
	bgt+ 7,.L1293
	.loc 2 1387 0 discriminator 1
	add 3,11,5
	addi 4,1,8
	stw 5,48(1)
	stw 10,60(1)
	stw 11,52(1)
	bl getUSHORT_1_5_5_5_REV
.LVL1870:
	lwz 5,48(1)
	lwz 10,60(1)
	lwz 11,52(1)
	beq- 4,.L1296
	lbz 3,8(1)
.LVL1871:
	lbz 4,10(1)
	stb 3,10(1)
	stb 4,8(1)
.LVL1872:
.L1296:
	.loc 2 1387 0 discriminator 2
	addi 3,1,8
	addi 4,1,24
	stw 5,48(1)
	stw 10,60(1)
	stw 11,52(1)
	bl putIA4
.LVL1873:
	lwz 11,52(1)
	lwz 10,60(1)
	lwz 5,48(1)
	b .L1295
.LVL1874:
.L1292:
	add 5,5,30
	addi 19,19,1
.LVL1875:
	b .L1300
.LVL1876:
.L3300:
	lwz 9,40(1)
.LBE3159:
.LBE3162:
	.loc 2 1387 0 discriminator 3
	addi 20,20,1
.LVL1877:
	add 15,15,31
	add 14,14,9
	b .L1301
.LVL1878:
.L1255:
	mullw 6,28,31
	.loc 2 1387 0 discriminator 4
	cmplwi 7,18,6406
	mullw 7,30,27
.LVL1879:
	stw 6,28(1)
	mullw 8,29,31
	stw 7,40(1)
	stw 8,44(1)
	bne- 7,.L3142
	mr 17,15
.LBB3163:
	.loc 2 1387 0
	li 16,0
	li 10,0
.LVL1880:
.LBB3164:
	cmpwi 4,20,0
	b .L1304
.LVL1881:
.L3142:
	mr 14,15
.LBE3164:
.LBE3163:
.LBB3171:
	li 17,0
	li 10,0
.LVL1882:
.LBB3172:
	cmpwi 4,20,0
	b .L1305
.LVL1883:
.L1315:
	lwz 8,40(1)
.LBE3172:
.LBE3171:
	.loc 2 1387 0 discriminator 3
	addi 10,10,1
.LVL1884:
	lwz 16,32(1)
	add 17,17,8
.LVL1885:
.L1304:
	.loc 2 1387 0 discriminator 1
	cmpw 7,10,21
	blt+ 7,$+8
	b .L238
	add 9,16,27
	.loc 2 1387 0
	mr 20,17
	stw 9,32(1)
	li 15,0
	li 14,0
.LVL1886:
.L1317:
	.loc 2 1387 0 discriminator 1
	cmpw 7,14,22
	bge- 7,.L1315
	add 7,15,31
	.loc 2 1387 0
	mr 19,16
	stw 7,36(1)
	mr 5,20
.L1316:
	.loc 2 1387 0 discriminator 1
	lwz 0,32(1)
	cmplw 7,19,0
	beq- 7,.L3302
.LVL1887:
.LBB3179:
	.loc 2 1387 0 discriminator 2
	cmplw 7,19,23
	ble+ 7,$+8
	b .L238
	cmplw 7,19,25
	blt- 7,.L1306
	.loc 2 1387 0
	mr 18,15
	li 11,0
	b .L1307
.L1306:
.LVL1888:
.LBB3167:
.LBB3168:
	.loc 1 343 0 is_stmt 1 discriminator 1
	lwz 4,24(1)
	lwz 9,28(1)
	add 4,4,9
	stw 4,24(1)
.LBE3168:
.LBE3167:
	.loc 2 1387 0 discriminator 1
	b .L1308
.LVL1889:
.L1313:
.LBB3169:
	.loc 2 1387 0 is_stmt 0 discriminator 2
	cmplw 7,18,26
	bge- 7,.L3303
.L1309:
.LVL1890:
.LBB3165:
.LBB3166:
	.loc 1 343 0 is_stmt 1
	lwz 4,24(1)
	add 4,4,28
	stw 4,24(1)
.LVL1891:
.L1311:
	add 11,11,29
	addi 18,18,1
.LVL1892:
.L1307:
.LBE3166:
.LBE3165:
.LBE3169:
	.loc 2 1387 0 discriminator 1
	lwz 12,36(1)
	cmplw 7,18,12
	bne+ 7,.L1313
	b .L1308
.LVL1893:
.L3303:
.LBB3170:
	.loc 2 1387 0 is_stmt 0 discriminator 2
	cmplw 7,18,24
	bgt+ 7,.L1309
	.loc 2 1387 0 discriminator 1
	add 3,11,5
	addi 4,1,8
	stw 5,48(1)
	stw 10,60(1)
	stw 11,52(1)
	bl getUSHORT_1_5_5_5_REV
.LVL1894:
	lwz 5,48(1)
	lwz 10,60(1)
	lwz 11,52(1)
	beq- 4,.L1312
	lbz 3,8(1)
.LVL1895:
	lbz 4,10(1)
	stb 3,10(1)
	stb 4,8(1)
.LVL1896:
.L1312:
	.loc 2 1387 0 discriminator 2
	addi 3,1,8
	addi 4,1,24
	stw 5,48(1)
	stw 10,60(1)
	stw 11,52(1)
	bl putIA8A
.LVL1897:
	lwz 11,52(1)
	lwz 10,60(1)
	lwz 5,48(1)
	b .L1311
.LVL1898:
.L1308:
	add 5,5,30
	addi 19,19,1
.LVL1899:
	b .L1316
.LVL1900:
.L3302:
	lwz 6,44(1)
.LBE3170:
.LBE3179:
	.loc 2 1387 0 discriminator 3
	addi 14,14,1
.LVL1901:
	add 15,15,31
	add 20,20,6
	b .L1317
.LVL1902:
.L1327:
	lwz 9,40(1)
	addi 10,10,1
.LVL1903:
	lwz 17,32(1)
	add 14,14,9
.LVL1904:
.L1305:
	.loc 2 1387 0 discriminator 1
	cmpw 7,10,21
	blt+ 7,$+8
	b .L238
	add 12,17,27
	.loc 2 1387 0
	mr 16,14
	stw 12,32(1)
	li 15,0
	li 20,0
.LVL1905:
.L1329:
	.loc 2 1387 0 discriminator 1
	cmpw 7,20,22
	bge- 7,.L1327
	add 8,15,31
	.loc 2 1387 0
	mr 19,17
	stw 8,36(1)
	mr 5,16
.L1328:
	.loc 2 1387 0 discriminator 1
	lwz 6,32(1)
	cmplw 7,19,6
	beq- 7,.L3304
.LVL1906:
.LBB3180:
	.loc 2 1387 0 discriminator 2
	cmplw 7,19,23
	ble+ 7,$+8
	b .L238
	cmplw 7,19,25
	blt- 7,.L1318
	.loc 2 1387 0
	mr 18,15
	li 11,0
	b .L1319
.L1318:
.LVL1907:
.LBB3175:
.LBB3176:
	.loc 1 343 0 is_stmt 1 discriminator 1
	lwz 4,24(1)
	lwz 12,28(1)
	add 4,4,12
	stw 4,24(1)
.LBE3176:
.LBE3175:
	.loc 2 1387 0 discriminator 1
	b .L1320
.LVL1908:
.L1325:
.LBB3177:
	.loc 2 1387 0 is_stmt 0 discriminator 2
	cmplw 7,18,26
	bge- 7,.L3305
.L1321:
.LVL1909:
.LBB3173:
.LBB3174:
	.loc 1 343 0 is_stmt 1
	lwz 4,24(1)
	add 4,4,28
	stw 4,24(1)
.LVL1910:
.L1323:
	add 11,11,29
	addi 18,18,1
.LVL1911:
.L1319:
.LBE3174:
.LBE3173:
.LBE3177:
	.loc 2 1387 0 discriminator 1
	lwz 0,36(1)
	cmplw 7,18,0
	bne+ 7,.L1325
	b .L1320
.LVL1912:
.L3305:
.LBB3178:
	.loc 2 1387 0 is_stmt 0 discriminator 2
	cmplw 7,18,24
	bgt+ 7,.L1321
	.loc 2 1387 0 discriminator 1
	add 3,11,5
	addi 4,1,8
	stw 5,48(1)
	stw 10,60(1)
	stw 11,52(1)
	bl getUSHORT_1_5_5_5_REV
.LVL1913:
	lwz 5,48(1)
	lwz 10,60(1)
	lwz 11,52(1)
	beq- 4,.L1324
	lbz 3,8(1)
.LVL1914:
	lbz 4,10(1)
	stb 3,10(1)
	stb 4,8(1)
.LVL1915:
.L1324:
	.loc 2 1387 0 discriminator 2
	addi 3,1,8
	addi 4,1,24
	stw 5,48(1)
	stw 10,60(1)
	stw 11,52(1)
	bl putIA8
.LVL1916:
	lwz 11,52(1)
	lwz 10,60(1)
	lwz 5,48(1)
	b .L1323
.LVL1917:
.L1320:
	add 5,5,30
	addi 19,19,1
.LVL1918:
	b .L1328
.LVL1919:
.L3304:
	lwz 7,44(1)
.LBE3178:
.LBE3180:
	.loc 2 1387 0 discriminator 3
	addi 20,20,1
.LVL1920:
	add 15,15,31
	add 16,16,7
	b .L1329
.L1339:
	lwz 12,32(1)
	addi 10,10,1
.LVL1921:
	lwz 16,28(1)
	add 17,17,12
.LVL1922:
.L1262:
	.loc 2 1387 0 discriminator 1
	cmpw 7,10,21
	blt+ 7,$+8
	b .L238
	add 0,16,27
	.loc 2 1387 0
	mr 14,17
	stw 0,28(1)
	li 15,0
	li 20,0
.LVL1923:
.L1341:
	.loc 2 1387 0 discriminator 1
	cmpw 7,20,22
	bge- 7,.L1339
	add 9,15,31
	.loc 2 1387 0
	mr 19,16
	stw 9,36(1)
	mr 5,14
.L1340:
	.loc 2 1387 0 discriminator 1
	lwz 7,28(1)
	cmplw 7,19,7
	beq- 7,.L3306
.LVL1924:
.LBB3181:
	.loc 2 1387 0 discriminator 2
	cmplw 7,19,23
	ble+ 7,$+8
	b .L238
	cmplw 7,19,25
	blt- 7,.L1330
	.loc 2 1387 0
	mr 18,15
	li 11,0
	b .L1331
.L1330:
.LVL1925:
.LBB3140:
.LBB3141:
	.loc 1 343 0 is_stmt 1 discriminator 1
	lwz 4,24(1)
	lwz 0,44(1)
	add 4,4,0
	stw 4,24(1)
.LBE3141:
.LBE3140:
	.loc 2 1387 0 discriminator 1
	b .L1332
.LVL1926:
.L1337:
.LBB3142:
	.loc 2 1387 0 is_stmt 0 discriminator 2
	cmplw 7,18,26
	bge- 7,.L3307
.L1333:
.LVL1927:
.LBB3138:
.LBB3139:
	.loc 1 343 0 is_stmt 1
	lwz 4,24(1)
	add 4,4,28
	stw 4,24(1)
.LVL1928:
.L1335:
	add 11,11,29
	addi 18,18,1
.LVL1929:
.L1331:
.LBE3139:
.LBE3138:
.LBE3142:
	.loc 2 1387 0 discriminator 1
	lwz 6,36(1)
	cmplw 7,18,6
	bne+ 7,.L1337
	b .L1332
.LVL1930:
.L3307:
.LBB3143:
	.loc 2 1387 0 is_stmt 0 discriminator 2
	cmplw 7,18,24
	bgt+ 7,.L1333
	.loc 2 1387 0 discriminator 1
	add 3,11,5
	addi 4,1,8
	stw 5,48(1)
	stw 10,60(1)
	stw 11,52(1)
	bl getUSHORT_1_5_5_5_REV
.LVL1931:
	lwz 5,48(1)
	lwz 10,60(1)
	lwz 11,52(1)
	beq- 4,.L1336
	lbz 3,8(1)
.LVL1932:
	lbz 4,10(1)
	stb 3,10(1)
	stb 4,8(1)
.LVL1933:
.L1336:
	.loc 2 1387 0 discriminator 2
	addi 3,1,8
	addi 4,1,24
	stw 5,48(1)
	stw 10,60(1)
	stw 11,52(1)
	bl put5A3
.LVL1934:
	lwz 11,52(1)
	lwz 10,60(1)
	lwz 5,48(1)
	b .L1335
.LVL1935:
.L1332:
	add 5,5,30
	addi 19,19,1
.LVL1936:
	b .L1340
.LVL1937:
.L3306:
	lwz 8,40(1)
.LBE3143:
.LBE3181:
	.loc 2 1387 0 discriminator 3
	addi 20,20,1
.LVL1938:
	add 15,15,31
	add 14,14,8
	b .L1341
.L1351:
	lwz 14,32(1)
	addi 10,10,1
.LVL1939:
	lwz 16,28(1)
	add 17,17,14
.LVL1940:
.L1263:
	.loc 2 1387 0 discriminator 1
	cmpw 7,10,21
	blt+ 7,$+8
	b .L238
	add 0,16,27
	.loc 2 1387 0
	mr 14,17
	stw 0,28(1)
	li 15,0
	li 20,0
.LVL1941:
.L1353:
	.loc 2 1387 0 discriminator 1
	cmpw 7,20,22
	bge- 7,.L1351
	add 12,15,31
	.loc 2 1387 0
	mr 19,16
	stw 12,36(1)
	mr 5,14
.L1352:
	.loc 2 1387 0 discriminator 1
	lwz 8,28(1)
	cmplw 7,19,8
	beq- 7,.L3308
.LVL1942:
.LBB3182:
	.loc 2 1387 0 discriminator 2
	cmplw 7,19,23
	ble+ 7,$+8
	b .L238
	cmplw 7,19,25
	blt- 7,.L1342
	.loc 2 1387 0
	mr 18,15
	li 11,0
	b .L1343
.L1342:
.LVL1943:
.LBB3148:
.LBB3149:
	.loc 1 343 0 is_stmt 1 discriminator 1
	lwz 4,24(1)
	lwz 6,44(1)
	add 4,4,6
	stw 4,24(1)
.LBE3149:
.LBE3148:
	.loc 2 1387 0 discriminator 1
	b .L1344
.LVL1944:
.L1349:
.LBB3150:
	.loc 2 1387 0 is_stmt 0 discriminator 2
	cmplw 7,18,26
	bge- 7,.L3309
.L1345:
.LVL1945:
.LBB3146:
.LBB3147:
	.loc 1 343 0 is_stmt 1
	lwz 4,24(1)
	add 4,4,28
	stw 4,24(1)
.LVL1946:
.L1347:
	add 11,11,29
	addi 18,18,1
.LVL1947:
.L1343:
.LBE3147:
.LBE3146:
.LBE3150:
	.loc 2 1387 0 discriminator 1
	lwz 7,36(1)
	cmplw 7,18,7
	bne+ 7,.L1349
	b .L1344
.LVL1948:
.L3309:
.LBB3151:
	.loc 2 1387 0 is_stmt 0 discriminator 2
	cmplw 7,18,24
	bgt+ 7,.L1345
	.loc 2 1387 0 discriminator 1
	add 3,11,5
	addi 4,1,8
	stw 5,48(1)
	stw 10,60(1)
	stw 11,52(1)
	bl getUSHORT_1_5_5_5_REV
.LVL1949:
	lwz 5,48(1)
	lwz 10,60(1)
	lwz 11,52(1)
	beq- 4,.L1348
	lbz 3,8(1)
.LVL1950:
	lbz 4,10(1)
	stb 3,10(1)
	stb 4,8(1)
.LVL1951:
.L1348:
	.loc 2 1387 0 discriminator 2
	addi 3,1,8
	addi 4,1,24
	stw 5,48(1)
	stw 10,60(1)
	stw 11,52(1)
	bl put565
.LVL1952:
	lwz 11,52(1)
	lwz 10,60(1)
	lwz 5,48(1)
	b .L1347
.LVL1953:
.L1344:
	add 5,5,30
	addi 19,19,1
.LVL1954:
	b .L1352
.LVL1955:
.L3308:
	lwz 9,40(1)
.LBE3151:
.LBE3182:
	.loc 2 1387 0 discriminator 3
	addi 20,20,1
.LVL1956:
	add 15,15,31
	add 14,14,9
	b .L1353
.LVL1957:
.L1373:
	lwz 8,44(1)
	addi 14,14,1
.LVL1958:
	mr 19,17
	add 15,15,8
.LVL1959:
.L1261:
	.loc 2 1387 0 discriminator 1
	cmpw 7,14,21
	blt+ 7,$+8
	b .L238
	.loc 2 1387 0
	mr 18,15
	li 20,0
	li 16,0
	add 17,19,27
.L1375:
.LVL1960:
	.loc 2 1387 0 discriminator 1
	cmpw 7,16,22
	bge- 7,.L1373
	add 7,20,31
	.loc 2 1387 0
	mr 9,19
	stw 7,32(1)
	mr 8,18
.L1374:
	.loc 2 1387 0 discriminator 1
	cmplw 7,9,17
	beq- 7,.L3310
.LVL1961:
.LBB3183:
	.loc 2 1387 0 discriminator 2
	cmplw 7,9,23
	ble+ 7,$+8
	b .L238
	cmplw 7,9,25
	blt- 7,.L1354
	.loc 2 1387 0
	mr 10,20
	li 7,0
	b .L1355
.L1354:
.LVL1962:
.LBB3132:
.LBB3133:
	.loc 1 343 0 is_stmt 1 discriminator 1
	lwz 10,24(1)
	lwz 6,28(1)
	add 10,10,6
	stw 10,24(1)
.LBE3133:
.LBE3132:
	.loc 2 1387 0 discriminator 1
	b .L1356
.LVL1963:
.L1361:
.LBB3134:
	.loc 2 1387 0 is_stmt 0 discriminator 2
	cmplw 7,10,26
	bge- 7,.L3311
.L1357:
.LVL1964:
.LBB3130:
.LBB3131:
	.loc 1 343 0 is_stmt 1
	lwz 6,24(1)
	add 6,6,28
	stw 6,24(1)
.LVL1965:
.L1359:
	add 7,7,29
	addi 10,10,1
.L1355:
.LBE3131:
.LBE3130:
.LBE3134:
	.loc 2 1387 0 discriminator 1
	lwz 12,32(1)
	cmplw 7,10,12
	bne+ 7,.L1361
	b .L1356
.LVL1966:
.L3311:
.LBB3135:
	.loc 2 1387 0 is_stmt 0 discriminator 2
	cmplw 7,10,24
	bgt+ 7,.L1357
	.loc 2 1387 0 discriminator 1
	add 3,7,8
	addi 4,1,8
	stw 7,52(1)
	stw 8,48(1)
	stw 9,56(1)
	stw 10,60(1)
	bl getUSHORT_1_5_5_5_REV
.LVL1967:
	lwz 7,52(1)
	lwz 8,48(1)
	lwz 9,56(1)
	lwz 10,60(1)
	beq- 4,.L1360
	lbz 5,8(1)
.LVL1968:
	lbz 6,10(1)
	stb 5,10(1)
	stb 6,8(1)
.LVL1969:
.L1360:
	.loc 2 1387 0 discriminator 2
	addi 3,1,8
	addi 4,1,24
	stw 7,52(1)
	stw 8,48(1)
	stw 9,56(1)
	stw 10,60(1)
	bl putAR
.LVL1970:
	lwz 10,60(1)
	lwz 9,56(1)
	lwz 8,48(1)
	lwz 7,52(1)
	b .L1359
.L1356:
	add 8,8,30
	addi 9,9,1
	b .L1374
.L3310:
	add 0,20,31
.LBE3135:
.LBE3183:
	.loc 2 1387 0
	mr 10,19
	stw 0,36(1)
	li 8,0
.L1363:
	.loc 2 1387 0 discriminator 1
	cmplw 7,10,17
	beq- 7,.L3312
.LVL1971:
.LBB3184:
	.loc 2 1387 0 discriminator 2
	cmplw 7,10,25
	blt- 7,.L1364
	add 6,8,18
	.loc 2 1387 0
	mr 9,20
	li 7,0
	stw 6,32(1)
	b .L1365
.L1364:
.LVL1972:
.LBB3185:
.LBB3186:
	.loc 1 343 0 is_stmt 1 discriminator 1
	lwz 9,24(1)
	lwz 7,28(1)
	add 9,9,7
	stw 9,24(1)
.LBE3186:
.LBE3185:
	.loc 2 1387 0 discriminator 1
	b .L1366
.LVL1973:
.L1371:
.LBB3187:
	.loc 2 1387 0 is_stmt 0 discriminator 2
	cmplw 7,9,26
	bge- 7,.L3313
.L1367:
.LVL1974:
.LBB3188:
.LBB3189:
	.loc 1 343 0 is_stmt 1
	lwz 6,24(1)
	add 6,6,28
	stw 6,24(1)
.LVL1975:
.L1369:
	add 7,7,29
	addi 9,9,1
.L1365:
.LBE3189:
.LBE3188:
.LBE3187:
	.loc 2 1387 0 discriminator 1
	lwz 0,36(1)
	cmplw 7,9,0
	bne+ 7,.L1371
	b .L1366
.LVL1976:
.L3313:
.LBB3190:
	.loc 2 1387 0 is_stmt 0 discriminator 2
	cmplw 7,9,24
	bgt+ 7,.L1367
	.loc 2 1387 0 discriminator 1
	lwz 12,32(1)
	addi 4,1,8
	stw 7,52(1)
	add 3,7,12
	stw 8,48(1)
	stw 9,56(1)
	stw 10,60(1)
	bl getUSHORT_1_5_5_5_REV
.LVL1977:
	lwz 7,52(1)
	lwz 8,48(1)
	lwz 9,56(1)
	lwz 10,60(1)
	beq- 4,.L1370
	lbz 5,8(1)
.LVL1978:
	lbz 6,10(1)
	stb 5,10(1)
	stb 6,8(1)
.LVL1979:
.L1370:
	.loc 2 1387 0 discriminator 2
	addi 3,1,8
	addi 4,1,24
	stw 7,52(1)
	stw 8,48(1)
	stw 9,56(1)
	stw 10,60(1)
	bl putGB
.LVL1980:
	lwz 10,60(1)
	lwz 9,56(1)
	lwz 8,48(1)
	lwz 7,52(1)
	b .L1369
.L1366:
	add 8,8,30
	addi 10,10,1
	b .L1363
.L3312:
	lwz 6,40(1)
.LBE3190:
.LBE3184:
	.loc 2 1387 0 discriminator 3
	addi 16,16,1
.LVL1981:
	add 20,20,31
	add 18,18,6
	b .L1375
.LVL1982:
.L3169:
	.loc 2 1389 0 is_stmt 1
	cmplwi 7,19,4
	beq- 7,.L1376
	bgt- 7,.L1377
	cmplwi 7,19,2
	beq- 7,.L1378
	bgt- 7,.L1379
	cmplwi 7,19,1
	beq+ 7,$+8
	b .L238
	mullw 10,29,31
.LVL1983:
	mr 17,15
.LBB3191:
	li 16,0
.LBB3192:
	cmpwi 4,20,0
.LBE3192:
	mullw 8,28,31
	stw 10,40(1)
	li 10,0
	mullw 9,30,27
	stw 8,44(1)
	stw 9,32(1)
	b .L1389
.LVL1984:
.L1377:
.LBE3191:
	cmplwi 7,19,6
	beq- 7,.L1381
	blt- 7,.L1382
	cmplwi 7,19,39
	beq+ 7,$+8
	b .L238
	mullw 10,30,27
.LVL1985:
	mr 17,15
.LBB3199:
	li 16,0
.LBB3200:
	cmpwi 4,20,0
.LBE3200:
	mullw 9,28,31
	stw 10,32(1)
	li 10,0
	mullw 12,29,31
	stw 9,44(1)
	stw 12,40(1)
	b .L1384
.LVL1986:
.L1381:
.LBE3199:
.LBB3207:
	mullw 14,28,31
	li 19,0
.LVL1987:
.LBB3208:
	cmpwi 4,20,0
	mullw 0,30,27
.LBE3208:
	stw 14,28(1)
	li 14,0
	mullw 6,29,31
	stw 0,44(1)
	stw 6,40(1)
	b .L1385
.LVL1988:
.L1382:
.LBE3207:
.LBB3215:
	mullw 7,28,31
.LVL1989:
	mr 17,15
	li 16,0
	li 10,0
.LVL1990:
.LBB3216:
	cmpwi 4,20,0
	mullw 8,30,27
.LBE3216:
	stw 7,44(1)
	mullw 9,29,31
	stw 8,32(1)
	stw 9,40(1)
	b .L1386
.LVL1991:
.L1376:
.LBE3215:
.LBB3223:
	mullw 10,28,31
.LVL1992:
	mr 17,15
	li 16,0
.LBB3224:
	cmpwi 4,20,0
	mullw 12,30,27
.LBE3224:
	stw 10,44(1)
	li 10,0
	mullw 14,29,31
	stw 12,32(1)
	stw 14,40(1)
	b .L1387
.LVL1993:
.L1378:
.LBE3223:
.LBB3231:
	mullw 0,28,31
	mr 17,15
	li 16,0
	li 10,0
.LVL1994:
.LBB3232:
	cmpwi 4,20,0
	mullw 6,30,27
.LBE3232:
	stw 0,44(1)
	mullw 7,29,31
.LVL1995:
	stw 6,32(1)
	stw 7,40(1)
	b .L1388
.LVL1996:
.L1399:
	lwz 9,32(1)
.LBE3231:
	.loc 2 1389 0 is_stmt 0 discriminator 3
	addi 10,10,1
.LVL1997:
	lwz 16,28(1)
	add 17,17,9
.LVL1998:
.L1389:
	.loc 2 1389 0 discriminator 1
	cmpw 7,10,21
	blt+ 7,$+8
	b .L238
	add 12,16,27
	.loc 2 1389 0
	mr 14,17
	stw 12,28(1)
	li 15,0
	li 20,0
.LVL1999:
.L1401:
	.loc 2 1389 0 discriminator 1
	cmpw 7,20,22
	bge- 7,.L1399
	add 8,15,31
	.loc 2 1389 0
	mr 19,16
	stw 8,36(1)
	mr 5,14
.L1400:
	.loc 2 1389 0 discriminator 1
	lwz 6,28(1)
	cmplw 7,19,6
	beq- 7,.L3314
.LVL2000:
.LBB3239:
	.loc 2 1389 0 discriminator 2
	cmplw 7,19,23
	ble+ 7,$+8
	b .L238
	cmplw 7,19,25
	blt- 7,.L1390
	.loc 2 1389 0
	mr 18,15
	li 11,0
	b .L1391
.L1390:
.LVL2001:
.LBB3195:
.LBB3196:
	.loc 1 343 0 is_stmt 1 discriminator 1
	lwz 4,24(1)
	lwz 12,44(1)
	add 4,4,12
	stw 4,24(1)
.LBE3196:
.LBE3195:
	.loc 2 1389 0 discriminator 1
	b .L1392
.LVL2002:
.L1397:
.LBB3197:
	.loc 2 1389 0 is_stmt 0 discriminator 2
	cmplw 7,18,26
	bge- 7,.L3315
.L1393:
.LVL2003:
.LBB3193:
.LBB3194:
	.loc 1 343 0 is_stmt 1
	lwz 4,24(1)
	add 4,4,28
	stw 4,24(1)
.LVL2004:
.L1395:
	add 11,11,29
	addi 18,18,1
.LVL2005:
.L1391:
.LBE3194:
.LBE3193:
.LBE3197:
	.loc 2 1389 0 discriminator 1
	lwz 0,36(1)
	cmplw 7,18,0
	bne+ 7,.L1397
	b .L1392
.LVL2006:
.L3315:
.LBB3198:
	.loc 2 1389 0 is_stmt 0 discriminator 2
	cmplw 7,18,24
	bgt+ 7,.L1393
	.loc 2 1389 0 discriminator 1
	add 3,11,5
	addi 4,1,8
	stw 5,48(1)
	stw 10,60(1)
	stw 11,52(1)
	bl getUINT_8_8_8_8
.LVL2007:
	lwz 5,48(1)
	lwz 10,60(1)
	lwz 11,52(1)
	beq- 4,.L1396
	lbz 3,8(1)
.LVL2008:
	lbz 4,10(1)
	stb 3,10(1)
	stb 4,8(1)
.LVL2009:
.L1396:
	.loc 2 1389 0 discriminator 2
	addi 3,1,8
	addi 4,1,24
	stw 5,48(1)
	stw 10,60(1)
	stw 11,52(1)
	bl putI8
.LVL2010:
	lwz 11,52(1)
	lwz 10,60(1)
	lwz 5,48(1)
	b .L1395
.LVL2011:
.L1392:
	add 5,5,30
	addi 19,19,1
.LVL2012:
	b .L1400
.LVL2013:
.L3314:
	lwz 7,40(1)
.LBE3198:
.LBE3239:
	.loc 2 1389 0 discriminator 3
	addi 20,20,1
.LVL2014:
	add 15,15,31
	add 14,14,7
	b .L1401
.L1411:
	lwz 12,32(1)
	addi 10,10,1
.LVL2015:
	lwz 16,28(1)
	add 17,17,12
.LVL2016:
.L1384:
	.loc 2 1389 0 discriminator 1
	cmpw 7,10,21
	blt+ 7,$+8
	b .L238
	add 0,16,27
	.loc 2 1389 0
	mr 14,17
	stw 0,28(1)
	li 15,0
	li 20,0
.LVL2017:
.L1413:
	.loc 2 1389 0 discriminator 1
	cmpw 7,20,22
	bge- 7,.L1411
	add 9,15,31
	.loc 2 1389 0
	mr 19,16
	stw 9,36(1)
	mr 5,14
.L1412:
	.loc 2 1389 0 discriminator 1
	lwz 7,28(1)
	cmplw 7,19,7
	beq- 7,.L3316
.LVL2018:
.LBB3240:
	.loc 2 1389 0 discriminator 2
	cmplw 7,19,23
	ble+ 7,$+8
	b .L238
	cmplw 7,19,25
	blt- 7,.L1402
	.loc 2 1389 0
	mr 18,15
	li 11,0
	b .L1403
.L1402:
.LVL2019:
.LBB3203:
.LBB3204:
	.loc 1 343 0 is_stmt 1 discriminator 1
	lwz 4,24(1)
	lwz 0,44(1)
	add 4,4,0
	stw 4,24(1)
.LBE3204:
.LBE3203:
	.loc 2 1389 0 discriminator 1
	b .L1404
.LVL2020:
.L1409:
.LBB3205:
	.loc 2 1389 0 is_stmt 0 discriminator 2
	cmplw 7,18,26
	bge- 7,.L3317
.L1405:
.LVL2021:
.LBB3201:
.LBB3202:
	.loc 1 343 0 is_stmt 1
	lwz 4,24(1)
	add 4,4,28
	stw 4,24(1)
.LVL2022:
.L1407:
	add 11,11,29
	addi 18,18,1
.LVL2023:
.L1403:
.LBE3202:
.LBE3201:
.LBE3205:
	.loc 2 1389 0 discriminator 1
	lwz 6,36(1)
	cmplw 7,18,6
	bne+ 7,.L1409
	b .L1404
.LVL2024:
.L3317:
.LBB3206:
	.loc 2 1389 0 is_stmt 0 discriminator 2
	cmplw 7,18,24
	bgt+ 7,.L1405
	.loc 2 1389 0 discriminator 1
	add 3,11,5
	addi 4,1,8
	stw 5,48(1)
	stw 10,60(1)
	stw 11,52(1)
	bl getUINT_8_8_8_8
.LVL2025:
	lwz 5,48(1)
	lwz 10,60(1)
	lwz 11,52(1)
	beq- 4,.L1408
	lbz 3,8(1)
.LVL2026:
	lbz 4,10(1)
	stb 3,10(1)
	stb 4,8(1)
.LVL2027:
.L1408:
	.loc 2 1389 0 discriminator 2
	addi 3,1,8
	addi 4,1,24
	stw 5,48(1)
	stw 10,60(1)
	stw 11,52(1)
	bl putA8
.LVL2028:
	lwz 11,52(1)
	lwz 10,60(1)
	lwz 5,48(1)
	b .L1407
.LVL2029:
.L1404:
	add 5,5,30
	addi 19,19,1
.LVL2030:
	b .L1412
.LVL2031:
.L3316:
	lwz 8,40(1)
.LBE3206:
.LBE3240:
	.loc 2 1389 0 discriminator 3
	addi 20,20,1
.LVL2032:
	add 15,15,31
	add 14,14,8
	b .L1413
.L1423:
	lwz 14,32(1)
	addi 10,10,1
.LVL2033:
	lwz 16,28(1)
	add 17,17,14
.LVL2034:
.L1388:
	.loc 2 1389 0 discriminator 1
	cmpw 7,10,21
	blt+ 7,$+8
	b .L238
	add 0,16,27
	.loc 2 1389 0
	mr 14,17
	stw 0,28(1)
	li 15,0
	li 20,0
.LVL2035:
.L1425:
	.loc 2 1389 0 discriminator 1
	cmpw 7,20,22
	bge- 7,.L1423
	add 12,15,31
	.loc 2 1389 0
	mr 19,16
	stw 12,36(1)
	mr 5,14
.L1424:
	.loc 2 1389 0 discriminator 1
	lwz 8,28(1)
	cmplw 7,19,8
	beq- 7,.L3318
.LVL2036:
.LBB3241:
	.loc 2 1389 0 discriminator 2
	cmplw 7,19,23
	ble+ 7,$+8
	b .L238
	cmplw 7,19,25
	blt- 7,.L1414
	.loc 2 1389 0
	mr 18,15
	li 11,0
	b .L1415
.L1414:
.LVL2037:
.LBB3235:
.LBB3236:
	.loc 1 343 0 is_stmt 1 discriminator 1
	lwz 4,24(1)
	lwz 6,44(1)
	add 4,4,6
	stw 4,24(1)
.LBE3236:
.LBE3235:
	.loc 2 1389 0 discriminator 1
	b .L1416
.LVL2038:
.L1421:
.LBB3237:
	.loc 2 1389 0 is_stmt 0 discriminator 2
	cmplw 7,18,26
	bge- 7,.L3319
.L1417:
.LVL2039:
.LBB3233:
.LBB3234:
	.loc 1 343 0 is_stmt 1
	lwz 4,24(1)
	add 4,4,28
	stw 4,24(1)
.LVL2040:
.L1419:
	add 11,11,29
	addi 18,18,1
.LVL2041:
.L1415:
.LBE3234:
.LBE3233:
.LBE3237:
	.loc 2 1389 0 discriminator 1
	lwz 7,36(1)
	cmplw 7,18,7
	bne+ 7,.L1421
	b .L1416
.LVL2042:
.L3319:
.LBB3238:
	.loc 2 1389 0 is_stmt 0 discriminator 2
	cmplw 7,18,24
	bgt+ 7,.L1417
	.loc 2 1389 0 discriminator 1
	add 3,11,5
	addi 4,1,8
	stw 5,48(1)
	stw 10,60(1)
	stw 11,52(1)
	bl getUINT_8_8_8_8
.LVL2043:
	lwz 5,48(1)
	lwz 10,60(1)
	lwz 11,52(1)
	beq- 4,.L1420
