	.file	"glut.c"
	.section	".text"
.Ltext0:
	.cfi_sections	.debug_frame
	.align 2
	.globl timercallback
	.type	timercallback, @function
timercallback:
.LFB79:
	.file 1 "D:/devkitPro/portlibs/thirdparty/gl2gx/libogc/../source/glut.c"
	.loc 1 477 0
	.cfi_startproc
.LVL0:
	.loc 1 478 0
	lis 9,count@ha
	.loc 1 477 0
	mflr 0
	.loc 1 478 0
	lbz 10,count@l(9)
	.loc 1 477 0
	stwu 1,-16(1)
	.cfi_def_cfa_offset 16
	.cfi_register 65, 0
	.loc 1 478 0
	addi 10,10,1
	rlwinm 10,10,0,0xff
	.loc 1 477 0
	stw 31,12(1)
	.loc 1 478 0
	stb 10,count@l(9)
	.cfi_offset 31, -4
	mr 31,9
	.loc 1 477 0
	stw 0,20(1)
	.cfi_offset 65, 4
	.loc 1 479 0
	lbz 10,count@l(9)
	cmplwi 7,10,2
	ble+ 7,.L2
	.loc 1 481 0
	lis 3,.LC3@ha
.LVL1:
	lbz 4,count@l(9)
.LVL2:
	la 3,.LC3@l(3)
	crxor 6,6,6
	bl printf
.LVL3:
	.loc 1 482 0
	bl GX_AbortFrame
.LVL4:
.L2:
	.loc 1 485 0
	lbz 9,count@l(31)
	cmplwi 7,9,10
	ble- 7,.L3
	.loc 1 487 0
	li 10,1
	lis 9,kill@ha
	stb 10,kill@l(9)
.L3:
	.loc 1 490 0
	lis 9,incFPS@ha
	lis 10,FPS@ha
	lbz 8,incFPS@l(9)
	.loc 1 492 0
	addi 11,1,16
	.loc 1 490 0
	stb 8,FPS@l(10)
	.loc 1 491 0
	li 10,0
	stb 10,incFPS@l(9)
	.loc 1 492 0
	b _restgpr_31_x
	.cfi_restore 31
	.cfi_restore 65
	.cfi_endproc
.LFE79:
	.size	timercallback, .-timercallback
	.align 2
	.globl glutThread
	.type	glutThread, @function
glutThread:
.LFB81:
	.loc 1 499 0
	.cfi_startproc
.LVL5:
	.loc 1 501 0
	lis 9,displayfunc@ha
	.loc 1 499 0
	mflr 0
	.loc 1 501 0
	lwz 9,displayfunc@l(9)
	.loc 1 499 0
	stwu 1,-24(1)
	.cfi_def_cfa_offset 24
	.cfi_register 65, 0
	.loc 1 501 0
	cmpwi 7,9,0
	.loc 1 499 0
	stw 0,28(1)
	stmw 29,12(1)
	.cfi_offset 65, 4
	.cfi_offset 29, -12
	.cfi_offset 30, -8
	.cfi_offset 31, -4
	.loc 1 501 0
	beq- 7,.L7
	.loc 1 501 0 is_stmt 0 discriminator 1
	mtctr 9
	bctrl
.LVL6:
.L7:
	.loc 1 504 0 is_stmt 1
	lis 31,count@ha
	li 30,0
	la 31,count@l(31)
	.loc 1 505 0
	lis 29,idlefunc@ha
.L9:
	lwz 9,idlefunc@l(29)
	.loc 1 504 0
	stb 30,0(31)
	.loc 1 505 0
	cmpwi 7,9,0
	beq- 7,.L8
	.loc 1 505 0 is_stmt 0 discriminator 1
	mtctr 9
	bctrl
.LVL7:
.L8:
	.loc 1 506 0 is_stmt 1
	bl LWP_YieldThread
.LVL8:
	.loc 1 507 0
	b .L9
	.cfi_endproc
.LFE81:
	.size	glutThread, .-glutThread
	.align 2
	.globl glutInit
	.type	glutInit, @function
glutInit:
.LFB64:
	.loc 1 65 0
	.cfi_startproc
.LVL9:
	mflr 0
	stwu 1,-48(1)
	.cfi_def_cfa_offset 48
	.cfi_register 65, 0
	.loc 1 75 0
	lis 10,.LC4@ha
	lis 9,__glutProgramName@ha
	la 10,.LC4@l(10)
	.loc 1 65 0
	stfd 31,40(1)
	.loc 1 75 0
	stw 10,__glutProgramName@l(9)
	.loc 1 65 0
	stw 0,52(1)
	stmw 25,12(1)
	.cfi_offset 63, -8
	.cfi_offset 65, 4
	.cfi_offset 25, -36
	.cfi_offset 26, -32
	.cfi_offset 27, -28
	.cfi_offset 28, -24
	.cfi_offset 29, -20
	.cfi_offset 30, -16
	.cfi_offset 31, -12
	.loc 1 78 0
	bl VIDEO_Init
.LVL10:
	.loc 1 83 0
	lis 28,.LC5@ha
	.loc 1 80 0
	li 3,0
	bl VIDEO_GetPreferredMode
.LVL11:
	.loc 1 83 0
	lfs 31,.LC5@l(28)
	.loc 1 80 0
	lis 9,rmode@ha
	.loc 1 83 0
	fmr 3,31
	.loc 1 80 0
	stw 3,rmode@l(9)
	.loc 1 83 0
	fmr 1,31
	fmr 2,31
	bl glColor3f
.LVL12:
	.loc 1 84 0
	lis 5,.LC9@ha
	lfs 1,.LC9@l(5)
	fmr 2,1
	bl glTexCoord2f
.LVL13:
	.loc 1 85 0
	lis 7,.LC9@ha
	lfs 1,.LC9@l(7)
	fmr 3,31
	fmr 2,1
	bl glNormal3f
.LVL14:
	.loc 1 97 0
	lis 7,.LC6@ha
	lis 9,lights@ha
	.loc 1 85 0
	li 4,8
	.loc 1 97 0
	lfs 12,.LC6@l(7)
	.loc 1 99 0
	lis 7,.LC7@ha
	la 9,lights@l(9)
	.loc 1 89 0
	lfs 0,.LC5@l(28)
	.loc 1 99 0
	lfs 13,.LC7@l(7)
	mtctr 4
	mr 11,9
	.loc 1 89 0
	li 10,0
	.loc 1 92 0
	li 8,0
.LVL15:
.L19:
	.loc 1 89 0 discriminator 2
	stw 10,68(9)
	.loc 1 92 0 discriminator 2
	li 3,0
	.loc 1 89 0 discriminator 2
	stw 10,72(9)
	addi 4,4,-1
.LVL16:
	stfs 0,76(9)
	li 30,0
	.loc 1 90 0 discriminator 2
	stw 10,80(9)
	addi 9,9,164
	.loc 1 92 0 discriminator 2
	stb 8,-164(9)
	.loc 1 93 0 discriminator 2
	stw 10,-68(9)
	stw 10,-64(9)
	stw 10,-60(9)
	stfs 0,-56(9)
	.loc 1 94 0 discriminator 2
	stw 10,-52(9)
	stw 10,-48(9)
	stw 10,-44(9)
	stfs 0,-40(9)
	.loc 1 95 0 discriminator 2
	stw 10,-36(9)
	stw 10,-32(9)
	stw 10,-28(9)
	stfs 0,-24(9)
	.loc 1 97 0 discriminator 2
	stfs 12,-16(9)
	.loc 1 98 0 discriminator 2
	stw 10,-20(9)
	.loc 1 99 0 discriminator 2
	stw 10,-80(9)
	stw 10,-76(9)
	stfs 13,-72(9)
	.loc 1 101 0 discriminator 2
	stfs 0,-12(9)
	.loc 1 102 0 discriminator 2
	stw 10,-8(9)
	.loc 1 103 0 discriminator 2
	stw 10,-4(9)
.LVL17:
	bdnz .L19
	.loc 1 106 0
	lis 9,.LANCHOR0@ha
	addi 10,11,112
	la 9,.LANCHOR0@l(9)
	.loc 1 107 0
	addi 11,11,128
	lswi 5,9,16
	stswi 5,11,16
	.loc 1 109 0
	lis 11,globAmbient@ha
	.loc 1 106 0
	lswi 5,9,16
	stswi 5,10,16
	.loc 1 109 0
	la 11,globAmbient@l(11)
	addi 10,9,16
	.loc 1 114 0
	addi 9,9,32
	.loc 1 109 0
	lswi 5,10,16
	stswi 5,11,16
	.loc 1 112 0
	lis 8,curmat@ha
	la 31,curmat@l(8)
	stw 30,curmat@l(8)
	.loc 1 113 0
	addi 11,31,16
	.loc 1 124 0
	lis 27,model_stack@ha
	.loc 1 113 0
	lswi 5,10,16
	stswi 5,11,16
	.loc 1 114 0
	addi 10,31,32
	lswi 5,9,16
	stswi 5,10,16
	.loc 1 117 0
	lis 9,blend_type@ha
	stb 4,blend_type@l(9)
	.loc 1 118 0
	li 10,1
	lis 9,blend_src@ha
	.loc 1 124 0
	la 27,model_stack@l(27)
	.loc 1 118 0
	stb 10,blend_src@l(9)
	.loc 1 119 0
	lis 9,blend_dst@ha
	stb 3,blend_dst@l(9)
	.loc 1 120 0
	lis 9,blend_op@ha
	.loc 1 122 0
	li 10,2
	.loc 1 124 0
	li 4,32
	.loc 1 120 0
	stb 3,blend_op@l(9)
	.loc 1 122 0
	lis 9,cull_mode@ha
	.loc 1 124 0
	mr 3,27
	.loc 1 112 0
	stfs 0,12(31)
	.loc 1 115 0
	stfs 0,60(31)
	lis 26,texture_stack@ha
	.loc 1 122 0
	stb 10,cull_mode@l(9)
	la 26,texture_stack@l(26)
	.loc 1 112 0
	stw 30,4(31)
	.loc 1 130 0
	li 29,0
	.loc 1 112 0
	stw 30,8(31)
	mr 25,31
	.loc 1 115 0
	stw 30,48(31)
	addis 26,26,0xfff8
	stw 30,52(31)
	.loc 1 130 0
	ori 29,29,33984
	.loc 1 115 0
	stw 30,56(31)
	.loc 1 124 0
	bl InitStackMtx
.LVL18:
	.loc 1 125 0
	li 3,5888
	.loc 1 132 0
	li 31,0
	.loc 1 125 0
	bl glMatrixMode
.LVL19:
	addi 26,26,-19456
	.loc 1 126 0
	bl glLoadIdentity
.LVL20:
	.loc 1 128 0
	lis 3,projection_stack@ha
	li 4,2
	la 3,projection_stack@l(3)
	bl InitStackPrjMtx
.LVL21:
	.loc 1 129 0
	li 3,5889
	bl glMatrixMode
.LVL22:
	.loc 1 132 0
	ori 31,31,33992
	.loc 1 130 0
	bl glLoadIdentity
.LVL23:
.L21:
	slwi 3,29,4
	.loc 1 134 0 discriminator 2
	li 4,2
	add 3,26,3
	bl InitStackMtx
.LVL24:
	.loc 1 135 0 discriminator 2
	li 3,5890
	bl glMatrixMode
.LVL25:
	.loc 1 136 0 discriminator 2
	mr 3,29
	addi 29,29,1
.LVL26:
	bl glActiveTextureARB
.LVL27:
	.loc 1 137 0 discriminator 2
	bl glLoadIdentity
.LVL28:
	.loc 1 132 0 discriminator 2
	cmpw 7,29,31
	bne+ 7,.L21
	.loc 1 140 0
	li 3,0
	ori 3,3,33984
	bl glActiveTextureARB
.LVL29:
	.loc 1 142 0
	lis 10,norm@ha
	li 5,0
	la 9,norm@l(10)
	stb 5,norm@l(10)
	.loc 1 143 0
	lis 10,_normalelements@ha
	la 10,_normalelements@l(10)
	.loc 1 144 0
	li 7,12
	.loc 1 143 0
	stw 10,4(9)
	.loc 1 146 0
	li 8,3
	.loc 1 145 0
	li 10,5126
	.loc 1 148 0
	lis 6,vert@ha
	.loc 1 144 0
	stb 7,8(9)
	.loc 1 145 0
	stw 10,16(9)
	.loc 1 146 0
	stw 8,12(9)
	.loc 1 148 0
	la 9,vert@l(6)
	stb 5,vert@l(6)
	.loc 1 149 0
	lis 6,_vertexelements@ha
	la 6,_vertexelements@l(6)
	.loc 1 160 0
	li 5,8
	.loc 1 149 0
	stw 6,4(9)
	.loc 1 160 0
	mtctr 5
	.loc 1 150 0
	stb 7,8(9)
	.loc 1 157 0
	li 6,8
	.loc 1 151 0
	stw 8,12(9)
	.loc 1 158 0
	li 7,2
	.loc 1 152 0
	stw 10,16(9)
.LVL30:
	lis 9,tex+4@ha
	la 9,tex+4@l(9)
	.loc 1 156 0
	li 10,0
	.loc 1 159 0
	li 8,5126
.LVL31:
.L23:
	.loc 1 156 0 discriminator 2
	stw 10,0(9)
	li 31,0
	.loc 1 157 0 discriminator 2
	stb 6,4(9)
	addi 9,9,20
	.loc 1 158 0 discriminator 2
	stw 7,-12(9)
	.loc 1 159 0 discriminator 2
	stw 8,-8(9)
	.loc 1 160 0 discriminator 2
	stb 10,-24(9)
	.loc 1 154 0 discriminator 2
	bdnz .L23
	.loc 1 166 0
	lis 10,color@ha
	.loc 1 169 0
	li 26,4
	.loc 1 166 0
	la 9,color@l(10)
	stb 31,color@l(10)
	.loc 1 167 0
	lis 10,_colorelements@ha
	.loc 1 169 0
	stw 26,12(9)
	.loc 1 167 0
	la 10,_colorelements@l(10)
	.loc 1 187 0
	li 29,1
	.loc 1 167 0
	stw 10,4(9)
	.loc 1 168 0
	li 10,16
	stb 10,8(9)
	.loc 1 170 0
	li 10,5126
	stw 10,16(9)
	.loc 1 172 0
	lis 9,curmtx@ha
	stw 27,curmtx@l(9)
	.loc 1 173 0
	li 10,5888
	lis 9,cur_mode@ha
	.loc 1 191 0
	lfs 31,.LC5@l(28)
	.loc 1 173 0
	stw 10,cur_mode@l(9)
	.loc 1 174 0
	lis 9,cur_tex@ha
	stw 31,cur_tex@l(9)
	.loc 1 175 0
	lis 9,cur_tex_client@ha
	stw 31,cur_tex_client@l(9)
	.loc 1 180 0
	lis 9,lighting@ha
	stb 31,lighting@l(9)
	.loc 1 183 0
	lis 9,gxcullfaceanabled@ha
	stb 31,gxcullfaceanabled@l(9)
	.loc 1 184 0
	li 10,2305
	lis 9,gxwinding@ha
	.loc 1 177 0
	stw 30,64(25)
	.loc 1 184 0
	stw 10,gxwinding@l(9)
	.loc 1 186 0
	lis 9,depthtestenabled@ha
	stb 31,depthtestenabled@l(9)
	.loc 1 187 0
	lis 9,depthfunction@ha
	stw 29,depthfunction@l(9)
	.loc 1 190 0
	lis 10,_clearcolor@ha
	.loc 1 188 0
	lis 9,depthupdate@ha
	.loc 1 190 0
	stb 31,_clearcolor@l(10)
	.loc 1 188 0
	stb 29,depthupdate@l(9)
	.loc 1 190 0
	la 9,_clearcolor@l(10)
	li 10,-1
	stb 31,1(9)
	stb 10,3(9)
	stb 31,2(9)
	.loc 1 191 0
	lis 9,_cleardepth@ha
	stfs 31,_cleardepth@l(9)
	.loc 1 193 0
	bl initTextures
.LVL32:
	.loc 1 194 0
	bl initCalllist
.LVL33:
	.loc 1 195 0
	bl initTextureSlots
.LVL34:
	.loc 1 197 0
	lis 9,cur_state@ha
	stw 31,cur_state@l(9)
	.loc 1 203 0
	lis 10,Trans@ha
	.loc 1 199 0
	lis 9,scissor_test@ha
	.loc 1 203 0
	stfs 31,Trans@l(10)
	.loc 1 199 0
	stb 31,scissor_test@l(9)
.LVL35:
	.loc 1 203 0
	la 9,Trans@l(10)
	stw 30,4(9)
.LVL36:
	.loc 1 209 0
	li 10,1029
	.loc 1 203 0
	stw 30,12(9)
.LVL37:
	stw 30,20(9)
.LVL38:
	stw 30,28(9)
.LVL39:
	stfs 31,8(9)
	stfs 31,16(9)
	stfs 31,24(9)
	.loc 1 206 0
	lis 9,normNear@ha
	stw 30,normNear@l(9)
	.loc 1 207 0
	lis 9,normFar@ha
	stfs 31,normFar@l(9)
	.loc 1 209 0
	lis 9,read_mode@ha
	stw 10,read_mode@l(9)
	.loc 1 211 0
	lis 9,copy_mat_enabled@ha
	stb 31,copy_mat_enabled@l(9)
	.loc 1 212 0
	li 10,5634
	lis 9,copy_material@ha
	stw 10,copy_material@l(9)
	.loc 1 214 0
	lis 9,fog_enable@ha
	stb 31,fog_enable@l(9)
	.loc 1 215 0
	lis 9,fog_mode@ha
	stb 26,fog_mode@l(9)
	.loc 1 216 0
	lis 9,fog_startz@ha
	stw 30,fog_startz@l(9)
	.loc 1 217 0
	lis 9,fog_endz@ha
	stfs 31,fog_endz@l(9)
	.loc 1 218 0
	lis 9,.LC8@ha
	lfs 0,.LC8@l(9)
	.loc 1 219 0
	lis 10,fog_color@ha
	.loc 1 218 0
	lis 9,fog_density@ha
	.loc 1 219 0
	stb 31,fog_color@l(10)
	.loc 1 218 0
	stfs 0,fog_density@l(9)
	.loc 1 219 0
	la 9,fog_color@l(10)
	stb 31,1(9)
	stb 31,2(9)
	stb 29,3(9)
	.loc 1 221 0
	bl _glInitStacks
.LVL40:
	.loc 1 225 0
	lis 10,color_write_mask@ha
	.loc 1 231 0
	addi 11,1,48
	.loc 1 225 0
	la 9,color_write_mask@l(10)
	stb 29,color_write_mask@l(10)
.LVL41:
	stb 29,1(9)
.LVL42:
	stb 29,2(9)
.LVL43:
	stb 29,3(9)
.LVL44:
	.loc 1 231 0
	lmw 25,12(1)
	b _restfpr_31_x
	.cfi_restore 63
	.cfi_restore 65
	.cfi_restore 31
	.cfi_restore 30
	.cfi_restore 29
	.cfi_restore 28
	.cfi_restore 27
	.cfi_restore 26
	.cfi_restore 25
	.cfi_endproc
.LFE64:
	.size	glutInit, .-glutInit
	.align 2
	.globl ShowConsole
	.type	ShowConsole, @function
ShowConsole:
.LFB65:
	.loc 1 238 0
	.cfi_startproc
	.loc 1 239 0
	li 10,1
	lis 9,_console_enabled@ha
	stb 10,_console_enabled@l(9)
	blr
	.cfi_endproc
.LFE65:
	.size	ShowConsole, .-ShowConsole
	.align 2
	.globl HideConsole
	.type	HideConsole, @function
HideConsole:
.LFB66:
	.loc 1 244 0
	.cfi_startproc
	.loc 1 246 0
	li 10,0
	lis 9,_console_enabled@ha
	stb 10,_console_enabled@l(9)
	blr
	.cfi_endproc
.LFE66:
	.size	HideConsole, .-HideConsole
	.align 2
	.globl getVImode
	.type	getVImode, @function
getVImode:
.LFB67:
	.loc 1 250 0
	.cfi_startproc
.LVL45:
	.loc 1 251 0
	lis 9,rmode@ha
	lwz 10,rmode@l(9)
	lhz 10,14(10)
	stw 10,0(3)
	.loc 1 252 0
	lwz 9,rmode@l(9)
	lhz 9,16(9)
	stw 9,0(4)
	blr
	.cfi_endproc
.LFE67:
	.size	getVImode, .-getVImode
	.align 2
	.globl glutInitDisplayMode
	.type	glutInitDisplayMode, @function
glutInitDisplayMode:
.LFB68:
	.loc 1 255 0
	.cfi_startproc
.LVL46:
	stwu 1,-48(1)
	.cfi_def_cfa_offset 48
	mflr 0
	stmw 28,32(1)
	.cfi_register 65, 0
	.cfi_offset 28, -16
	.cfi_offset 29, -12
	.cfi_offset 30, -8
	.cfi_offset 31, -4
	.loc 1 257 0
	lis 31,rmode@ha
	lwz 3,rmode@l(31)
.LVL47:
	lis 29,.LANCHOR1@ha
	.loc 1 255 0
	stw 0,52(1)
	.cfi_offset 65, 4
	.loc 1 257 0
	la 30,.LANCHOR1@l(29)
	bl SYS_AllocateFramebuffer
.LVL48:
	.loc 1 264 0
	lis 28,fb@ha
	.loc 1 257 0
	addis 3,3,0x4000
	stw 3,.LANCHOR1@l(29)
	.loc 1 258 0
	lwz 3,rmode@l(31)
	bl SYS_AllocateFramebuffer
.LVL49:
	.loc 1 260 0
	lwz 4,.LANCHOR1@l(29)
	.loc 1 258 0
	addis 3,3,0x4000
	.loc 1 260 0
	li 5,0
	.loc 1 258 0
	stw 3,4(30)
	.loc 1 260 0
	lwz 3,rmode@l(31)
	bl VIDEO_ClearFrameBuffer
.LVL50:
	.loc 1 261 0
	lwz 4,4(30)
	lwz 3,rmode@l(31)
	li 5,0
	bl VIDEO_ClearFrameBuffer
.LVL51:
	.loc 1 263 0
	lwz 3,rmode@l(31)
	bl VIDEO_Configure
.LVL52:
	.loc 1 264 0
	lwz 9,fb@l(28)
	slwi 9,9,2
	lwzx 3,30,9
	bl VIDEO_SetNextFramebuffer
.LVL53:
	.loc 1 265 0
	li 3,0
	bl VIDEO_SetBlack
.LVL54:
	.loc 1 266 0
	bl VIDEO_Flush
.LVL55:
	.loc 1 267 0
	bl VIDEO_WaitVSync
.LVL56:
	.loc 1 268 0
	lwz 9,rmode@l(31)
	lwz 9,0(9)
	andi. 10,9,1
	beq+ 0,.L31
	.loc 1 268 0 is_stmt 0 discriminator 1
	bl VIDEO_WaitVSync
.LVL57:
.L31:
	.loc 1 273 0 is_stmt 1
	lwz 3,rmode@l(31)
.LVL58:
	.loc 1 276 0
	li 7,300
	li 5,30
	li 4,30
	.loc 1 273 0
	lhz 6,4(3)
	.loc 1 276 0
	addi 6,6,-60
.LVL59:
	bl CON_InitEx
.LVL60:
	lis 9,_console_inited@ha
	cntlzw 3,3
	.loc 1 290 0
	lis 4,0x4
	.loc 1 276 0
	srwi 3,3,5
	stb 3,_console_inited@l(9)
.LVL61:
	.loc 1 290 0
	li 3,32
	bl memalign
.LVL62:
	.loc 1 291 0
	lis 5,0x4
	.loc 1 290 0
	mr 29,3
.LVL63:
	.loc 1 291 0
	li 4,0
	bl memset
.LVL64:
	.loc 1 293 0
	lis 4,0x4
	mr 3,29
	bl GX_Init
.LVL65:
	.loc 1 296 0
	lwz 9,rmode@l(31)
	lis 10,0x4330
	lis 7,.LC11@ha
	lhz 8,4(9)
	stw 10,8(1)
	stw 8,12(1)
	lfs 4,.LC11@l(7)
	lhz 9,6(9)
	lfd 0,8(1)
	stw 10,16(1)
	stw 9,20(1)
	fsub 3,0,4
	lis 9,.LC9@ha
	lfd 0,16(1)
	lfs 1,.LC9@l(9)
	frsp 3,3
	fsub 4,0,4
	lis 9,.LC5@ha
	fmr 2,1
	lfs 6,.LC5@l(9)
	fmr 5,1
	frsp 4,4
	bl GX_SetViewport
.LVL66:
	.loc 1 297 0
	lwz 9,rmode@l(31)
	lhz 4,8(9)
	lhz 3,6(9)
	bl GX_GetYScaleFactor
.LVL67:
	.loc 1 298 0
	bl GX_SetDispCopyYScale
.LVL68:
	.loc 1 300 0
	lwz 9,rmode@l(31)
	.loc 1 298 0
	mr 29,3
.LVL69:
	.loc 1 300 0
	li 4,0
	lhz 5,4(9)
	li 3,0
.LVL70:
	lhz 6,6(9)
	bl GX_SetScissor
.LVL71:
	.loc 1 301 0
	lwz 9,rmode@l(31)
	lis 10,fb_max_height@ha
	.loc 1 303 0
	lis 5,scissorInfo@ha
	.loc 1 301 0
	lhz 7,6(9)
	.loc 1 303 0
	la 8,scissorInfo@l(5)
	.loc 1 302 0
	lhz 6,4(9)
	.loc 1 306 0
	li 3,0
	.loc 1 301 0
	stw 7,fb_max_height@l(10)
	.loc 1 302 0
	lis 10,fb_max_width@ha
	stw 6,fb_max_width@l(10)
	.loc 1 303 0
	li 10,0
	stw 10,scissorInfo@l(5)
	.loc 1 304 0
	lis 5,viewPort@ha
	.loc 1 303 0
	stw 10,4(8)
	.loc 1 306 0
	li 4,0
	.loc 1 303 0
	stw 7,12(8)
	stw 6,8(8)
	.loc 1 304 0
	la 8,viewPort@l(5)
	stw 10,4(8)
	stw 6,8(8)
	stw 7,12(8)
	stw 10,viewPort@l(5)
	.loc 1 306 0
	lhz 6,6(9)
	lhz 5,4(9)
	bl GX_SetDispCopySrc
.LVL72:
	.loc 1 307 0
	lwz 9,rmode@l(31)
	rlwinm 4,29,0,0xffff
	lhz 3,4(9)
	bl GX_SetDispCopyDst
.LVL73:
	.loc 1 308 0
	lwz 6,rmode@l(31)
	li 5,1
	lbz 3,25(6)
	addi 4,6,26
	addi 6,6,50
	bl GX_SetCopyFilter
.LVL74:
	.loc 1 309 0
	lwz 9,rmode@l(31)
	lhz 10,8(9)
	lhz 4,16(9)
	slwi 10,10,1
	lbz 3,24(9)
	xor 4,4,10
	cntlzw 4,4
	srwi 4,4,5
	bl GX_SetFieldMode
.LVL75:
	.loc 1 311 0
	lwz 9,rmode@l(31)
	.loc 1 312 0
	li 3,2
	.loc 1 311 0
	lbz 9,25(9)
	cmpwi 7,9,0
	bne- 7,.L42
	.loc 1 314 0
	li 3,0
.L42:
	li 4,0
	.loc 1 316 0
	li 31,0
.LVL76:
	.loc 1 314 0
	bl GX_SetPixelFmt
.LVL77:
	.loc 1 316 0
	li 9,127
	rlwimi 31,9,24,0,7
.LVL78:
	.loc 1 318 0
	mr 29,1
.LVL79:
	.loc 1 316 0
	rlwimi 31,9,16,8,15
	.loc 1 318 0
	li 4,0
	.loc 1 316 0
	rlwimi 31,9,8,16,23
	li 9,-1
	rlwimi 31,9,0,24,31
	.loc 1 318 0
	stwu 31,24(29)
	mr 3,29
	bl GX_SetCopyClear
.LVL80:
	.loc 1 319 0
	lwz 9,fb@l(28)
	li 4,1
	slwi 9,9,2
	lwzx 3,30,9
	bl GX_CopyDisp
.LVL81:
	.loc 1 320 0
	lis 4,0xff
	mr 3,29
	ori 4,4,65535
	stw 31,24(1)
	bl GX_SetCopyClear
.LVL82:
	.loc 1 321 0
	lwz 9,fb@l(28)
	li 4,1
	.loc 1 347 0
	li 31,0
.LVL83:
	.loc 1 321 0
	slwi 9,9,2
	lwzx 3,30,9
	bl GX_CopyDisp
.LVL84:
	.loc 1 322 0
	lwz 9,fb@l(28)
	li 4,1
	slwi 9,9,2
	lwzx 3,30,9
	bl GX_CopyDisp
.LVL85:
	.loc 1 323 0
	li 3,0
	bl GX_SetDispCopyGamma
.LVL86:
	.loc 1 332 0
	li 3,0
	li 4,9
	li 5,1
	li 6,4
	li 7,0
	bl GX_SetVtxAttrFmt
.LVL87:
	.loc 1 333 0
	li 3,0
	li 4,10
	li 5,0
	li 6,4
	li 7,0
	bl GX_SetVtxAttrFmt
.LVL88:
	.loc 1 334 0
	li 5,1
	li 6,5
	li 7,0
	li 3,0
	li 4,11
	bl GX_SetVtxAttrFmt
.LVL89:
	.loc 1 339 0
	bl GX_ClearVtxDesc
.LVL90:
	.loc 1 340 0
	li 3,9
	li 4,1
	bl GX_SetVtxDesc
.LVL91:
	.loc 1 341 0
	li 3,10
	li 4,1
	bl GX_SetVtxDesc
.LVL92:
	.loc 1 342 0
	li 3,11
	li 4,1
	bl GX_SetVtxDesc
.LVL93:
	.loc 1 343 0
	li 3,13
	li 4,1
	bl GX_SetVtxDesc
.LVL94:
.L35:
	.loc 1 349 0 discriminator 2
	rlwinm 3,31,0,0xff
	bl incTexDesc
.LVL95:
	li 5,1
	mr 4,3
	li 6,4
	li 3,0
	li 7,0
	bl GX_SetVtxAttrFmt
.LVL96:
	.loc 1 347 0 discriminator 2
	cmpwi 7,31,7
	addi 31,31,1
.LVL97:
	bne+ 7,.L35
	.loc 1 352 0
	li 3,9
	li 4,0
	li 5,0
	.loc 1 355 0
	li 31,0
.LVL98:
	.loc 1 352 0
	bl GX_SetArray
.LVL99:
	.loc 1 353 0
	li 3,10
	li 4,0
	li 5,0
	bl GX_SetArray
.LVL100:
	.loc 1 354 0
	li 3,11
	li 4,0
	li 5,0
	bl GX_SetArray
.LVL101:
.L37:
	.loc 1 357 0 discriminator 2
	rlwinm 3,31,0,0xff
	bl incTexDesc
.LVL102:
	li 4,0
	li 5,0
	bl GX_SetArray
.LVL103:
	.loc 1 355 0 discriminator 2
	cmpwi 7,31,7
	addi 31,31,1
.LVL104:
	bne+ 7,.L37
	.loc 1 362 0
	li 4,1
	li 5,4
	li 6,60
	li 3,0
	bl GX_SetTexCoordGen
.LVL105:
	.loc 1 364 0
	li 3,1
	bl GX_SetNumChans
.LVL106:
	.loc 1 366 0
	li 3,1
	bl GX_SetNumTexGens
.LVL107:
	.loc 1 367 0
	bl GX_InvalidateTexAll
.LVL108:
	.loc 1 369 0
	li 5,255
	li 6,4
	li 3,0
	li 4,255
	bl GX_SetTevOrder
.LVL109:
	.loc 1 370 0
	li 4,4
	li 3,0
	bl GX_SetTevOp
.LVL110:
	.loc 1 373 0
	li 3,1
	bl GX_SetAlphaUpdate
.LVL111:
	.loc 1 375 0
	li 3,0
	bl GX_SetCullMode
.LVL112:
	.loc 1 377 0
	bl GX_DrawDone
.LVL113:
	.loc 1 381 0
	lwz 0,52(1)
	lmw 28,32(1)
.LVL114:
	mtlr 0
	.cfi_restore 65
	addi 1,1,48
	.cfi_restore 31
	.cfi_restore 30
	.cfi_restore 29
	.cfi_restore 28
	.cfi_def_cfa_offset 0
	.loc 1 380 0
	b ResetArrays
.LVL115:
	.cfi_endproc
.LFE68:
	.size	glutInitDisplayMode, .-glutInitDisplayMode
	.align 2
	.globl computeFactor
	.type	computeFactor, @function
computeFactor:
.LFB70:
	.loc 1 395 0
	.cfi_startproc
	.loc 1 396 0
	lis 9,rmode@ha
	.loc 1 395 0
	stwu 1,-24(1)
	.cfi_def_cfa_offset 24
	.loc 1 396 0
	lwz 9,rmode@l(9)
	lhz 10,6(9)
	lis 9,0x4330
	stw 9,8(1)
	stw 10,12(1)
	lis 10,.LC11@ha
	lfs 0,.LC11@l(10)
	lis 10,offset@ha
	lwz 10,offset@l(10)
	lfd 13,8(1)
	slwi 10,10,1
	stw 9,16(1)
	xoris 10,10,0x8000
	lis 9,.LC13@ha
	stw 10,20(1)
	fsub 0,13,0
	lfs 1,.LC13@l(9)
	lfd 13,16(1)
	.loc 1 397 0
	.loc 1 396 0
	frsp 0,0
	.loc 1 397 0
	addi 1,1,24
	.cfi_def_cfa_offset 0
	.loc 1 396 0
	fsub 1,13,1
	frsp 1,1
	fsubs 1,0,1
	.loc 1 397 0
	fdivs 1,1,0
	blr
	.cfi_endproc
.LFE70:
	.size	computeFactor, .-computeFactor
	.align 2
	.globl GX_SetModViewport
	.type	GX_SetModViewport, @function
GX_SetModViewport:
.LFB71:
	.loc 1 400 0
	.cfi_startproc
.LVL116:
	stwu 1,-64(1)
	.cfi_def_cfa_offset 64
	mflr 0
	addi 11,1,64
	stw 0,68(1)
	.cfi_offset 65, 4
	bl _savefpr_29
	.cfi_offset 61, -24
	.cfi_offset 62, -16
	.cfi_offset 63, -8
	.loc 1 400 0
	fmr 31,4
	.loc 1 401 0
	stfd 3,16(1)
	.loc 1 400 0
	fmr 30,1
	.loc 1 401 0
	stfd 5,24(1)
	.loc 1 400 0
	fmr 29,2
	.loc 1 401 0
	stfd 6,32(1)
	bl computeFactor
.LVL117:
	.loc 1 403 0
	lis 9,rmode@ha
	lwz 9,rmode@l(9)
	.loc 1 401 0
	fmr 4,1
.LVL118:
	.loc 1 403 0
	fadds 29,29,31
.LVL119:
	.loc 1 404 0
	lwz 0,68(1)
	.loc 1 403 0
	lhz 10,6(9)
	lis 9,offset@ha
	lwz 9,offset@l(9)
	fneg 2,1
	fmuls 4,31,4
	lfd 3,16(1)
	subf 9,9,10
	fmr 1,30
.LVL120:
	xoris 9,9,0x8000
	lfd 5,24(1)
	stw 9,12(1)
	lis 9,0x4330
	stw 9,8(1)
	lis 9,.LC13@ha
	lfs 0,.LC13@l(9)
	.loc 1 404 0
	mtlr 0
	.cfi_restore 65
	.loc 1 403 0
	lfd 13,8(1)
	lfd 6,32(1)
	fsub 0,13,0
	.loc 1 404 0
	lfd 30,48(1)
.LVL121:
	lfd 31,56(1)
.LVL122:
	.loc 1 403 0
	frsp 0,0
	fmadds 2,2,29,0
	.loc 1 404 0
	lfd 29,40(1)
	addi 1,1,64
	.cfi_restore 63
	.cfi_restore 62
	.cfi_restore 61
	.cfi_def_cfa_offset 0
	.loc 1 403 0
	b GX_SetViewport
.LVL123:
	.cfi_endproc
.LFE71:
	.size	GX_SetModViewport, .-GX_SetModViewport
	.align 2
	.globl glutCreateWindow
	.type	glutCreateWindow, @function
glutCreateWindow:
.LFB69:
	.loc 1 383 0
	.cfi_startproc
.LVL124:
	mflr 0
	stwu 1,-40(1)
	.cfi_def_cfa_offset 40
	.cfi_register 65, 0
	.loc 1 384 0
	lis 9,rmode@ha
	lis 7,.LC11@ha
	.loc 1 383 0
	stfd 31,32(1)
	stw 0,44(1)
	.cfi_offset 63, -8
	.cfi_offset 65, 4
	.loc 1 384 0
	lwz 10,rmode@l(9)
	lis 9,0x4330
	lfs 4,.LC11@l(7)
	lhz 8,4(10)
	stw 9,16(1)
	stw 8,20(1)
	lhz 10,6(10)
	lfd 0,16(1)
	stw 10,28(1)
	stw 9,24(1)
	fsub 3,0,4
	lis 9,.LC5@ha
	lfd 0,24(1)
	lfs 31,.LC5@l(9)
	lis 9,.LC9@ha
	fsub 4,0,4
	lfs 1,.LC9@l(9)
	frsp 3,3
	fmr 2,1
	fmr 5,1
	frsp 4,4
	fmr 6,31
	bl GX_SetModViewport
.LVL125:
	.loc 1 386 0
	li 3,5888
	bl glMatrixMode
.LVL126:
	.loc 1 387 0
	bl glLoadIdentity
.LVL127:
	.loc 1 388 0
	lis 9,.LC14@ha
	lfd 1,.LC14@l(9)
	fmr 8,31
	lis 9,.LC7@ha
	fmr 2,1
	stfd 1,8(1)
	fmr 3,1
	lfs 6,.LC7@l(9)
	fmr 4,1
	fmr 5,1
	fmr 7,1
	bl gluLookAt
.LVL128:
	.loc 1 390 0
	addi 11,1,40
	li 3,0
	b _restfpr_31_x
	.cfi_restore 63
	.cfi_restore 65
	.cfi_endproc
.LFE69:
	.size	glutCreateWindow, .-glutCreateWindow
	.align 2
	.globl GX_SetModScissor
	.type	GX_SetModScissor, @function
GX_SetModScissor:
.LFB72:
	.loc 1 407 0
	.cfi_startproc
.LVL129:
	mflr 0
	stwu 1,-64(1)
	.cfi_def_cfa_offset 64
	.cfi_register 65, 0
	stmw 30,56(1)
	.cfi_offset 30, -8
	.cfi_offset 31, -4
	mr 30,4
	mr 31,6
	.loc 1 408 0
	stw 3,48(1)
	stw 5,52(1)
	.loc 1 410 0
	add 30,30,31
	.loc 1 407 0
	stw 0,68(1)
	.cfi_offset 65, 4
	.loc 1 408 0
	bl computeFactor
.LVL130:
	.loc 1 410 0
	lis 9,rmode@ha
	fneg 12,1
	lwz 9,rmode@l(9)
	lwz 3,48(1)
.LVL131:
	lhz 10,6(9)
	lis 9,offset@ha
	lwz 9,offset@l(9)
	stw 30,20(1)
	subf 10,9,10
	lis 9,0x4330
	xoris 10,10,0x8000
	stw 9,8(1)
	stw 10,12(1)
	lis 10,.LC13@ha
	lfs 13,.LC13@l(10)
	lis 10,.LC11@ha
	lfd 0,8(1)
	stw 9,16(1)
	lis 9,.LC17@ha
	fsub 13,0,13
	lfs 0,.LC11@l(10)
	lfd 11,16(1)
	lwz 5,52(1)
.LVL132:
	fsub 0,11,0
	frsp 13,13
	frsp 0,0
	fmadds 0,12,0,13
	lfs 13,.LC17@l(9)
	fcmpu 7,0,13
	cror 30,29,30
	beq- 7,.L50
	fctiwz 0,0
	addi 8,1,44
	stfiwx 0,0,8
	lwz 4,44(1)
	b .L51
.L50:
	fsubs 0,0,13
	addi 8,1,40
	fctiwz 0,0
	stfiwx 0,0,8
	lwz 4,40(1)
	addis 4,4,0x8000
.L51:
	lfs 0,.LC11@l(10)
	lis 10,0x4330
	stw 31,28(1)
	stw 10,24(1)
	lfd 11,24(1)
	fsub 0,11,0
	frsp 0,0
	fmuls 1,1,0
.LVL133:
	lfs 0,.LC17@l(9)
	fcmpu 7,1,0
	cror 30,29,30
	beq- 7,.L52
	fctiwz 1,1
	addi 8,1,36
	stfiwx 1,0,8
	lwz 6,36(1)
	b .L53
.L52:
	fsubs 0,1,0
	addi 9,1,32
	fctiwz 0,0
	stfiwx 0,0,9
	lwz 6,32(1)
	addis 6,6,0x8000
.L53:
	.loc 1 411 0
	lwz 0,68(1)
	lmw 30,56(1)
.LVL134:
	mtlr 0
	.cfi_restore 65
	addi 1,1,64
	.cfi_restore 31
	.cfi_restore 30
	.cfi_def_cfa_offset 0
.LVL135:
	.loc 1 410 0
	b GX_SetScissor
.LVL136:
	.cfi_endproc
.LFE72:
	.size	GX_SetModScissor, .-GX_SetModScissor
	.align 2
	.globl GX_SetMaxScissor
	.type	GX_SetMaxScissor, @function
GX_SetMaxScissor:
.LFB73:
	.loc 1 414 0
	.cfi_startproc
	.loc 1 415 0
	lis 9,rmode@ha
	li 3,0
	lwz 9,rmode@l(9)
	li 4,0
	lhz 5,4(9)
	lhz 6,6(9)
	.loc 1 416 0
	.loc 1 415 0
	b GX_SetModScissor
.LVL137:
	.cfi_endproc
.LFE73:
	.size	GX_SetMaxScissor, .-GX_SetMaxScissor
	.align 2
	.globl glutSwapBuffers
	.type	glutSwapBuffers, @function
glutSwapBuffers:
.LFB74:
	.loc 1 421 0
	.cfi_startproc
	stwu 1,-16(1)
	.cfi_def_cfa_offset 16
	mflr 0
	stmw 30,8(1)
	.cfi_register 65, 0
	.cfi_offset 30, -8
	.cfi_offset 31, -4
	.loc 1 424 0
	lis 31,fb@ha
	.loc 1 421 0
	stw 0,20(1)
	.cfi_offset 65, 4
	.loc 1 422 0
	bl glFlush
.LVL138:
	.loc 1 424 0
	lwz 9,fb@l(31)
	.loc 1 426 0
	lis 30,.LANCHOR1@ha
	la 30,.LANCHOR1@l(30)
	li 4,0
	.loc 1 424 0
	xori 9,9,1
	stw 9,fb@l(31)
	.loc 1 426 0
	slwi 9,9,2
	lwzx 3,30,9
	bl GX_CopyDisp
.LVL139:
	.loc 1 428 0
	bl GX_DrawDone
.LVL140:
	.loc 1 429 0
	lis 9,incFPS@ha
	lbz 10,incFPS@l(9)
	addi 10,10,1
	rlwinm 10,10,0,0xff
	stb 10,incFPS@l(9)
	.loc 1 437 0
	lwz 9,fb@l(31)
	slwi 9,9,2
	lwzx 3,30,9
	bl VIDEO_SetNextFramebuffer
.LVL141:
	.loc 1 439 0
	bl VIDEO_Flush
.LVL142:
	.loc 1 442 0
	lwz 0,20(1)
	lmw 30,8(1)
	mtlr 0
	.cfi_restore 65
	addi 1,1,16
	.cfi_restore 31
	.cfi_restore 30
	.cfi_def_cfa_offset 0
	.loc 1 441 0
	b VIDEO_WaitVSync
.LVL143:
	.cfi_endproc
.LFE74:
	.size	glutSwapBuffers, .-glutSwapBuffers
	.align 2
	.globl glutInitWindowSize
	.type	glutInitWindowSize, @function
glutInitWindowSize:
.LFB75:
	.loc 1 444 0
	.cfi_startproc
.LVL144:
	stwu 1,-24(1)
	.cfi_def_cfa_offset 24
	.loc 1 445 0
	lis 9,0x4330
	xoris 3,3,0x8000
.LVL145:
	lis 10,.LC13@ha
	stw 9,8(1)
	xoris 4,4,0x8000
.LVL146:
	stw 3,12(1)
	stw 9,16(1)
	lis 9,.LC9@ha
	lfd 0,8(1)
	stw 4,20(1)
	lfs 4,.LC13@l(10)
	lfs 1,.LC9@l(9)
	lis 9,.LC5@ha
	fsub 3,0,4
	lfd 0,16(1)
	fmr 2,1
	lfs 6,.LC5@l(9)
	fsub 4,0,4
	.loc 1 446 0
	.loc 1 445 0
	frsp 3,3
	.loc 1 446 0
	addi 1,1,24
	.cfi_def_cfa_offset 0
	.loc 1 445 0
	fmr 5,1
	frsp 4,4
	b GX_SetModViewport
.LVL147:
	.cfi_endproc
.LFE75:
	.size	glutInitWindowSize, .-glutInitWindowSize
	.align 2
	.globl glutGet
	.type	glutGet, @function
glutGet:
.LFB76:
	.loc 1 448 0
	.cfi_startproc
.LVL148:
	.loc 1 450 0
	cmplwi 7,3,201
	.loc 1 453 0
	li 9,480
	.loc 1 450 0
	beq- 7,.L64
	cmplwi 7,3,504
	.loc 1 454 0
	li 9,18
	.loc 1 450 0
	beq- 7,.L64
	.loc 1 449 0
	xori 9,3,200
	addic 9,9,-1
	subfe 9,9,9
	andi. 9,9,640
.L64:
.LVL149:
	.loc 1 457 0
	mr 3,9
.LVL150:
	blr
	.cfi_endproc
.LFE76:
	.size	glutGet, .-glutGet
	.align 2
	.globl glutDisplayFunc
	.type	glutDisplayFunc, @function
glutDisplayFunc:
.LFB77:
	.loc 1 461 0
	.cfi_startproc
.LVL151:
	.loc 1 462 0
	lis 9,displayfunc@ha
	stw 3,displayfunc@l(9)
	blr
	.cfi_endproc
.LFE77:
	.size	glutDisplayFunc, .-glutDisplayFunc
	.align 2
	.globl glutIdleFunc
	.type	glutIdleFunc, @function
glutIdleFunc:
.LFB78:
	.loc 1 467 0
	.cfi_startproc
.LVL152:
	.loc 1 468 0
	lis 9,idlefunc@ha
	stw 3,idlefunc@l(9)
	blr
	.cfi_endproc
.LFE78:
	.size	glutIdleFunc, .-glutIdleFunc
	.align 2
	.globl getFPS
	.type	getFPS, @function
getFPS:
.LFB80:
	.loc 1 495 0
	.cfi_startproc
	.loc 1 497 0
	lis 9,FPS@ha
	lbz 3,FPS@l(9)
	blr
	.cfi_endproc
.LFE80:
	.size	getFPS, .-getFPS
	.align 2
	.globl glutMainLoop
	.type	glutMainLoop, @function
glutMainLoop:
.LFB82:
	.loc 1 511 0
	.cfi_startproc
.LVL153:
	stwu 1,-48(1)
	.cfi_def_cfa_offset 48
	mflr 0
	stmw 30,40(1)
	.cfi_register 65, 0
	.cfi_offset 30, -8
	.cfi_offset 31, -4
	.loc 1 516 0
	lis 31,watchdog@ha
	la 3,watchdog@l(31)
	.loc 1 511 0
	stw 0,52(1)
	.cfi_offset 65, 4
	.loc 1 516 0
	bl SYS_CreateAlarm
.LVL154:
	.loc 1 518 0
	lis 10,kill@ha
	.loc 1 526 0
	cmpwi 0,3,0
	.loc 1 518 0
	li 9,0
	stb 9,kill@l(10)
	.loc 1 523 0
	li 8,1
	.loc 1 520 0
	li 9,0
	.loc 1 523 0
	stw 8,8(1)
	.loc 1 520 0
	stw 9,16(1)
	mr 30,10
	.loc 1 521 0
	stw 9,20(1)
	.loc 1 524 0
	stw 9,12(1)
	.loc 1 526 0
	bne+ 0,.L71
	.loc 1 528 0
	lis 9,count@ha
	.loc 1 530 0
	lis 6,timercallback@ha
	.loc 1 528 0
	stb 3,count@l(9)
	.loc 1 530 0
	addi 4,1,16
	lwz 3,watchdog@l(31)
.LVL155:
	addi 5,1,8
	la 6,timercallback@l(6)
	li 7,0
	bl SYS_SetPeriodicAlarm
.LVL156:
.L71:
	.loc 1 535 0
	lis 4,glutThread@ha
	addi 3,1,24
	la 4,glutThread@l(4)
	li 5,0
	li 6,0
	li 7,0
	li 8,67
	bl LWP_CreateThread
.LVL157:
.L73:
	.loc 1 539 0
	addi 3,1,8
	bl nanosleep
.LVL158:
	.loc 1 540 0
	lbz 9,kill@l(30)
	cmpwi 7,9,0
	beq+ 7,.L73
	.loc 1 542 0
	bl do_reset
.LVL159:
	b .L73
	.cfi_endproc
.LFE82:
	.size	glutMainLoop, .-glutMainLoop
	.align 2
	.globl getFrontFramebuffer
	.type	getFrontFramebuffer, @function
getFrontFramebuffer:
.LFB83:
	.loc 1 549 0
	.cfi_startproc
	.loc 1 550 0
	lis 9,fb@ha
	.loc 1 551 0
	lis 10,.LANCHOR1@ha
	.loc 1 550 0
	lwz 9,fb@l(9)
	.loc 1 551 0
	la 10,.LANCHOR1@l(10)
	.loc 1 550 0
	slwi 9,9,2
	.loc 1 551 0
	lwzx 3,10,9
	blr
	.cfi_endproc
.LFE83:
	.size	getFrontFramebuffer, .-getFrontFramebuffer
	.align 2
	.globl getBackFramebuffer
	.type	getBackFramebuffer, @function
getBackFramebuffer:
.LFB84:
	.loc 1 554 0
	.cfi_startproc
	.loc 1 555 0
	lis 9,fb@ha
	.loc 1 556 0
	lis 10,.LANCHOR1@ha
	.loc 1 555 0
	lwz 9,fb@l(9)
	.loc 1 556 0
	la 10,.LANCHOR1@l(10)
	.loc 1 555 0
	xori 9,9,1
	slwi 9,9,2
	.loc 1 556 0
	lwzx 3,10,9
	blr
	.cfi_endproc
.LFE84:
	.size	getBackFramebuffer, .-getBackFramebuffer
	.align 2
	.globl power_off
	.type	power_off, @function
power_off:
.LFB85:
	.loc 1 559 0
	.cfi_startproc
.LVL160:
	.loc 1 560 0
	li 10,1
	lis 9,kill@ha
	stb 10,kill@l(9)
	blr
	.cfi_endproc
.LFE85:
	.size	power_off, .-power_off
	.comm	kill,1,1
	.comm	count,1,1
	.globl idlefunc
	.globl displayfunc
	.globl incFPS
	.globl FPS
	.globl offset
	.globl _console_inited
	.globl _console_enabled
	.globl fb
	.comm	watchdog,4,4
	.comm	rmode,4,4
	.globl __glutProgramName
	.comm	call_offset,4,4
	.comm	read_mode,4,4
	.comm	glTexEnvs,864,4
	.comm	fog_color,4,1
	.comm	fog_density,4,4
	.comm	fog_endz,4,4
	.comm	fog_startz,4,4
	.comm	fog_mode,1,1
	.comm	fog_enable,1,1
	.comm	Trans,32,4
	.comm	_clearcolor,4,1
	.comm	copy_material,4,4
	.comm	copy_mat_enabled,1,1
	.comm	color_write_mask,4,4
	.comm	unpack,20,4
	.comm	pack,20,4
	.comm	point_size,4,4
	.comm	line_width,4,4
	.comm	normFar,4,4
	.comm	normNear,4,4
	.comm	viewPort,16,4
	.comm	scissorInfo,16,4
	.comm	scissor_test,1,1
	.comm	fb_max_width,4,4
	.comm	fb_max_height,4,4
	.comm	cur_state,4,4
	.comm	cull_mode,1,1
	.comm	blend_op,1,1
	.comm	blend_dst,1,1
	.comm	blend_src,1,1
	.comm	blend_type,1,1
	.comm	lighting,1,1
	.comm	gxwinding,4,4
	.comm	gxcullfaceanabled,1,1
	.comm	curmat,68,4
	.comm	globAmbient,16,4
	.comm	lights,1312,4
	.comm	cur_mode,4,4
	.comm	curmtx,4,4
	.comm	texture_stack,128,4
	.comm	projection_stack,16,4
	.comm	model_stack,16,4
	.comm	_cleardepth,4,4
	.comm	depthfunction,4,4
	.comm	depthupdate,1,1
	.comm	depthtestenabled,1,1
	.comm	cur_tex_client,4,4
	.comm	cur_tex,4,4
	.comm	_GLtype,4,4
	.comm	_type,4,4
	.comm	vert_i,4,4
	.comm	_colorelements,16000,32
	.comm	_texcoordelements,64000,32
	.comm	_vertexelements,12000,32
	.comm	_normalelements,12000,32
	.comm	color,20,4
	.comm	tex,160,4
	.comm	vert,20,4
	.comm	norm,20,4
	.comm	_temptexcoordelement,64,4
	.comm	_tempnormalelement,12,4
	.comm	_tempcolorelement,16,4
	.section	.rodata
	.align 2
	.set	.LANCHOR0,. + 0
.LC0:
	.long	1065353216
	.long	1065353216
	.long	1065353216
	.long	1065353216
.LC1:
	.long	1045220557
	.long	1045220557
	.long	1045220557
	.long	1065353216
.LC2:
	.long	1061997773
	.long	1061997773
	.long	1061997773
	.long	1065353216
	.section	.rodata.cst4,"aM",@progbits,4
	.align 2
.LC5:
	.4byte	1065353216
.LC6:
	.4byte	1127481344
.LC7:
	.4byte	-1082130432
.LC8:
	.4byte	1085370904
.LC9:
	.4byte	0
.LC11:
	.4byte	1501560832
.LC13:
	.4byte	1501560836
.LC17:
	.4byte	1325400064
	.section	.rodata.cst8,"aM",@progbits,8
	.align 3
.LC14:
	.4byte	0
	.4byte	0
	.section	.rodata.str1.1,"aMS",@progbits,1
.LC3:
	.string	"%d\n"
.LC4:
	.string	"test"
	.section	.sbss,"aw",@nobits
	.align 2
	.type	idlefunc, @object
	.size	idlefunc, 4
idlefunc:
	.zero	4
	.type	displayfunc, @object
	.size	displayfunc, 4
displayfunc:
	.zero	4
	.type	incFPS, @object
	.size	incFPS, 1
incFPS:
	.zero	1
	.type	FPS, @object
	.size	FPS, 1
FPS:
	.zero	1
	.type	_console_inited, @object
	.size	_console_inited, 1
_console_inited:
	.zero	1
	.type	_console_enabled, @object
	.size	_console_enabled, 1
_console_enabled:
	.zero	1
	.type	fb, @object
	.size	fb, 4
fb:
	.zero	4
	.type	__glutProgramName, @object
	.size	__glutProgramName, 4
__glutProgramName:
	.zero	4
	.section	.sdata,"aw",@progbits
	.align 2
	.type	offset, @object
	.size	offset, 4
offset:
	.long	10
	.section	".bss"
	.align 2
	.set	.LANCHOR1,. + 0
	.type	frameBuffer, @object
	.size	frameBuffer, 8
frameBuffer:
	.zero	8
	.section	".text"
.Letext0:
	.file 2 "d:\\devkitpro\\devkitppc\\lib\\gcc\\powerpc-eabi\\4.8.2\\include\\stddef.h"
	.file 3 "d:\\devkitpro\\devkitppc\\powerpc-eabi\\include\\sys\\types.h"
	.file 4 "d:\\devkitpro\\devkitppc\\powerpc-eabi\\include\\stdint.h"
	.file 5 "D:\\devkitPro\\/libogc/include/gctypes.h"
	.file 6 "D:\\devkitPro\\/libogc/include/ogc/gx_struct.h"
	.file 7 "D:\\devkitPro\\/libogc/include/ogc/gu.h"
	.file 8 "D:\\devkitPro\\/libogc/include/ogc/lwp.h"
	.file 9 "D:\\devkitPro\\/libogc/include/ogc/gx.h"
	.file 10 "D:\\devkitPro\\/libogc/include/ogc/system.h"
	.file 11 "D:/devkitPro/portlibs/thirdparty/gl2gx/libogc/include/GL/gl.h"
	.file 12 "D:/devkitPro/portlibs/thirdparty/gl2gx/libogc/../source/include/glint.h"
	.file 13 "D:/devkitPro/portlibs/thirdparty/gl2gx/libogc/../source/include/mat_stack.h"
	.file 14 "D:\\devkitPro\\/libogc/include/ogc/video.h"
	.file 15 "d:\\devkitpro\\devkitppc\\powerpc-eabi\\include\\stdio.h"
	.file 16 "D:\\devkitPro\\/libogc/include/ogc/consol.h"
	.file 17 "d:\\devkitpro\\devkitppc\\powerpc-eabi\\include\\malloc.h"
	.file 18 "D:/devkitPro/portlibs/thirdparty/gl2gx/libogc/include/GL/glu.h"
	.file 19 "D:\\devkitPro\\/libogc/include/ogcsys.h"