	.file	"glut_ext.c"
	.section	".text"
.Ltext0:
	.cfi_sections	.debug_frame
	.align 2
	.globl glutExtensionSupported
	.type	glutExtensionSupported, @function
glutExtensionSupported:
.LFB0:
	.file 1 "D:/devkitPro/portlibs/thirdparty/gl2gx/libogc/../source/glut/glut_ext.c"
	.loc 1 16 0
	.cfi_startproc
.LVL0:
	mflr 0
	stwu 1,-24(1)
	.cfi_def_cfa_offset 24
	.cfi_register 65, 0
	.loc 1 22 0
	li 4,32
	.loc 1 16 0
	stmw 29,12(1)
	.cfi_offset 29, -12
	.cfi_offset 30, -8
	.cfi_offset 31, -4
	mr 30,3
	stw 0,28(1)
	.cfi_offset 65, 4
	.loc 1 22 0
	bl strchr
.LVL1:
	.loc 1 23 0
	cmpwi 7,3,0
	beq- 7,.L2
.L4:
	.loc 1 24 0
	li 3,0
.LVL2:
	b .L3
.LVL3:
.L2:
	.loc 1 23 0 discriminator 1
	lbz 9,0(30)
	cmpwi 7,9,0
	beq- 7,.L4
	.loc 1 26 0
	lis 31,.LANCHOR0@ha
	lwz 9,.LANCHOR0@l(31)
	cmpwi 7,9,0
	bne+ 7,.L5
	.loc 1 27 0
	li 3,7939
.LVL4:
	bl glGetString
.LVL5:
	stw 3,.LANCHOR0@l(31)
.L5:
	.loc 1 31 0
	lwz 29,.LANCHOR0@l(31)
.LVL6:
.L6:
	.loc 1 33 0
	mr 3,29
	mr 4,30
	bl strstr
.LVL7:
	.loc 1 34 0
	mr. 31,3
	beq- 0,.L4
	.loc 1 36 0
	mr 3,30
.LVL8:
	bl strlen
.LVL9:
	.loc 1 37 0
	cmplw 7,31,29
	.loc 1 36 0
	add 10,31,3
.LVL10:
	.loc 1 37 0
	beq- 7,.L7
	.loc 1 37 0 is_stmt 0 discriminator 1
	lbz 9,-1(31)
	cmpwi 7,9,32
	beq- 7,.L7
.L8:
	.loc 1 16 0 is_stmt 1
	mr 29,10
.LVL11:
	b .L6
.LVL12:
.L7:
	.loc 1 38 0
	lbzx 9,31,3
	andi. 9,9,223
	cmpwi 7,9,0
	bne+ 7,.L8
	.loc 1 39 0
	li 3,1
.LVL13:
.L3:
	.loc 1 45 0
	addi 11,1,24
	b _restgpr_29_x
	.cfi_restore 31
	.cfi_restore 30
	.cfi_restore 29
	.cfi_restore 65
	.cfi_endproc
.LFE0:
	.size	glutExtensionSupported, .-glutExtensionSupported
	.align 2
	.globl __glutIsSupportedByGLX
	.type	__glutIsSupportedByGLX, @function
__glutIsSupportedByGLX:
.LFB1:
	.loc 1 51 0
	.cfi_startproc
.LVL14:
	.loc 1 87 0
	li 3,0
.LVL15:
	blr
	.cfi_endproc
.LFE1:
	.size	__glutIsSupportedByGLX, .-__glutIsSupportedByGLX
	.section	".bss"
	.align 2
	.set	.LANCHOR0,. + 0
	.type	extensions.8890, @object
	.size	extensions.8890, 4
extensions.8890:
	.zero	4
	.section	".text"
.Letext0:
	.file 2 "d:\\devkitpro\\devkitppc\\lib\\gcc\\powerpc-eabi\\4.8.2\\include\\stddef.h"
	.file 3 "D:/devkitPro/portlibs/thirdparty/gl2gx/libogc/include/GL/gl.h"
	.file 4 "d:\\devkitpro\\devkitppc\\powerpc-eabi\\include\\string.h"